
/home/cayden/devdir/h3/firmware/buddha/buddha.elf:     file format elf32-littlearm

Sections:
Idx Name          Size      VMA       LMA       File off  Algn
  0 .boot2        00000100  10000000  10000000  00001000  2**0
                  CONTENTS, ALLOC, LOAD, READONLY, CODE
  1 .text         000079d8  10000100  10000100  00001100  2**3
                  CONTENTS, ALLOC, LOAD, READONLY, CODE
  2 .rodata       00000768  10007ad8  10007ad8  00008ad8  2**3
                  CONTENTS, ALLOC, LOAD, READONLY, DATA
  3 .binary_info  00000028  10008240  10008240  00009240  2**2
                  CONTENTS, ALLOC, LOAD, DATA
  4 .ram_vector_table 000000c0  20000000  20000000  0000b368  2**2
                  CONTENTS
  5 .data         000012a8  200000c0  10008268  0000a0c0  2**4
                  CONTENTS, ALLOC, LOAD, READONLY, CODE
  6 .uninitialized_data 00000000  20001368  20001368  0000b428  2**0
                  CONTENTS
  7 .scratch_x    00000000  20040000  20040000  0000b428  2**0
                  CONTENTS
  8 .scratch_y    00000000  20041000  20041000  0000b428  2**0
                  CONTENTS
  9 .bss          00000db4  20001368  20001368  0000b368  2**3
                  ALLOC
 10 .heap         00000800  2000211c  2000211c  0000b428  2**2
                  CONTENTS, READONLY
 11 .stack_dummy  00000800  20041000  20041000  0000bc40  2**5
                  CONTENTS, READONLY
 12 .ARM.attributes 00000028  00000000  00000000  0000c440  2**0
                  CONTENTS, READONLY
 13 .comment      00000033  00000000  00000000  0000c468  2**0
                  CONTENTS, READONLY
 14 .debug_line   0000043a  00000000  00000000  0000c49b  2**0
                  CONTENTS, READONLY, DEBUGGING, OCTETS
 15 .debug_info   000013b0  00000000  00000000  0000c8d5  2**0
                  CONTENTS, READONLY, DEBUGGING, OCTETS
 16 .debug_abbrev 00000474  00000000  00000000  0000dc85  2**0
                  CONTENTS, READONLY, DEBUGGING, OCTETS
 17 .debug_aranges 00000078  00000000  00000000  0000e100  2**3
                  CONTENTS, READONLY, DEBUGGING, OCTETS
 18 .debug_str    00000727  00000000  00000000  0000e178  2**0
                  CONTENTS, READONLY, DEBUGGING, OCTETS
 19 .debug_loc    000000e6  00000000  00000000  0000e89f  2**0
                  CONTENTS, READONLY, DEBUGGING, OCTETS
 20 .debug_frame  00000060  00000000  00000000  0000e988  2**2
                  CONTENTS, READONLY, DEBUGGING, OCTETS

/home/cayden/devdir/h3/firmware/buddha/buddha.elf:     file format elf32-littlearm


Disassembly of section .boot2:

10000000 <__boot2_start__>:
10000000:	4b32b500 	.word	0x4b32b500
10000004:	60582021 	.word	0x60582021
10000008:	21026898 	.word	0x21026898
1000000c:	60984388 	.word	0x60984388
10000010:	611860d8 	.word	0x611860d8
10000014:	4b2e6158 	.word	0x4b2e6158
10000018:	60992100 	.word	0x60992100
1000001c:	61592102 	.word	0x61592102
10000020:	22f02101 	.word	0x22f02101
10000024:	492b5099 	.word	0x492b5099
10000028:	21016019 	.word	0x21016019
1000002c:	20356099 	.word	0x20356099
10000030:	f844f000 	.word	0xf844f000
10000034:	42902202 	.word	0x42902202
10000038:	2106d014 	.word	0x2106d014
1000003c:	f0006619 	.word	0xf0006619
10000040:	6e19f834 	.word	0x6e19f834
10000044:	66192101 	.word	0x66192101
10000048:	66182000 	.word	0x66182000
1000004c:	f000661a 	.word	0xf000661a
10000050:	6e19f82c 	.word	0x6e19f82c
10000054:	6e196e19 	.word	0x6e196e19
10000058:	f0002005 	.word	0xf0002005
1000005c:	2101f82f 	.word	0x2101f82f
10000060:	d1f94208 	.word	0xd1f94208
10000064:	60992100 	.word	0x60992100
10000068:	6019491b 	.word	0x6019491b
1000006c:	60592100 	.word	0x60592100
10000070:	481b491a 	.word	0x481b491a
10000074:	21016001 	.word	0x21016001
10000078:	21eb6099 	.word	0x21eb6099
1000007c:	21a06619 	.word	0x21a06619
10000080:	f0006619 	.word	0xf0006619
10000084:	2100f812 	.word	0x2100f812
10000088:	49166099 	.word	0x49166099
1000008c:	60014814 	.word	0x60014814
10000090:	60992101 	.word	0x60992101
10000094:	2800bc01 	.word	0x2800bc01
10000098:	4700d000 	.word	0x4700d000
1000009c:	49134812 	.word	0x49134812
100000a0:	c8036008 	.word	0xc8036008
100000a4:	8808f380 	.word	0x8808f380
100000a8:	b5034708 	.word	0xb5034708
100000ac:	20046a99 	.word	0x20046a99
100000b0:	d0fb4201 	.word	0xd0fb4201
100000b4:	42012001 	.word	0x42012001
100000b8:	bd03d1f8 	.word	0xbd03d1f8
100000bc:	6618b502 	.word	0x6618b502
100000c0:	f7ff6618 	.word	0xf7ff6618
100000c4:	6e18fff2 	.word	0x6e18fff2
100000c8:	bd026e18 	.word	0xbd026e18
100000cc:	40020000 	.word	0x40020000
100000d0:	18000000 	.word	0x18000000
100000d4:	00070000 	.word	0x00070000
100000d8:	005f0300 	.word	0x005f0300
100000dc:	00002221 	.word	0x00002221
100000e0:	180000f4 	.word	0x180000f4
100000e4:	a0002022 	.word	0xa0002022
100000e8:	10000100 	.word	0x10000100
100000ec:	e000ed08 	.word	0xe000ed08
	...
100000fc:	7a4eb274 	.word	0x7a4eb274

Disassembly of section .text:

10000100 <__VECTOR_TABLE>:
10000100:	20042000 	.word	0x20042000
10000104:	100001f7 	.word	0x100001f7
10000108:	100001c3 	.word	0x100001c3
1000010c:	100001c5 	.word	0x100001c5
10000110:	100001c1 	.word	0x100001c1
10000114:	100001c1 	.word	0x100001c1
10000118:	100001c1 	.word	0x100001c1
1000011c:	100001c1 	.word	0x100001c1
10000120:	100001c1 	.word	0x100001c1
10000124:	100001c1 	.word	0x100001c1
10000128:	100001c1 	.word	0x100001c1
1000012c:	100001c7 	.word	0x100001c7
10000130:	100001c1 	.word	0x100001c1
10000134:	100001c1 	.word	0x100001c1
10000138:	100001c9 	.word	0x100001c9
1000013c:	100001cb 	.word	0x100001cb
10000140:	100001cd 	.word	0x100001cd
10000144:	100001cd 	.word	0x100001cd
10000148:	100001cd 	.word	0x100001cd
1000014c:	100001cd 	.word	0x100001cd
10000150:	100001cd 	.word	0x100001cd
10000154:	100001cd 	.word	0x100001cd
10000158:	100001cd 	.word	0x100001cd
1000015c:	100001cd 	.word	0x100001cd
10000160:	100001cd 	.word	0x100001cd
10000164:	100001cd 	.word	0x100001cd
10000168:	100001cd 	.word	0x100001cd
1000016c:	100001cd 	.word	0x100001cd
10000170:	100001cd 	.word	0x100001cd
10000174:	100001cd 	.word	0x100001cd
10000178:	100001cd 	.word	0x100001cd
1000017c:	100001cd 	.word	0x100001cd
10000180:	100001cd 	.word	0x100001cd
10000184:	100001cd 	.word	0x100001cd
10000188:	100001cd 	.word	0x100001cd
1000018c:	100001cd 	.word	0x100001cd
10000190:	100001cd 	.word	0x100001cd
10000194:	100001cd 	.word	0x100001cd
10000198:	100001cd 	.word	0x100001cd
1000019c:	100001cd 	.word	0x100001cd
100001a0:	100001cd 	.word	0x100001cd
100001a4:	100001cd 	.word	0x100001cd
100001a8:	100001cd 	.word	0x100001cd
100001ac:	100001cd 	.word	0x100001cd
100001b0:	100001cd 	.word	0x100001cd
100001b4:	100001cd 	.word	0x100001cd
100001b8:	100001cd 	.word	0x100001cd
100001bc:	100001cd 	.word	0x100001cd

100001c0 <isr_invalid>:
100001c0:	be00      	bkpt	0x0000

100001c2 <isr_nmi>:
100001c2:	be00      	bkpt	0x0000

100001c4 <isr_hardfault>:
100001c4:	be00      	bkpt	0x0000

100001c6 <isr_svcall>:
100001c6:	be00      	bkpt	0x0000

100001c8 <isr_pendsv>:
100001c8:	be00      	bkpt	0x0000

100001ca <isr_systick>:
100001ca:	be00      	bkpt	0x0000

100001cc <__unhandled_user_irq>:
100001cc:	f3ef 8005 	mrs	r0, IPSR
100001d0:	3810      	subs	r0, #16

100001d2 <unhandled_user_irq_num_in_r0>:
100001d2:	be00      	bkpt	0x0000

100001d4 <binary_info_header>:
100001d4:	7188ebf2 	.word	0x7188ebf2
100001d8:	10008240 	.word	0x10008240
100001dc:	10008268 	.word	0x10008268
100001e0:	10000234 	.word	0x10000234
100001e4:	e71aa390 	.word	0xe71aa390

100001e8 <_entry_point>:
100001e8:	2000      	movs	r0, #0
100001ea:	491f      	ldr	r1, [pc, #124]	; (10000268 <hold_non_core0_in_bootrom+0xa>)
100001ec:	6008      	str	r0, [r1, #0]
100001ee:	c806      	ldmia	r0!, {r1, r2}
100001f0:	f381 8808 	msr	MSP, r1
100001f4:	4710      	bx	r2

100001f6 <_reset_handler>:
100001f6:	481d      	ldr	r0, [pc, #116]	; (1000026c <hold_non_core0_in_bootrom+0xe>)
100001f8:	6800      	ldr	r0, [r0, #0]
100001fa:	2800      	cmp	r0, #0
100001fc:	d12f      	bne.n	1000025e <hold_non_core0_in_bootrom>
100001fe:	a40d      	add	r4, pc, #52	; (adr r4, 10000234 <data_cpy_table>)
10000200:	cc0e      	ldmia	r4!, {r1, r2, r3}
10000202:	2900      	cmp	r1, #0
10000204:	d002      	beq.n	1000020c <_reset_handler+0x16>
10000206:	f000 f812 	bl	1000022e <data_cpy>
1000020a:	e7f9      	b.n	10000200 <_reset_handler+0xa>
1000020c:	4918      	ldr	r1, [pc, #96]	; (10000270 <hold_non_core0_in_bootrom+0x12>)
1000020e:	4a19      	ldr	r2, [pc, #100]	; (10000274 <hold_non_core0_in_bootrom+0x16>)
10000210:	2000      	movs	r0, #0
10000212:	e000      	b.n	10000216 <bss_fill_test>

10000214 <bss_fill_loop>:
10000214:	c101      	stmia	r1!, {r0}

10000216 <bss_fill_test>:
10000216:	4291      	cmp	r1, r2
10000218:	d1fc      	bne.n	10000214 <bss_fill_loop>

1000021a <platform_entry>:
1000021a:	4917      	ldr	r1, [pc, #92]	; (10000278 <hold_non_core0_in_bootrom+0x1a>)
1000021c:	4788      	blx	r1
1000021e:	4917      	ldr	r1, [pc, #92]	; (1000027c <hold_non_core0_in_bootrom+0x1e>)
10000220:	4788      	blx	r1
10000222:	4917      	ldr	r1, [pc, #92]	; (10000280 <hold_non_core0_in_bootrom+0x22>)
10000224:	4788      	blx	r1
10000226:	be00      	bkpt	0x0000
10000228:	e7fd      	b.n	10000226 <platform_entry+0xc>

1000022a <data_cpy_loop>:
1000022a:	c901      	ldmia	r1!, {r0}
1000022c:	c201      	stmia	r2!, {r0}

1000022e <data_cpy>:
1000022e:	429a      	cmp	r2, r3
10000230:	d3fb      	bcc.n	1000022a <data_cpy_loop>
10000232:	4770      	bx	lr

10000234 <data_cpy_table>:
10000234:	10008268 	.word	0x10008268
10000238:	200000c0 	.word	0x200000c0
1000023c:	20001368 	.word	0x20001368
10000240:	10009510 	.word	0x10009510
10000244:	20040000 	.word	0x20040000
10000248:	20040000 	.word	0x20040000
1000024c:	10009510 	.word	0x10009510
10000250:	20041000 	.word	0x20041000
10000254:	20041000 	.word	0x20041000
10000258:	00000000 	.word	0x00000000
1000025c:	4770      	bx	lr

1000025e <hold_non_core0_in_bootrom>:
1000025e:	4809      	ldr	r0, [pc, #36]	; (10000284 <hold_non_core0_in_bootrom+0x26>)
10000260:	f003 feba 	bl	10003fd8 <rom_func_lookup>
10000264:	4700      	bx	r0
10000266:	0000      	.short	0x0000
10000268:	e000ed08 	.word	0xe000ed08
1000026c:	d0000000 	.word	0xd0000000
10000270:	20001368 	.word	0x20001368
10000274:	2000211c 	.word	0x2000211c
10000278:	100028cd 	.word	0x100028cd
1000027c:	10000a91 	.word	0x10000a91
10000280:	100029c1 	.word	0x100029c1
10000284:	00005657 	.word	0x00005657

10000288 <__bi_50>:
10000288:	50520006 5360b3ab 10007fe4              ..RP..`S....

10000294 <__bi_38>:
10000294:	50520006 02031c86 10007ff4              ..RP........

100002a0 <__bi_30>:
100002a0:	50520006 9da22254 10007ffc              ..RPT"......

100002ac <__bi_22>:
100002ac:	50520005 68f465de 10009510              ..RP.e.h....

100002b8 <_init>:
100002b8:	b5f8      	push	{r3, r4, r5, r6, r7, lr}
100002ba:	46c0      	nop			; (mov r8, r8)

100002bc <deregister_tm_clones>:
100002bc:	4804      	ldr	r0, [pc, #16]	; (100002d0 <deregister_tm_clones+0x14>)
100002be:	4b05      	ldr	r3, [pc, #20]	; (100002d4 <deregister_tm_clones+0x18>)
100002c0:	b510      	push	{r4, lr}
100002c2:	4283      	cmp	r3, r0
100002c4:	d003      	beq.n	100002ce <deregister_tm_clones+0x12>
100002c6:	4b04      	ldr	r3, [pc, #16]	; (100002d8 <deregister_tm_clones+0x1c>)
100002c8:	2b00      	cmp	r3, #0
100002ca:	d000      	beq.n	100002ce <deregister_tm_clones+0x12>
100002cc:	4798      	blx	r3
100002ce:	bd10      	pop	{r4, pc}
100002d0:	20001368 	.word	0x20001368
100002d4:	20001368 	.word	0x20001368
100002d8:	00000000 	.word	0x00000000

100002dc <register_tm_clones>:
100002dc:	4806      	ldr	r0, [pc, #24]	; (100002f8 <register_tm_clones+0x1c>)
100002de:	4907      	ldr	r1, [pc, #28]	; (100002fc <register_tm_clones+0x20>)
100002e0:	1a09      	subs	r1, r1, r0
100002e2:	108b      	asrs	r3, r1, #2
100002e4:	0fc9      	lsrs	r1, r1, #31
100002e6:	18c9      	adds	r1, r1, r3
100002e8:	b510      	push	{r4, lr}
100002ea:	1049      	asrs	r1, r1, #1
100002ec:	d003      	beq.n	100002f6 <register_tm_clones+0x1a>
100002ee:	4b04      	ldr	r3, [pc, #16]	; (10000300 <register_tm_clones+0x24>)
100002f0:	2b00      	cmp	r3, #0
100002f2:	d000      	beq.n	100002f6 <register_tm_clones+0x1a>
100002f4:	4798      	blx	r3
100002f6:	bd10      	pop	{r4, pc}
100002f8:	20001368 	.word	0x20001368
100002fc:	20001368 	.word	0x20001368
10000300:	00000000 	.word	0x00000000

10000304 <__do_global_dtors_aux>:
10000304:	b510      	push	{r4, lr}
10000306:	4c07      	ldr	r4, [pc, #28]	; (10000324 <__do_global_dtors_aux+0x20>)
10000308:	7823      	ldrb	r3, [r4, #0]
1000030a:	2b00      	cmp	r3, #0
1000030c:	d109      	bne.n	10000322 <__do_global_dtors_aux+0x1e>
1000030e:	f7ff ffd5 	bl	100002bc <deregister_tm_clones>
10000312:	4b05      	ldr	r3, [pc, #20]	; (10000328 <__do_global_dtors_aux+0x24>)
10000314:	2b00      	cmp	r3, #0
10000316:	d002      	beq.n	1000031e <__do_global_dtors_aux+0x1a>
10000318:	4804      	ldr	r0, [pc, #16]	; (1000032c <__do_global_dtors_aux+0x28>)
1000031a:	e000      	b.n	1000031e <__do_global_dtors_aux+0x1a>
1000031c:	bf00      	nop
1000031e:	2301      	movs	r3, #1
10000320:	7023      	strb	r3, [r4, #0]
10000322:	bd10      	pop	{r4, pc}
10000324:	20001670 	.word	0x20001670
10000328:	00000000 	.word	0x00000000
1000032c:	10007ad8 	.word	0x10007ad8

10000330 <frame_dummy>:
10000330:	4b05      	ldr	r3, [pc, #20]	; (10000348 <frame_dummy+0x18>)
10000332:	b510      	push	{r4, lr}
10000334:	2b00      	cmp	r3, #0
10000336:	d003      	beq.n	10000340 <frame_dummy+0x10>
10000338:	4904      	ldr	r1, [pc, #16]	; (1000034c <frame_dummy+0x1c>)
1000033a:	4805      	ldr	r0, [pc, #20]	; (10000350 <frame_dummy+0x20>)
1000033c:	e000      	b.n	10000340 <frame_dummy+0x10>
1000033e:	bf00      	nop
10000340:	f7ff ffcc 	bl	100002dc <register_tm_clones>
10000344:	bd10      	pop	{r4, pc}
10000346:	46c0      	nop			; (mov r8, r8)
10000348:	00000000 	.word	0x00000000
1000034c:	20001674 	.word	0x20001674
10000350:	10007ad8 	.word	0x10007ad8

10000354 <on_pwm_wrap>:
10000354:	b5f8      	push	{r3, r4, r5, r6, r7, lr}
10000356:	2101      	movs	r1, #1
10000358:	23a4      	movs	r3, #164	; 0xa4
1000035a:	4a0d      	ldr	r2, [pc, #52]	; (10000390 <on_pwm_wrap+0x3c>)
1000035c:	480d      	ldr	r0, [pc, #52]	; (10000394 <on_pwm_wrap+0x40>)
1000035e:	50d1      	str	r1, [r2, r3]
10000360:	4b0d      	ldr	r3, [pc, #52]	; (10000398 <on_pwm_wrap+0x44>)
10000362:	681a      	ldr	r2, [r3, #0]
10000364:	1c55      	adds	r5, r2, #1
10000366:	601d      	str	r5, [r3, #0]
10000368:	4b0c      	ldr	r3, [pc, #48]	; (1000039c <on_pwm_wrap+0x48>)
1000036a:	681f      	ldr	r7, [r3, #0]
1000036c:	6819      	ldr	r1, [r3, #0]
1000036e:	4b0c      	ldr	r3, [pc, #48]	; (100003a0 <on_pwm_wrap+0x4c>)
10000370:	3901      	subs	r1, #1
10000372:	681e      	ldr	r6, [r3, #0]
10000374:	f003 fe62 	bl	1000403c <__wrap___aeabi_idiv>
10000378:	0039      	movs	r1, r7
1000037a:	0004      	movs	r4, r0
1000037c:	0028      	movs	r0, r5
1000037e:	f003 fe85 	bl	1000408c <__wrap___aeabi_uidiv>
10000382:	434c      	muls	r4, r1
10000384:	4074      	eors	r4, r6
10000386:	4b07      	ldr	r3, [pc, #28]	; (100003a4 <on_pwm_wrap+0x50>)
10000388:	0424      	lsls	r4, r4, #16
1000038a:	0c24      	lsrs	r4, r4, #16
1000038c:	601c      	str	r4, [r3, #0]
1000038e:	bdf8      	pop	{r3, r4, r5, r6, r7, pc}
10000390:	40050000 	.word	0x40050000
10000394:	00000bc8 	.word	0x00000bc8
10000398:	20002090 	.word	0x20002090
1000039c:	20000e28 	.word	0x20000e28
100003a0:	4005000c 	.word	0x4005000c
100003a4:	4005100c 	.word	0x4005100c

100003a8 <pattern_random.constprop.0>:
100003a8:	b5f0      	push	{r4, r5, r6, r7, lr}
100003aa:	46d6      	mov	lr, sl
100003ac:	464f      	mov	r7, r9
100003ae:	4646      	mov	r6, r8
100003b0:	4823      	ldr	r0, [pc, #140]	; (10000440 <pattern_random.constprop.0+0x98>)
100003b2:	b5c0      	push	{r6, r7, lr}
100003b4:	f004 feae 	bl	10005114 <__wrap_puts>
100003b8:	230a      	movs	r3, #10
100003ba:	2580      	movs	r5, #128	; 0x80
100003bc:	4699      	mov	r9, r3
100003be:	4c21      	ldr	r4, [pc, #132]	; (10000444 <pattern_random.constprop.0+0x9c>)
100003c0:	026d      	lsls	r5, r5, #9
100003c2:	2300      	movs	r3, #0
100003c4:	4698      	mov	r8, r3
100003c6:	3320      	adds	r3, #32
100003c8:	2600      	movs	r6, #0
100003ca:	2700      	movs	r7, #0
100003cc:	469a      	mov	sl, r3
100003ce:	f007 fad1 	bl	10007974 <rand>
100003d2:	2105      	movs	r1, #5
100003d4:	1400      	asrs	r0, r0, #16
100003d6:	f003 fe31 	bl	1000403c <__wrap___aeabi_idiv>
100003da:	2220      	movs	r2, #32
100003dc:	4252      	negs	r2, r2
100003de:	17c3      	asrs	r3, r0, #31
100003e0:	18b2      	adds	r2, r6, r2
100003e2:	d426      	bmi.n	10000432 <pattern_random.constprop.0+0x8a>
100003e4:	0003      	movs	r3, r0
100003e6:	4093      	lsls	r3, r2
100003e8:	40b0      	lsls	r0, r6
100003ea:	4642      	mov	r2, r8
100003ec:	3610      	adds	r6, #16
100003ee:	4302      	orrs	r2, r0
100003f0:	0010      	movs	r0, r2
100003f2:	4690      	mov	r8, r2
100003f4:	431f      	orrs	r7, r3
100003f6:	2e30      	cmp	r6, #48	; 0x30
100003f8:	d1e9      	bne.n	100003ce <pattern_random.constprop.0+0x26>
100003fa:	0c13      	lsrs	r3, r2, #16
100003fc:	043f      	lsls	r7, r7, #16
100003fe:	431f      	orrs	r7, r3
10000400:	6863      	ldr	r3, [r4, #4]
10000402:	422b      	tst	r3, r5
10000404:	d1fc      	bne.n	10000400 <pattern_random.constprop.0+0x58>
10000406:	6127      	str	r7, [r4, #16]
10000408:	6863      	ldr	r3, [r4, #4]
1000040a:	422b      	tst	r3, r5
1000040c:	d1fc      	bne.n	10000408 <pattern_random.constprop.0+0x60>
1000040e:	6120      	str	r0, [r4, #16]
10000410:	0400      	lsls	r0, r0, #16
10000412:	6863      	ldr	r3, [r4, #4]
10000414:	422b      	tst	r3, r5
10000416:	d1fc      	bne.n	10000412 <pattern_random.constprop.0+0x6a>
10000418:	2301      	movs	r3, #1
1000041a:	425b      	negs	r3, r3
1000041c:	469c      	mov	ip, r3
1000041e:	44e1      	add	r9, ip
10000420:	464b      	mov	r3, r9
10000422:	6120      	str	r0, [r4, #16]
10000424:	2b00      	cmp	r3, #0
10000426:	d1cc      	bne.n	100003c2 <pattern_random.constprop.0+0x1a>
10000428:	bce0      	pop	{r5, r6, r7}
1000042a:	46ba      	mov	sl, r7
1000042c:	46b1      	mov	r9, r6
1000042e:	46a8      	mov	r8, r5
10000430:	bdf0      	pop	{r4, r5, r6, r7, pc}
10000432:	4652      	mov	r2, sl
10000434:	0001      	movs	r1, r0
10000436:	1b92      	subs	r2, r2, r6
10000438:	40d1      	lsrs	r1, r2
1000043a:	40b3      	lsls	r3, r6
1000043c:	430b      	orrs	r3, r1
1000043e:	e7d3      	b.n	100003e8 <pattern_random.constprop.0+0x40>
10000440:	10007ad8 	.word	0x10007ad8
10000444:	50200000 	.word	0x50200000

10000448 <read_knobs>:
10000448:	23c0      	movs	r3, #192	; 0xc0
1000044a:	4a2b      	ldr	r2, [pc, #172]	; (100004f8 <read_knobs+0xb0>)
1000044c:	019b      	lsls	r3, r3, #6
1000044e:	6811      	ldr	r1, [r2, #0]
10000450:	b570      	push	{r4, r5, r6, lr}
10000452:	404b      	eors	r3, r1
10000454:	21e0      	movs	r1, #224	; 0xe0
10000456:	01c9      	lsls	r1, r1, #7
10000458:	400b      	ands	r3, r1
1000045a:	4928      	ldr	r1, [pc, #160]	; (100004fc <read_knobs+0xb4>)
1000045c:	b082      	sub	sp, #8
1000045e:	600b      	str	r3, [r1, #0]
10000460:	2104      	movs	r1, #4
10000462:	4b27      	ldr	r3, [pc, #156]	; (10000500 <read_knobs+0xb8>)
10000464:	6019      	str	r1, [r3, #0]
10000466:	31fc      	adds	r1, #252	; 0xfc
10000468:	6813      	ldr	r3, [r2, #0]
1000046a:	420b      	tst	r3, r1
1000046c:	d0fc      	beq.n	10000468 <read_knobs+0x20>
1000046e:	2380      	movs	r3, #128	; 0x80
10000470:	6850      	ldr	r0, [r2, #4]
10000472:	6812      	ldr	r2, [r2, #0]
10000474:	019b      	lsls	r3, r3, #6
10000476:	4053      	eors	r3, r2
10000478:	22e0      	movs	r2, #224	; 0xe0
1000047a:	01d2      	lsls	r2, r2, #7
1000047c:	4013      	ands	r3, r2
1000047e:	4a1f      	ldr	r2, [pc, #124]	; (100004fc <read_knobs+0xb4>)
10000480:	2180      	movs	r1, #128	; 0x80
10000482:	6013      	str	r3, [r2, #0]
10000484:	2204      	movs	r2, #4
10000486:	4b1e      	ldr	r3, [pc, #120]	; (10000500 <read_knobs+0xb8>)
10000488:	0049      	lsls	r1, r1, #1
1000048a:	601a      	str	r2, [r3, #0]
1000048c:	4a1a      	ldr	r2, [pc, #104]	; (100004f8 <read_knobs+0xb0>)
1000048e:	6813      	ldr	r3, [r2, #0]
10000490:	420b      	tst	r3, r1
10000492:	d0fc      	beq.n	1000048e <read_knobs+0x46>
10000494:	2380      	movs	r3, #128	; 0x80
10000496:	6854      	ldr	r4, [r2, #4]
10000498:	6812      	ldr	r2, [r2, #0]
1000049a:	015b      	lsls	r3, r3, #5
1000049c:	4053      	eors	r3, r2
1000049e:	22e0      	movs	r2, #224	; 0xe0
100004a0:	01d2      	lsls	r2, r2, #7
100004a2:	4013      	ands	r3, r2
100004a4:	4a15      	ldr	r2, [pc, #84]	; (100004fc <read_knobs+0xb4>)
100004a6:	2180      	movs	r1, #128	; 0x80
100004a8:	6013      	str	r3, [r2, #0]
100004aa:	2204      	movs	r2, #4
100004ac:	4b14      	ldr	r3, [pc, #80]	; (10000500 <read_knobs+0xb8>)
100004ae:	0049      	lsls	r1, r1, #1
100004b0:	601a      	str	r2, [r3, #0]
100004b2:	4a11      	ldr	r2, [pc, #68]	; (100004f8 <read_knobs+0xb0>)
100004b4:	6813      	ldr	r3, [r2, #0]
100004b6:	420b      	tst	r3, r1
100004b8:	d0fc      	beq.n	100004b4 <read_knobs+0x6c>
100004ba:	6855      	ldr	r5, [r2, #4]
100004bc:	6813      	ldr	r3, [r2, #0]
100004be:	22e0      	movs	r2, #224	; 0xe0
100004c0:	01d2      	lsls	r2, r2, #7
100004c2:	4013      	ands	r3, r2
100004c4:	4a0d      	ldr	r2, [pc, #52]	; (100004fc <read_knobs+0xb4>)
100004c6:	2180      	movs	r1, #128	; 0x80
100004c8:	6013      	str	r3, [r2, #0]
100004ca:	2204      	movs	r2, #4
100004cc:	4b0c      	ldr	r3, [pc, #48]	; (10000500 <read_knobs+0xb8>)
100004ce:	0049      	lsls	r1, r1, #1
100004d0:	601a      	str	r2, [r3, #0]
100004d2:	4a09      	ldr	r2, [pc, #36]	; (100004f8 <read_knobs+0xb0>)
100004d4:	6813      	ldr	r3, [r2, #0]
100004d6:	420b      	tst	r3, r1
100004d8:	d0fc      	beq.n	100004d4 <read_knobs+0x8c>
100004da:	6856      	ldr	r6, [r2, #4]
100004dc:	0401      	lsls	r1, r0, #16
100004de:	0430      	lsls	r0, r6, #16
100004e0:	042b      	lsls	r3, r5, #16
100004e2:	0422      	lsls	r2, r4, #16
100004e4:	0c00      	lsrs	r0, r0, #16
100004e6:	9000      	str	r0, [sp, #0]
100004e8:	0c1b      	lsrs	r3, r3, #16
100004ea:	0c12      	lsrs	r2, r2, #16
100004ec:	0c09      	lsrs	r1, r1, #16
100004ee:	4805      	ldr	r0, [pc, #20]	; (10000504 <read_knobs+0xbc>)
100004f0:	f004 feb2 	bl	10005258 <__wrap_printf>
100004f4:	b002      	add	sp, #8
100004f6:	bd70      	pop	{r4, r5, r6, pc}
100004f8:	4004c000 	.word	0x4004c000
100004fc:	4004d000 	.word	0x4004d000
10000500:	4004e000 	.word	0x4004e000
10000504:	10007b0c 	.word	0x10007b0c

10000508 <keys_to_freq>:
10000508:	21e0      	movs	r1, #224	; 0xe0
1000050a:	4a21      	ldr	r2, [pc, #132]	; (10000590 <keys_to_freq+0x88>)
1000050c:	01c9      	lsls	r1, r1, #7
1000050e:	6813      	ldr	r3, [r2, #0]
10000510:	400b      	ands	r3, r1
10000512:	4920      	ldr	r1, [pc, #128]	; (10000594 <keys_to_freq+0x8c>)
10000514:	600b      	str	r3, [r1, #0]
10000516:	2104      	movs	r1, #4
10000518:	4b1f      	ldr	r3, [pc, #124]	; (10000598 <keys_to_freq+0x90>)
1000051a:	6019      	str	r1, [r3, #0]
1000051c:	31fc      	adds	r1, #252	; 0xfc
1000051e:	6813      	ldr	r3, [r2, #0]
10000520:	420b      	tst	r3, r1
10000522:	d0fc      	beq.n	1000051e <keys_to_freq+0x16>
10000524:	6853      	ldr	r3, [r2, #4]
10000526:	4a1d      	ldr	r2, [pc, #116]	; (1000059c <keys_to_freq+0x94>)
10000528:	b29b      	uxth	r3, r3
1000052a:	0a59      	lsrs	r1, r3, #9
1000052c:	6913      	ldr	r3, [r2, #16]
1000052e:	3b01      	subs	r3, #1
10000530:	4258      	negs	r0, r3
10000532:	4143      	adcs	r3, r0
10000534:	6850      	ldr	r0, [r2, #4]
10000536:	425b      	negs	r3, r3
10000538:	400b      	ands	r3, r1
1000053a:	2801      	cmp	r0, #1
1000053c:	d100      	bne.n	10000540 <keys_to_freq+0x38>
1000053e:	330a      	adds	r3, #10
10000540:	6950      	ldr	r0, [r2, #20]
10000542:	2801      	cmp	r0, #1
10000544:	d101      	bne.n	1000054a <keys_to_freq+0x42>
10000546:	185b      	adds	r3, r3, r1
10000548:	330a      	adds	r3, #10
1000054a:	6890      	ldr	r0, [r2, #8]
1000054c:	2801      	cmp	r0, #1
1000054e:	d100      	bne.n	10000552 <keys_to_freq+0x4a>
10000550:	3314      	adds	r3, #20
10000552:	6990      	ldr	r0, [r2, #24]
10000554:	2801      	cmp	r0, #1
10000556:	d101      	bne.n	1000055c <keys_to_freq+0x54>
10000558:	18cb      	adds	r3, r1, r3
1000055a:	3314      	adds	r3, #20
1000055c:	68d0      	ldr	r0, [r2, #12]
1000055e:	2801      	cmp	r0, #1
10000560:	d100      	bne.n	10000564 <keys_to_freq+0x5c>
10000562:	331e      	adds	r3, #30
10000564:	69d2      	ldr	r2, [r2, #28]
10000566:	2a01      	cmp	r2, #1
10000568:	d008      	beq.n	1000057c <keys_to_freq+0x74>
1000056a:	22c8      	movs	r2, #200	; 0xc8
1000056c:	1ad3      	subs	r3, r2, r3
1000056e:	4a0c      	ldr	r2, [pc, #48]	; (100005a0 <keys_to_freq+0x98>)
10000570:	6013      	str	r3, [r2, #0]
10000572:	23d0      	movs	r3, #208	; 0xd0
10000574:	2202      	movs	r2, #2
10000576:	061b      	lsls	r3, r3, #24
10000578:	619a      	str	r2, [r3, #24]
1000057a:	4770      	bx	lr
1000057c:	32a9      	adds	r2, #169	; 0xa9
1000057e:	185b      	adds	r3, r3, r1
10000580:	1ad3      	subs	r3, r2, r3
10000582:	4a07      	ldr	r2, [pc, #28]	; (100005a0 <keys_to_freq+0x98>)
10000584:	6013      	str	r3, [r2, #0]
10000586:	23d0      	movs	r3, #208	; 0xd0
10000588:	2202      	movs	r2, #2
1000058a:	061b      	lsls	r3, r3, #24
1000058c:	615a      	str	r2, [r3, #20]
1000058e:	e7f4      	b.n	1000057a <keys_to_freq+0x72>
10000590:	4004c000 	.word	0x4004c000
10000594:	4004d000 	.word	0x4004d000
10000598:	4004e000 	.word	0x4004e000
1000059c:	20002094 	.word	0x20002094
100005a0:	20000e28 	.word	0x20000e28

100005a4 <setup_audio>:
100005a4:	b5f0      	push	{r4, r5, r6, r7, lr}
100005a6:	24d0      	movs	r4, #208	; 0xd0
100005a8:	2502      	movs	r5, #2
100005aa:	b085      	sub	sp, #20
100005ac:	2001      	movs	r0, #1
100005ae:	0624      	lsls	r4, r4, #24
100005b0:	f000 fc70 	bl	10000e94 <gpio_init>
100005b4:	4817      	ldr	r0, [pc, #92]	; (10000614 <setup_audio+0x70>)
100005b6:	6265      	str	r5, [r4, #36]	; 0x24
100005b8:	ab03      	add	r3, sp, #12
100005ba:	aa02      	add	r2, sp, #8
100005bc:	a901      	add	r1, sp, #4
100005be:	f000 fb69 	bl	10000c94 <check_sys_clock_khz>
100005c2:	2800      	cmp	r0, #0
100005c4:	d103      	bne.n	100005ce <setup_audio+0x2a>
100005c6:	4913      	ldr	r1, [pc, #76]	; (10000614 <setup_audio+0x70>)
100005c8:	4813      	ldr	r0, [pc, #76]	; (10000618 <setup_audio+0x74>)
100005ca:	f002 f9fd 	bl	100029c8 <panic>
100005ce:	9a03      	ldr	r2, [sp, #12]
100005d0:	9902      	ldr	r1, [sp, #8]
100005d2:	9801      	ldr	r0, [sp, #4]
100005d4:	f000 fb22 	bl	10000c1c <set_sys_clock_pll>
100005d8:	2104      	movs	r1, #4
100005da:	2000      	movs	r0, #0
100005dc:	f000 fc16 	bl	10000e0c <gpio_set_function>
100005e0:	2701      	movs	r7, #1
100005e2:	23a4      	movs	r3, #164	; 0xa4
100005e4:	4e0d      	ldr	r6, [pc, #52]	; (1000061c <setup_audio+0x78>)
100005e6:	2004      	movs	r0, #4
100005e8:	50f7      	str	r7, [r6, r3]
100005ea:	4b0d      	ldr	r3, [pc, #52]	; (10000620 <setup_audio+0x7c>)
100005ec:	490d      	ldr	r1, [pc, #52]	; (10000624 <setup_audio+0x80>)
100005ee:	601f      	str	r7, [r3, #0]
100005f0:	f000 fd5e 	bl	100010b0 <irq_set_exclusive_handler>
100005f4:	2101      	movs	r1, #1
100005f6:	2004      	movs	r0, #4
100005f8:	f000 fd22 	bl	10001040 <irq_set_enabled>
100005fc:	2300      	movs	r3, #0
100005fe:	6033      	str	r3, [r6, #0]
10000600:	60b3      	str	r3, [r6, #8]
10000602:	60f3      	str	r3, [r6, #12]
10000604:	4b08      	ldr	r3, [pc, #32]	; (10000628 <setup_audio+0x84>)
10000606:	6133      	str	r3, [r6, #16]
10000608:	2310      	movs	r3, #16
1000060a:	6073      	str	r3, [r6, #4]
1000060c:	6037      	str	r7, [r6, #0]
1000060e:	61a5      	str	r5, [r4, #24]
10000610:	b005      	add	sp, #20
10000612:	bdf0      	pop	{r4, r5, r6, r7, pc}
10000614:	00020788 	.word	0x00020788
10000618:	10007b38 	.word	0x10007b38
1000061c:	40050000 	.word	0x40050000
10000620:	400520a8 	.word	0x400520a8
10000624:	10000355 	.word	0x10000355
10000628:	00000bc7 	.word	0x00000bc7

1000062c <setup_key_matrix>:
1000062c:	b5f8      	push	{r3, r4, r5, r6, r7, lr}
1000062e:	4c13      	ldr	r4, [pc, #76]	; (1000067c <setup_key_matrix+0x50>)
10000630:	26d0      	movs	r6, #208	; 0xd0
10000632:	0027      	movs	r7, r4
10000634:	2501      	movs	r5, #1
10000636:	3710      	adds	r7, #16
10000638:	0636      	lsls	r6, r6, #24
1000063a:	6820      	ldr	r0, [r4, #0]
1000063c:	f000 fc2a 	bl	10000e94 <gpio_init>
10000640:	002a      	movs	r2, r5
10000642:	cc08      	ldmia	r4!, {r3}
10000644:	409a      	lsls	r2, r3
10000646:	62b2      	str	r2, [r6, #40]	; 0x28
10000648:	42a7      	cmp	r7, r4
1000064a:	d1f6      	bne.n	1000063a <setup_key_matrix+0xe>
1000064c:	4c0c      	ldr	r4, [pc, #48]	; (10000680 <setup_key_matrix+0x54>)
1000064e:	6820      	ldr	r0, [r4, #0]
10000650:	f000 fc20 	bl	10000e94 <gpio_init>
10000654:	002b      	movs	r3, r5
10000656:	6820      	ldr	r0, [r4, #0]
10000658:	2201      	movs	r2, #1
1000065a:	4083      	lsls	r3, r0
1000065c:	2100      	movs	r1, #0
1000065e:	62b3      	str	r3, [r6, #40]	; 0x28
10000660:	f000 fbec 	bl	10000e3c <gpio_set_pulls>
10000664:	6860      	ldr	r0, [r4, #4]
10000666:	f000 fc15 	bl	10000e94 <gpio_init>
1000066a:	6860      	ldr	r0, [r4, #4]
1000066c:	2201      	movs	r2, #1
1000066e:	4085      	lsls	r5, r0
10000670:	2100      	movs	r1, #0
10000672:	62b5      	str	r5, [r6, #40]	; 0x28
10000674:	f000 fbe2 	bl	10000e3c <gpio_set_pulls>
10000678:	bdf8      	pop	{r3, r4, r5, r6, r7, pc}
1000067a:	46c0      	nop			; (mov r8, r8)
1000067c:	20000e18 	.word	0x20000e18
10000680:	20000e2c 	.word	0x20000e2c

10000684 <setup_adcs>:
10000684:	b510      	push	{r4, lr}
10000686:	f007 f84d 	bl	10007724 <adc_init>
1000068a:	211f      	movs	r1, #31
1000068c:	201d      	movs	r0, #29
1000068e:	f000 fbbd 	bl	10000e0c <gpio_set_function>
10000692:	2200      	movs	r2, #0
10000694:	2100      	movs	r1, #0
10000696:	201d      	movs	r0, #29
10000698:	f000 fbd0 	bl	10000e3c <gpio_set_pulls>
1000069c:	2100      	movs	r1, #0
1000069e:	201d      	movs	r0, #29
100006a0:	f000 fbe4 	bl	10000e6c <gpio_set_input_enabled>
100006a4:	211f      	movs	r1, #31
100006a6:	201c      	movs	r0, #28
100006a8:	f000 fbb0 	bl	10000e0c <gpio_set_function>
100006ac:	2200      	movs	r2, #0
100006ae:	2100      	movs	r1, #0
100006b0:	201c      	movs	r0, #28
100006b2:	f000 fbc3 	bl	10000e3c <gpio_set_pulls>
100006b6:	2100      	movs	r1, #0
100006b8:	201c      	movs	r0, #28
100006ba:	f000 fbd7 	bl	10000e6c <gpio_set_input_enabled>
100006be:	211f      	movs	r1, #31
100006c0:	201b      	movs	r0, #27
100006c2:	f000 fba3 	bl	10000e0c <gpio_set_function>
100006c6:	2200      	movs	r2, #0
100006c8:	2100      	movs	r1, #0
100006ca:	201b      	movs	r0, #27
100006cc:	f000 fbb6 	bl	10000e3c <gpio_set_pulls>
100006d0:	2100      	movs	r1, #0
100006d2:	201b      	movs	r0, #27
100006d4:	f000 fbca 	bl	10000e6c <gpio_set_input_enabled>
100006d8:	211f      	movs	r1, #31
100006da:	201a      	movs	r0, #26
100006dc:	f000 fb96 	bl	10000e0c <gpio_set_function>
100006e0:	2200      	movs	r2, #0
100006e2:	2100      	movs	r1, #0
100006e4:	201a      	movs	r0, #26
100006e6:	f000 fba9 	bl	10000e3c <gpio_set_pulls>
100006ea:	2100      	movs	r1, #0
100006ec:	201a      	movs	r0, #26
100006ee:	f000 fbbd 	bl	10000e6c <gpio_set_input_enabled>
100006f2:	bd10      	pop	{r4, pc}

100006f4 <init_FL3236A>:
100006f4:	b5f0      	push	{r4, r5, r6, r7, lr}
100006f6:	46d6      	mov	lr, sl
100006f8:	464f      	mov	r7, r9
100006fa:	4646      	mov	r6, r8
100006fc:	b5c0      	push	{r6, r7, lr}
100006fe:	4834      	ldr	r0, [pc, #208]	; (100007d0 <init_FL3236A+0xdc>)
10000700:	b084      	sub	sp, #16
10000702:	f004 fd07 	bl	10005114 <__wrap_puts>
10000706:	4b33      	ldr	r3, [pc, #204]	; (100007d4 <init_FL3236A+0xe0>)
10000708:	2526      	movs	r5, #38	; 0x26
1000070a:	469a      	mov	sl, r3
1000070c:	4b32      	ldr	r3, [pc, #200]	; (100007d8 <init_FL3236A+0xe4>)
1000070e:	2700      	movs	r7, #0
10000710:	4698      	mov	r8, r3
10000712:	23ff      	movs	r3, #255	; 0xff
10000714:	4699      	mov	r9, r3
10000716:	4e31      	ldr	r6, [pc, #196]	; (100007dc <init_FL3236A+0xe8>)
10000718:	ac03      	add	r4, sp, #12
1000071a:	4650      	mov	r0, sl
1000071c:	f004 fcfa 	bl	10005114 <__wrap_puts>
10000720:	4640      	mov	r0, r8
10000722:	f004 fcf7 	bl	10005114 <__wrap_puts>
10000726:	464b      	mov	r3, r9
10000728:	7025      	strb	r5, [r4, #0]
1000072a:	3501      	adds	r5, #1
1000072c:	7063      	strb	r3, [r4, #1]
1000072e:	0022      	movs	r2, r4
10000730:	2302      	movs	r3, #2
10000732:	213c      	movs	r1, #60	; 0x3c
10000734:	0030      	movs	r0, r6
10000736:	9700      	str	r7, [sp, #0]
10000738:	b2ed      	uxtb	r5, r5
1000073a:	f006 ff8b 	bl	10007654 <i2c_write_blocking>
1000073e:	2d4a      	cmp	r5, #74	; 0x4a
10000740:	d1eb      	bne.n	1000071a <init_FL3236A+0x26>
10000742:	4b27      	ldr	r3, [pc, #156]	; (100007e0 <init_FL3236A+0xec>)
10000744:	2700      	movs	r7, #0
10000746:	4699      	mov	r9, r3
10000748:	3d49      	subs	r5, #73	; 0x49
1000074a:	4648      	mov	r0, r9
1000074c:	f004 fce2 	bl	10005114 <__wrap_puts>
10000750:	4640      	mov	r0, r8
10000752:	f004 fcdf 	bl	10005114 <__wrap_puts>
10000756:	7025      	strb	r5, [r4, #0]
10000758:	3501      	adds	r5, #1
1000075a:	7067      	strb	r7, [r4, #1]
1000075c:	2302      	movs	r3, #2
1000075e:	0022      	movs	r2, r4
10000760:	213c      	movs	r1, #60	; 0x3c
10000762:	0030      	movs	r0, r6
10000764:	9700      	str	r7, [sp, #0]
10000766:	b2ed      	uxtb	r5, r5
10000768:	f006 ff74 	bl	10007654 <i2c_write_blocking>
1000076c:	2d25      	cmp	r5, #37	; 0x25
1000076e:	d1ec      	bne.n	1000074a <init_FL3236A+0x56>
10000770:	481c      	ldr	r0, [pc, #112]	; (100007e4 <init_FL3236A+0xf0>)
10000772:	f004 fccf 	bl	10005114 <__wrap_puts>
10000776:	4640      	mov	r0, r8
10000778:	f004 fccc 	bl	10005114 <__wrap_puts>
1000077c:	0022      	movs	r2, r4
1000077e:	2302      	movs	r3, #2
10000780:	213c      	movs	r1, #60	; 0x3c
10000782:	8025      	strh	r5, [r4, #0]
10000784:	0030      	movs	r0, r6
10000786:	9700      	str	r7, [sp, #0]
10000788:	f006 ff64 	bl	10007654 <i2c_write_blocking>
1000078c:	4640      	mov	r0, r8
1000078e:	f004 fcc1 	bl	10005114 <__wrap_puts>
10000792:	234c      	movs	r3, #76	; 0x4c
10000794:	33ff      	adds	r3, #255	; 0xff
10000796:	8023      	strh	r3, [r4, #0]
10000798:	3b4a      	subs	r3, #74	; 0x4a
1000079a:	0022      	movs	r2, r4
1000079c:	213c      	movs	r1, #60	; 0x3c
1000079e:	3bff      	subs	r3, #255	; 0xff
100007a0:	0030      	movs	r0, r6
100007a2:	9700      	str	r7, [sp, #0]
100007a4:	f006 ff56 	bl	10007654 <i2c_write_blocking>
100007a8:	4640      	mov	r0, r8
100007aa:	f004 fcb3 	bl	10005114 <__wrap_puts>
100007ae:	2380      	movs	r3, #128	; 0x80
100007b0:	005b      	lsls	r3, r3, #1
100007b2:	8023      	strh	r3, [r4, #0]
100007b4:	0022      	movs	r2, r4
100007b6:	213c      	movs	r1, #60	; 0x3c
100007b8:	0030      	movs	r0, r6
100007ba:	9700      	str	r7, [sp, #0]
100007bc:	3bfe      	subs	r3, #254	; 0xfe
100007be:	f006 ff49 	bl	10007654 <i2c_write_blocking>
100007c2:	b004      	add	sp, #16
100007c4:	bce0      	pop	{r5, r6, r7}
100007c6:	46ba      	mov	sl, r7
100007c8:	46b1      	mov	r9, r6
100007ca:	46a8      	mov	r8, r5
100007cc:	bdf0      	pop	{r4, r5, r6, r7, pc}
100007ce:	46c0      	nop			; (mov r8, r8)
100007d0:	10007b90 	.word	0x10007b90
100007d4:	10007bb0 	.word	0x10007bb0
100007d8:	10007b6c 	.word	0x10007b6c
100007dc:	20000f10 	.word	0x20000f10
100007e0:	10007bd8 	.word	0x10007bd8
100007e4:	10007c00 	.word	0x10007c00

100007e8 <setup_ws2816s>:
100007e8:	b5f0      	push	{r4, r5, r6, r7, lr}
100007ea:	46de      	mov	lr, fp
100007ec:	464e      	mov	r6, r9
100007ee:	4645      	mov	r5, r8
100007f0:	4657      	mov	r7, sl
100007f2:	b5e0      	push	{r5, r6, r7, lr}
100007f4:	210e      	movs	r1, #14
100007f6:	b087      	sub	sp, #28
100007f8:	4877      	ldr	r0, [pc, #476]	; (100009d8 <setup_ws2816s+0x1f0>)
100007fa:	f004 fd2d 	bl	10005258 <__wrap_printf>
100007fe:	4977      	ldr	r1, [pc, #476]	; (100009dc <setup_ws2816s+0x1f4>)
10000800:	4877      	ldr	r0, [pc, #476]	; (100009e0 <setup_ws2816s+0x1f8>)
10000802:	f006 ffab 	bl	1000775c <pio_add_program>
10000806:	2106      	movs	r1, #6
10000808:	0005      	movs	r5, r0
1000080a:	200e      	movs	r0, #14
1000080c:	f000 fafe 	bl	10000e0c <gpio_set_function>
10000810:	2301      	movs	r3, #1
10000812:	2100      	movs	r1, #0
10000814:	220e      	movs	r2, #14
10000816:	4872      	ldr	r0, [pc, #456]	; (100009e0 <setup_ws2816s+0x1f8>)
10000818:	9300      	str	r3, [sp, #0]
1000081a:	f007 f803 	bl	10007824 <pio_sm_set_consecutive_pindirs>
1000081e:	2380      	movs	r3, #128	; 0x80
10000820:	025b      	lsls	r3, r3, #9
10000822:	9302      	str	r3, [sp, #8]
10000824:	1ceb      	adds	r3, r5, #3
10000826:	01ea      	lsls	r2, r5, #7
10000828:	031b      	lsls	r3, r3, #12
1000082a:	4313      	orrs	r3, r2
1000082c:	4a6d      	ldr	r2, [pc, #436]	; (100009e4 <setup_ws2816s+0x1fc>)
1000082e:	2005      	movs	r0, #5
10000830:	4013      	ands	r3, r2
10000832:	9303      	str	r3, [sp, #12]
10000834:	4b6c      	ldr	r3, [pc, #432]	; (100009e8 <setup_ws2816s+0x200>)
10000836:	9305      	str	r3, [sp, #20]
10000838:	4b6c      	ldr	r3, [pc, #432]	; (100009ec <setup_ws2816s+0x204>)
1000083a:	9304      	str	r3, [sp, #16]
1000083c:	f001 ff80 	bl	10002740 <clock_get_hz>
10000840:	f004 fa80 	bl	10004d44 <__wrap___aeabi_ui2f>
10000844:	496a      	ldr	r1, [pc, #424]	; (100009f0 <setup_ws2816s+0x208>)
10000846:	f004 fa62 	bl	10004d0e <__wrap___aeabi_fdiv>
1000084a:	1c06      	adds	r6, r0, #0
1000084c:	f004 faa2 	bl	10004d94 <__wrap___aeabi_f2uiz>
10000850:	b284      	uxth	r4, r0
10000852:	2300      	movs	r3, #0
10000854:	2c00      	cmp	r4, #0
10000856:	d00e      	beq.n	10000876 <setup_ws2816s+0x8e>
10000858:	0020      	movs	r0, r4
1000085a:	f004 fa73 	bl	10004d44 <__wrap___aeabi_ui2f>
1000085e:	1c01      	adds	r1, r0, #0
10000860:	1c30      	adds	r0, r6, #0
10000862:	f004 fa4e 	bl	10004d02 <__wrap___aeabi_fsub>
10000866:	2187      	movs	r1, #135	; 0x87
10000868:	05c9      	lsls	r1, r1, #23
1000086a:	f004 fa64 	bl	10004d36 <__wrap___aeabi_fmul>
1000086e:	f004 fa91 	bl	10004d94 <__wrap___aeabi_f2uiz>
10000872:	b2c3      	uxtb	r3, r0
10000874:	021b      	lsls	r3, r3, #8
10000876:	0424      	lsls	r4, r4, #16
10000878:	431c      	orrs	r4, r3
1000087a:	9402      	str	r4, [sp, #8]
1000087c:	4c58      	ldr	r4, [pc, #352]	; (100009e0 <setup_ws2816s+0x1f8>)
1000087e:	002a      	movs	r2, r5
10000880:	2100      	movs	r1, #0
10000882:	0020      	movs	r0, r4
10000884:	ab02      	add	r3, sp, #8
10000886:	f007 f825 	bl	100078d4 <pio_sm_init>
1000088a:	2201      	movs	r2, #1
1000088c:	6823      	ldr	r3, [r4, #0]
1000088e:	4859      	ldr	r0, [pc, #356]	; (100009f4 <setup_ws2816s+0x20c>)
10000890:	4313      	orrs	r3, r2
10000892:	6023      	str	r3, [r4, #0]
10000894:	f004 fc3e 	bl	10005114 <__wrap_puts>
10000898:	25f0      	movs	r5, #240	; 0xf0
1000089a:	2380      	movs	r3, #128	; 0x80
1000089c:	210a      	movs	r1, #10
1000089e:	4856      	ldr	r0, [pc, #344]	; (100009f8 <setup_ws2816s+0x210>)
100008a0:	025b      	lsls	r3, r3, #9
100008a2:	032d      	lsls	r5, r5, #12
100008a4:	6862      	ldr	r2, [r4, #4]
100008a6:	421a      	tst	r2, r3
100008a8:	d1fc      	bne.n	100008a4 <setup_ws2816s+0xbc>
100008aa:	6120      	str	r0, [r4, #16]
100008ac:	6862      	ldr	r2, [r4, #4]
100008ae:	421a      	tst	r2, r3
100008b0:	d1fc      	bne.n	100008ac <setup_ws2816s+0xc4>
100008b2:	6120      	str	r0, [r4, #16]
100008b4:	6862      	ldr	r2, [r4, #4]
100008b6:	421a      	tst	r2, r3
100008b8:	d1fc      	bne.n	100008b4 <setup_ws2816s+0xcc>
100008ba:	3901      	subs	r1, #1
100008bc:	6125      	str	r5, [r4, #16]
100008be:	2900      	cmp	r1, #0
100008c0:	d1f0      	bne.n	100008a4 <setup_ws2816s+0xbc>
100008c2:	2302      	movs	r3, #2
100008c4:	469a      	mov	sl, r3
100008c6:	4b4d      	ldr	r3, [pc, #308]	; (100009fc <setup_ws2816s+0x214>)
100008c8:	4f4d      	ldr	r7, [pc, #308]	; (10000a00 <setup_ws2816s+0x218>)
100008ca:	4699      	mov	r9, r3
100008cc:	4b4d      	ldr	r3, [pc, #308]	; (10000a04 <setup_ws2816s+0x21c>)
100008ce:	4c44      	ldr	r4, [pc, #272]	; (100009e0 <setup_ws2816s+0x1f8>)
100008d0:	4698      	mov	r8, r3
100008d2:	4b4d      	ldr	r3, [pc, #308]	; (10000a08 <setup_ws2816s+0x220>)
100008d4:	469b      	mov	fp, r3
100008d6:	4648      	mov	r0, r9
100008d8:	f004 fc1c 	bl	10005114 <__wrap_puts>
100008dc:	2380      	movs	r3, #128	; 0x80
100008de:	220a      	movs	r2, #10
100008e0:	4e4a      	ldr	r6, [pc, #296]	; (10000a0c <setup_ws2816s+0x224>)
100008e2:	4d4b      	ldr	r5, [pc, #300]	; (10000a10 <setup_ws2816s+0x228>)
100008e4:	484b      	ldr	r0, [pc, #300]	; (10000a14 <setup_ws2816s+0x22c>)
100008e6:	025b      	lsls	r3, r3, #9
100008e8:	6861      	ldr	r1, [r4, #4]
100008ea:	4219      	tst	r1, r3
100008ec:	d1fc      	bne.n	100008e8 <setup_ws2816s+0x100>
100008ee:	6126      	str	r6, [r4, #16]
100008f0:	6861      	ldr	r1, [r4, #4]
100008f2:	4219      	tst	r1, r3
100008f4:	d1fc      	bne.n	100008f0 <setup_ws2816s+0x108>
100008f6:	6125      	str	r5, [r4, #16]
100008f8:	6861      	ldr	r1, [r4, #4]
100008fa:	4219      	tst	r1, r3
100008fc:	d1fc      	bne.n	100008f8 <setup_ws2816s+0x110>
100008fe:	3a01      	subs	r2, #1
10000900:	6120      	str	r0, [r4, #16]
10000902:	2a00      	cmp	r2, #0
10000904:	d1f0      	bne.n	100008e8 <setup_ws2816s+0x100>
10000906:	20c8      	movs	r0, #200	; 0xc8
10000908:	0040      	lsls	r0, r0, #1
1000090a:	f001 f9a9 	bl	10001c60 <sleep_ms>
1000090e:	4640      	mov	r0, r8
10000910:	f004 fc00 	bl	10005114 <__wrap_puts>
10000914:	2380      	movs	r3, #128	; 0x80
10000916:	210a      	movs	r1, #10
10000918:	4d3f      	ldr	r5, [pc, #252]	; (10000a18 <setup_ws2816s+0x230>)
1000091a:	4840      	ldr	r0, [pc, #256]	; (10000a1c <setup_ws2816s+0x234>)
1000091c:	025b      	lsls	r3, r3, #9
1000091e:	6862      	ldr	r2, [r4, #4]
10000920:	421a      	tst	r2, r3
10000922:	d1fc      	bne.n	1000091e <setup_ws2816s+0x136>
10000924:	6125      	str	r5, [r4, #16]
10000926:	6862      	ldr	r2, [r4, #4]
10000928:	421a      	tst	r2, r3
1000092a:	d1fc      	bne.n	10000926 <setup_ws2816s+0x13e>
1000092c:	6120      	str	r0, [r4, #16]
1000092e:	6862      	ldr	r2, [r4, #4]
10000930:	0016      	movs	r6, r2
10000932:	401e      	ands	r6, r3
10000934:	421a      	tst	r2, r3
10000936:	d1fa      	bne.n	1000092e <setup_ws2816s+0x146>
10000938:	3901      	subs	r1, #1
1000093a:	6126      	str	r6, [r4, #16]
1000093c:	2900      	cmp	r1, #0
1000093e:	d1ee      	bne.n	1000091e <setup_ws2816s+0x136>
10000940:	20c8      	movs	r0, #200	; 0xc8
10000942:	0040      	lsls	r0, r0, #1
10000944:	f001 f98c 	bl	10001c60 <sleep_ms>
10000948:	0038      	movs	r0, r7
1000094a:	f004 fbe3 	bl	10005114 <__wrap_puts>
1000094e:	2380      	movs	r3, #128	; 0x80
10000950:	210a      	movs	r1, #10
10000952:	4d32      	ldr	r5, [pc, #200]	; (10000a1c <setup_ws2816s+0x234>)
10000954:	025b      	lsls	r3, r3, #9
10000956:	6862      	ldr	r2, [r4, #4]
10000958:	421a      	tst	r2, r3
1000095a:	d1fc      	bne.n	10000956 <setup_ws2816s+0x16e>
1000095c:	6125      	str	r5, [r4, #16]
1000095e:	6862      	ldr	r2, [r4, #4]
10000960:	0010      	movs	r0, r2
10000962:	4018      	ands	r0, r3
10000964:	421a      	tst	r2, r3
10000966:	d1fa      	bne.n	1000095e <setup_ws2816s+0x176>
10000968:	6120      	str	r0, [r4, #16]
1000096a:	6862      	ldr	r2, [r4, #4]
1000096c:	0010      	movs	r0, r2
1000096e:	4018      	ands	r0, r3
10000970:	421a      	tst	r2, r3
10000972:	d1fa      	bne.n	1000096a <setup_ws2816s+0x182>
10000974:	3901      	subs	r1, #1
10000976:	6120      	str	r0, [r4, #16]
10000978:	2900      	cmp	r1, #0
1000097a:	d1ec      	bne.n	10000956 <setup_ws2816s+0x16e>
1000097c:	20c8      	movs	r0, #200	; 0xc8
1000097e:	0040      	lsls	r0, r0, #1
10000980:	f001 f96e 	bl	10001c60 <sleep_ms>
10000984:	4658      	mov	r0, fp
10000986:	f004 fbc5 	bl	10005114 <__wrap_puts>
1000098a:	2380      	movs	r3, #128	; 0x80
1000098c:	210a      	movs	r1, #10
1000098e:	4d22      	ldr	r5, [pc, #136]	; (10000a18 <setup_ws2816s+0x230>)
10000990:	4822      	ldr	r0, [pc, #136]	; (10000a1c <setup_ws2816s+0x234>)
10000992:	025b      	lsls	r3, r3, #9
10000994:	6862      	ldr	r2, [r4, #4]
10000996:	0016      	movs	r6, r2
10000998:	401e      	ands	r6, r3
1000099a:	421a      	tst	r2, r3
1000099c:	d1fa      	bne.n	10000994 <setup_ws2816s+0x1ac>
1000099e:	6126      	str	r6, [r4, #16]
100009a0:	6862      	ldr	r2, [r4, #4]
100009a2:	421a      	tst	r2, r3
100009a4:	d1fc      	bne.n	100009a0 <setup_ws2816s+0x1b8>
100009a6:	6125      	str	r5, [r4, #16]
100009a8:	6862      	ldr	r2, [r4, #4]
100009aa:	421a      	tst	r2, r3
100009ac:	d1fc      	bne.n	100009a8 <setup_ws2816s+0x1c0>
100009ae:	3901      	subs	r1, #1
100009b0:	6120      	str	r0, [r4, #16]
100009b2:	2900      	cmp	r1, #0
100009b4:	d1ee      	bne.n	10000994 <setup_ws2816s+0x1ac>
100009b6:	20c8      	movs	r0, #200	; 0xc8
100009b8:	0040      	lsls	r0, r0, #1
100009ba:	f001 f951 	bl	10001c60 <sleep_ms>
100009be:	4653      	mov	r3, sl
100009c0:	2b01      	cmp	r3, #1
100009c2:	d106      	bne.n	100009d2 <setup_ws2816s+0x1ea>
100009c4:	b007      	add	sp, #28
100009c6:	bcf0      	pop	{r4, r5, r6, r7}
100009c8:	46bb      	mov	fp, r7
100009ca:	46b2      	mov	sl, r6
100009cc:	46a9      	mov	r9, r5
100009ce:	46a0      	mov	r8, r4
100009d0:	bdf0      	pop	{r4, r5, r6, r7, pc}
100009d2:	2301      	movs	r3, #1
100009d4:	469a      	mov	sl, r3
100009d6:	e77e      	b.n	100008d6 <setup_ws2816s+0xee>
100009d8:	10007ca8 	.word	0x10007ca8
100009dc:	10007cf0 	.word	0x10007cf0
100009e0:	50200000 	.word	0x50200000
100009e4:	9fffffff 	.word	0x9fffffff
100009e8:	20003800 	.word	0x20003800
100009ec:	60060000 	.word	0x60060000
100009f0:	4a927c00 	.word	0x4a927c00
100009f4:	10007c34 	.word	0x10007c34
100009f8:	000f000f 	.word	0x000f000f
100009fc:	10007c50 	.word	0x10007c50
10000a00:	10007c7c 	.word	0x10007c7c
10000a04:	10007c94 	.word	0x10007c94
10000a08:	10007c68 	.word	0x10007c68
10000a0c:	01af02ff 	.word	0x01af02ff
10000a10:	02ff02ff 	.word	0x02ff02ff
10000a14:	02ff0000 	.word	0x02ff0000
10000a18:	00000aff 	.word	0x00000aff
10000a1c:	0aff0000 	.word	0x0aff0000

10000a20 <setup_led_bank>:
10000a20:	b510      	push	{r4, lr}
10000a22:	2019      	movs	r0, #25
10000a24:	f000 fa36 	bl	10000e94 <gpio_init>
10000a28:	2017      	movs	r0, #23
10000a2a:	f000 fa33 	bl	10000e94 <gpio_init>
10000a2e:	23d0      	movs	r3, #208	; 0xd0
10000a30:	2180      	movs	r1, #128	; 0x80
10000a32:	2280      	movs	r2, #128	; 0x80
10000a34:	061b      	lsls	r3, r3, #24
10000a36:	0412      	lsls	r2, r2, #16
10000a38:	0489      	lsls	r1, r1, #18
10000a3a:	6259      	str	r1, [r3, #36]	; 0x24
10000a3c:	4810      	ldr	r0, [pc, #64]	; (10000a80 <setup_led_bank+0x60>)
10000a3e:	625a      	str	r2, [r3, #36]	; 0x24
10000a40:	6199      	str	r1, [r3, #24]
10000a42:	619a      	str	r2, [r3, #24]
10000a44:	f004 fb66 	bl	10005114 <__wrap_puts>
10000a48:	490e      	ldr	r1, [pc, #56]	; (10000a84 <setup_led_bank+0x64>)
10000a4a:	480f      	ldr	r0, [pc, #60]	; (10000a88 <setup_led_bank+0x68>)
10000a4c:	f006 fdd8 	bl	10007600 <i2c_init>
10000a50:	2103      	movs	r1, #3
10000a52:	2014      	movs	r0, #20
10000a54:	f000 f9da 	bl	10000e0c <gpio_set_function>
10000a58:	2103      	movs	r1, #3
10000a5a:	2015      	movs	r0, #21
10000a5c:	f000 f9d6 	bl	10000e0c <gpio_set_function>
10000a60:	2200      	movs	r2, #0
10000a62:	2101      	movs	r1, #1
10000a64:	2014      	movs	r0, #20
10000a66:	f000 f9e9 	bl	10000e3c <gpio_set_pulls>
10000a6a:	2200      	movs	r2, #0
10000a6c:	2101      	movs	r1, #1
10000a6e:	2015      	movs	r0, #21
10000a70:	f000 f9e4 	bl	10000e3c <gpio_set_pulls>
10000a74:	4805      	ldr	r0, [pc, #20]	; (10000a8c <setup_led_bank+0x6c>)
10000a76:	f004 fb4d 	bl	10005114 <__wrap_puts>
10000a7a:	f7ff fe3b 	bl	100006f4 <init_FL3236A>
10000a7e:	bd10      	pop	{r4, pc}
10000a80:	10007cc4 	.word	0x10007cc4
10000a84:	00061a80 	.word	0x00061a80
10000a88:	20000f10 	.word	0x20000f10
10000a8c:	10007cd4 	.word	0x10007cd4

10000a90 <main>:
10000a90:	b5f0      	push	{r4, r5, r6, r7, lr}
10000a92:	46de      	mov	lr, fp
10000a94:	4657      	mov	r7, sl
10000a96:	464e      	mov	r6, r9
10000a98:	4645      	mov	r5, r8
10000a9a:	b5e0      	push	{r5, r6, r7, lr}
10000a9c:	b087      	sub	sp, #28
10000a9e:	f004 fbe7 	bl	10005270 <stdio_init_all>
10000aa2:	f7ff fea1 	bl	100007e8 <setup_ws2816s>
10000aa6:	f7ff ffbb 	bl	10000a20 <setup_led_bank>
10000aaa:	f7ff fd7b 	bl	100005a4 <setup_audio>
10000aae:	f7ff fdbd 	bl	1000062c <setup_key_matrix>
10000ab2:	f7ff fde7 	bl	10000684 <setup_adcs>
10000ab6:	4b53      	ldr	r3, [pc, #332]	; (10000c04 <main+0x174>)
10000ab8:	4f53      	ldr	r7, [pc, #332]	; (10000c08 <main+0x178>)
10000aba:	4698      	mov	r8, r3
10000abc:	23d0      	movs	r3, #208	; 0xd0
10000abe:	061b      	lsls	r3, r3, #24
10000ac0:	4699      	mov	r9, r3
10000ac2:	ac05      	add	r4, sp, #20
10000ac4:	4b51      	ldr	r3, [pc, #324]	; (10000c0c <main+0x17c>)
10000ac6:	2500      	movs	r5, #0
10000ac8:	469b      	mov	fp, r3
10000aca:	4b51      	ldr	r3, [pc, #324]	; (10000c10 <main+0x180>)
10000acc:	2601      	movs	r6, #1
10000ace:	469a      	mov	sl, r3
10000ad0:	465a      	mov	r2, fp
10000ad2:	0033      	movs	r3, r6
10000ad4:	6812      	ldr	r2, [r2, #0]
10000ad6:	2100      	movs	r1, #0
10000ad8:	4093      	lsls	r3, r2
10000ada:	464a      	mov	r2, r9
10000adc:	6253      	str	r3, [r2, #36]	; 0x24
10000ade:	6153      	str	r3, [r2, #20]
10000ae0:	6853      	ldr	r3, [r2, #4]
10000ae2:	4a4c      	ldr	r2, [pc, #304]	; (10000c14 <main+0x184>)
10000ae4:	484c      	ldr	r0, [pc, #304]	; (10000c18 <main+0x188>)
10000ae6:	6812      	ldr	r2, [r2, #0]
10000ae8:	40d3      	lsrs	r3, r2
10000aea:	9203      	str	r2, [sp, #12]
10000aec:	4652      	mov	r2, sl
10000aee:	4033      	ands	r3, r6
10000af0:	6013      	str	r3, [r2, #0]
10000af2:	002a      	movs	r2, r5
10000af4:	f004 fbb0 	bl	10005258 <__wrap_printf>
10000af8:	464b      	mov	r3, r9
10000afa:	4a46      	ldr	r2, [pc, #280]	; (10000c14 <main+0x184>)
10000afc:	685b      	ldr	r3, [r3, #4]
10000afe:	6852      	ldr	r2, [r2, #4]
10000b00:	2101      	movs	r1, #1
10000b02:	40d3      	lsrs	r3, r2
10000b04:	9203      	str	r2, [sp, #12]
10000b06:	4652      	mov	r2, sl
10000b08:	4033      	ands	r3, r6
10000b0a:	6113      	str	r3, [r2, #16]
10000b0c:	4842      	ldr	r0, [pc, #264]	; (10000c18 <main+0x188>)
10000b0e:	002a      	movs	r2, r5
10000b10:	f004 fba2 	bl	10005258 <__wrap_printf>
10000b14:	465a      	mov	r2, fp
10000b16:	ca08      	ldmia	r2!, {r3}
10000b18:	3501      	adds	r5, #1
10000b1a:	4693      	mov	fp, r2
10000b1c:	0032      	movs	r2, r6
10000b1e:	409a      	lsls	r2, r3
10000b20:	0013      	movs	r3, r2
10000b22:	464a      	mov	r2, r9
10000b24:	6293      	str	r3, [r2, #40]	; 0x28
10000b26:	2304      	movs	r3, #4
10000b28:	469c      	mov	ip, r3
10000b2a:	44e2      	add	sl, ip
10000b2c:	2d04      	cmp	r5, #4
10000b2e:	d1cf      	bne.n	10000ad0 <main+0x40>
10000b30:	f7ff fcea 	bl	10000508 <keys_to_freq>
10000b34:	f7ff fc88 	bl	10000448 <read_knobs>
10000b38:	f7ff fc36 	bl	100003a8 <pattern_random.constprop.0>
10000b3c:	2280      	movs	r2, #128	; 0x80
10000b3e:	464b      	mov	r3, r9
10000b40:	0492      	lsls	r2, r2, #18
10000b42:	615a      	str	r2, [r3, #20]
10000b44:	2280      	movs	r2, #128	; 0x80
10000b46:	0412      	lsls	r2, r2, #16
10000b48:	619a      	str	r2, [r3, #24]
10000b4a:	2300      	movs	r3, #0
10000b4c:	469a      	mov	sl, r3
10000b4e:	3325      	adds	r3, #37	; 0x25
10000b50:	2624      	movs	r6, #36	; 0x24
10000b52:	469b      	mov	fp, r3
10000b54:	f006 ff0e 	bl	10007974 <rand>
10000b58:	0005      	movs	r5, r0
10000b5a:	4640      	mov	r0, r8
10000b5c:	f004 fada 	bl	10005114 <__wrap_puts>
10000b60:	4653      	mov	r3, sl
10000b62:	b2ed      	uxtb	r5, r5
10000b64:	092d      	lsrs	r5, r5, #4
10000b66:	0022      	movs	r2, r4
10000b68:	213c      	movs	r1, #60	; 0x3c
10000b6a:	7026      	strb	r6, [r4, #0]
10000b6c:	7065      	strb	r5, [r4, #1]
10000b6e:	0038      	movs	r0, r7
10000b70:	9300      	str	r3, [sp, #0]
10000b72:	2302      	movs	r3, #2
10000b74:	f006 fd6e 	bl	10007654 <i2c_write_blocking>
10000b78:	4640      	mov	r0, r8
10000b7a:	f004 facb 	bl	10005114 <__wrap_puts>
10000b7e:	465b      	mov	r3, fp
10000b80:	8023      	strh	r3, [r4, #0]
10000b82:	4653      	mov	r3, sl
10000b84:	0022      	movs	r2, r4
10000b86:	9300      	str	r3, [sp, #0]
10000b88:	213c      	movs	r1, #60	; 0x3c
10000b8a:	2302      	movs	r3, #2
10000b8c:	0038      	movs	r0, r7
10000b8e:	3e01      	subs	r6, #1
10000b90:	f006 fd60 	bl	10007654 <i2c_write_blocking>
10000b94:	2e00      	cmp	r6, #0
10000b96:	d1dd      	bne.n	10000b54 <main+0xc4>
10000b98:	2032      	movs	r0, #50	; 0x32
10000b9a:	f001 f861 	bl	10001c60 <sleep_ms>
10000b9e:	2280      	movs	r2, #128	; 0x80
10000ba0:	464b      	mov	r3, r9
10000ba2:	0492      	lsls	r2, r2, #18
10000ba4:	619a      	str	r2, [r3, #24]
10000ba6:	2280      	movs	r2, #128	; 0x80
10000ba8:	0412      	lsls	r2, r2, #16
10000baa:	615a      	str	r2, [r3, #20]
10000bac:	2300      	movs	r3, #0
10000bae:	469a      	mov	sl, r3
10000bb0:	3325      	adds	r3, #37	; 0x25
10000bb2:	469b      	mov	fp, r3
10000bb4:	3624      	adds	r6, #36	; 0x24
10000bb6:	f006 fedd 	bl	10007974 <rand>
10000bba:	0005      	movs	r5, r0
10000bbc:	4640      	mov	r0, r8
10000bbe:	f004 faa9 	bl	10005114 <__wrap_puts>
10000bc2:	4653      	mov	r3, sl
10000bc4:	b2ed      	uxtb	r5, r5
10000bc6:	092d      	lsrs	r5, r5, #4
10000bc8:	0022      	movs	r2, r4
10000bca:	213c      	movs	r1, #60	; 0x3c
10000bcc:	7026      	strb	r6, [r4, #0]
10000bce:	7065      	strb	r5, [r4, #1]
10000bd0:	0038      	movs	r0, r7
10000bd2:	9300      	str	r3, [sp, #0]
10000bd4:	2302      	movs	r3, #2
10000bd6:	f006 fd3d 	bl	10007654 <i2c_write_blocking>
10000bda:	4640      	mov	r0, r8
10000bdc:	f004 fa9a 	bl	10005114 <__wrap_puts>
10000be0:	465b      	mov	r3, fp
10000be2:	8023      	strh	r3, [r4, #0]
10000be4:	4653      	mov	r3, sl
10000be6:	0022      	movs	r2, r4
10000be8:	9300      	str	r3, [sp, #0]
10000bea:	213c      	movs	r1, #60	; 0x3c
10000bec:	2302      	movs	r3, #2
10000bee:	0038      	movs	r0, r7
10000bf0:	3e01      	subs	r6, #1
10000bf2:	f006 fd2f 	bl	10007654 <i2c_write_blocking>
10000bf6:	2e00      	cmp	r6, #0
10000bf8:	d1dd      	bne.n	10000bb6 <main+0x126>
10000bfa:	2096      	movs	r0, #150	; 0x96
10000bfc:	f001 f830 	bl	10001c60 <sleep_ms>
10000c00:	e760      	b.n	10000ac4 <main+0x34>
10000c02:	46c0      	nop			; (mov r8, r8)
10000c04:	10007b6c 	.word	0x10007b6c
10000c08:	20000f10 	.word	0x20000f10
10000c0c:	20000e18 	.word	0x20000e18
10000c10:	20002094 	.word	0x20002094
10000c14:	20000e2c 	.word	0x20000e2c
10000c18:	10007af4 	.word	0x10007af4

10000c1c <set_sys_clock_pll>:
10000c1c:	b5f0      	push	{r4, r5, r6, r7, lr}
10000c1e:	b083      	sub	sp, #12
10000c20:	0005      	movs	r5, r0
10000c22:	000e      	movs	r6, r1
10000c24:	0014      	movs	r4, r2
10000c26:	f000 f953 	bl	10000ed0 <running_on_fpga>
10000c2a:	2800      	cmp	r0, #0
10000c2c:	d001      	beq.n	10000c32 <set_sys_clock_pll+0x16>
10000c2e:	b003      	add	sp, #12
10000c30:	bdf0      	pop	{r4, r5, r6, r7, pc}
10000c32:	4f15      	ldr	r7, [pc, #84]	; (10000c88 <set_sys_clock_pll+0x6c>)
10000c34:	2201      	movs	r2, #1
10000c36:	003b      	movs	r3, r7
10000c38:	2101      	movs	r1, #1
10000c3a:	9700      	str	r7, [sp, #0]
10000c3c:	3005      	adds	r0, #5
10000c3e:	f001 fb97 	bl	10002370 <clock_configure>
10000c42:	0033      	movs	r3, r6
10000c44:	002a      	movs	r2, r5
10000c46:	9400      	str	r4, [sp, #0]
10000c48:	2101      	movs	r1, #1
10000c4a:	4810      	ldr	r0, [pc, #64]	; (10000c8c <set_sys_clock_pll+0x70>)
10000c4c:	f001 fd7e 	bl	1000274c <pll_init>
10000c50:	0021      	movs	r1, r4
10000c52:	0028      	movs	r0, r5
10000c54:	4371      	muls	r1, r6
10000c56:	f003 fa19 	bl	1000408c <__wrap___aeabi_uidiv>
10000c5a:	0004      	movs	r4, r0
10000c5c:	4b0c      	ldr	r3, [pc, #48]	; (10000c90 <set_sys_clock_pll+0x74>)
10000c5e:	2200      	movs	r2, #0
10000c60:	9300      	str	r3, [sp, #0]
10000c62:	2102      	movs	r1, #2
10000c64:	2004      	movs	r0, #4
10000c66:	f001 fb83 	bl	10002370 <clock_configure>
10000c6a:	0023      	movs	r3, r4
10000c6c:	2200      	movs	r2, #0
10000c6e:	2101      	movs	r1, #1
10000c70:	9400      	str	r4, [sp, #0]
10000c72:	2005      	movs	r0, #5
10000c74:	f001 fb7c 	bl	10002370 <clock_configure>
10000c78:	003b      	movs	r3, r7
10000c7a:	2202      	movs	r2, #2
10000c7c:	2100      	movs	r1, #0
10000c7e:	9700      	str	r7, [sp, #0]
10000c80:	2006      	movs	r0, #6
10000c82:	f001 fb75 	bl	10002370 <clock_configure>
10000c86:	e7d2      	b.n	10000c2e <set_sys_clock_pll+0x12>
10000c88:	02dc6c00 	.word	0x02dc6c00
10000c8c:	40028000 	.word	0x40028000
10000c90:	00b71b00 	.word	0x00b71b00

10000c94 <check_sys_clock_khz>:
10000c94:	b5f0      	push	{r4, r5, r6, r7, lr}
10000c96:	46de      	mov	lr, fp
10000c98:	4657      	mov	r7, sl
10000c9a:	464e      	mov	r6, r9
10000c9c:	4645      	mov	r5, r8
10000c9e:	b5e0      	push	{r5, r6, r7, lr}
10000ca0:	0007      	movs	r7, r0
10000ca2:	b085      	sub	sp, #20
10000ca4:	2004      	movs	r0, #4
10000ca6:	9303      	str	r3, [sp, #12]
10000ca8:	9101      	str	r1, [sp, #4]
10000caa:	9202      	str	r2, [sp, #8]
10000cac:	f001 fd48 	bl	10002740 <clock_get_hz>
10000cb0:	21fa      	movs	r1, #250	; 0xfa
10000cb2:	0089      	lsls	r1, r1, #2
10000cb4:	f003 f9ea 	bl	1000408c <__wrap___aeabi_uidiv>
10000cb8:	2332      	movs	r3, #50	; 0x32
10000cba:	4682      	mov	sl, r0
10000cbc:	33ff      	adds	r3, #255	; 0xff
10000cbe:	4699      	mov	r9, r3
10000cc0:	0086      	lsls	r6, r0, #2
10000cc2:	4456      	add	r6, sl
10000cc4:	01b6      	lsls	r6, r6, #6
10000cc6:	4b4f      	ldr	r3, [pc, #316]	; (10000e04 <check_sys_clock_khz+0x170>)
10000cc8:	4a4f      	ldr	r2, [pc, #316]	; (10000e08 <check_sys_clock_khz+0x174>)
10000cca:	18f3      	adds	r3, r6, r3
10000ccc:	2407      	movs	r4, #7
10000cce:	4293      	cmp	r3, r2
10000cd0:	d90e      	bls.n	10000cf0 <check_sys_clock_khz+0x5c>
10000cd2:	2301      	movs	r3, #1
10000cd4:	425b      	negs	r3, r3
10000cd6:	469c      	mov	ip, r3
10000cd8:	4653      	mov	r3, sl
10000cda:	44e1      	add	r9, ip
10000cdc:	1af6      	subs	r6, r6, r3
10000cde:	464b      	mov	r3, r9
10000ce0:	2b00      	cmp	r3, #0
10000ce2:	d1f0      	bne.n	10000cc6 <check_sys_clock_khz+0x32>
10000ce4:	2000      	movs	r0, #0
10000ce6:	e05d      	b.n	10000da4 <check_sys_clock_khz+0x110>
10000ce8:	2900      	cmp	r1, #0
10000cea:	d100      	bne.n	10000cee <check_sys_clock_khz+0x5a>
10000cec:	e086      	b.n	10000dfc <check_sys_clock_khz+0x168>
10000cee:	2406      	movs	r4, #6
10000cf0:	0021      	movs	r1, r4
10000cf2:	0030      	movs	r0, r6
10000cf4:	4361      	muls	r1, r4
10000cf6:	f003 f9c9 	bl	1000408c <__wrap___aeabi_uidiv>
10000cfa:	4287      	cmp	r7, r0
10000cfc:	d042      	beq.n	10000d84 <check_sys_clock_khz+0xf0>
10000cfe:	1e63      	subs	r3, r4, #1
10000d00:	4698      	mov	r8, r3
10000d02:	2c01      	cmp	r4, #1
10000d04:	d0e5      	beq.n	10000cd2 <check_sys_clock_khz+0x3e>
10000d06:	001d      	movs	r5, r3
10000d08:	4365      	muls	r5, r4
10000d0a:	0030      	movs	r0, r6
10000d0c:	0029      	movs	r1, r5
10000d0e:	f003 f9bd 	bl	1000408c <__wrap___aeabi_uidiv>
10000d12:	4287      	cmp	r7, r0
10000d14:	d04d      	beq.n	10000db2 <check_sys_clock_khz+0x11e>
10000d16:	1ea3      	subs	r3, r4, #2
10000d18:	469b      	mov	fp, r3
10000d1a:	2c02      	cmp	r4, #2
10000d1c:	d04f      	beq.n	10000dbe <check_sys_clock_khz+0x12a>
10000d1e:	1b2d      	subs	r5, r5, r4
10000d20:	0029      	movs	r1, r5
10000d22:	0030      	movs	r0, r6
10000d24:	f003 f9b2 	bl	1000408c <__wrap___aeabi_uidiv>
10000d28:	4287      	cmp	r7, r0
10000d2a:	d04a      	beq.n	10000dc2 <check_sys_clock_khz+0x12e>
10000d2c:	1ee3      	subs	r3, r4, #3
10000d2e:	469b      	mov	fp, r3
10000d30:	2c03      	cmp	r4, #3
10000d32:	d061      	beq.n	10000df8 <check_sys_clock_khz+0x164>
10000d34:	1b2d      	subs	r5, r5, r4
10000d36:	0029      	movs	r1, r5
10000d38:	0030      	movs	r0, r6
10000d3a:	f003 f9a7 	bl	1000408c <__wrap___aeabi_uidiv>
10000d3e:	4287      	cmp	r7, r0
10000d40:	d043      	beq.n	10000dca <check_sys_clock_khz+0x136>
10000d42:	1f23      	subs	r3, r4, #4
10000d44:	469b      	mov	fp, r3
10000d46:	2c04      	cmp	r4, #4
10000d48:	d045      	beq.n	10000dd6 <check_sys_clock_khz+0x142>
10000d4a:	1b2d      	subs	r5, r5, r4
10000d4c:	0029      	movs	r1, r5
10000d4e:	0030      	movs	r0, r6
10000d50:	f003 f99c 	bl	1000408c <__wrap___aeabi_uidiv>
10000d54:	4287      	cmp	r7, r0
10000d56:	d040      	beq.n	10000dda <check_sys_clock_khz+0x146>
10000d58:	1f63      	subs	r3, r4, #5
10000d5a:	469b      	mov	fp, r3
10000d5c:	2c05      	cmp	r4, #5
10000d5e:	d042      	beq.n	10000de6 <check_sys_clock_khz+0x152>
10000d60:	1b2d      	subs	r5, r5, r4
10000d62:	0029      	movs	r1, r5
10000d64:	0030      	movs	r0, r6
10000d66:	f003 f991 	bl	1000408c <__wrap___aeabi_uidiv>
10000d6a:	4287      	cmp	r7, r0
10000d6c:	d03d      	beq.n	10000dea <check_sys_clock_khz+0x156>
10000d6e:	4643      	mov	r3, r8
10000d70:	2b05      	cmp	r3, #5
10000d72:	d03f      	beq.n	10000df4 <check_sys_clock_khz+0x160>
10000d74:	0030      	movs	r0, r6
10000d76:	1fe9      	subs	r1, r5, #7
10000d78:	f003 f988 	bl	1000408c <__wrap___aeabi_uidiv>
10000d7c:	4287      	cmp	r7, r0
10000d7e:	d0b3      	beq.n	10000ce8 <check_sys_clock_khz+0x54>
10000d80:	2406      	movs	r4, #6
10000d82:	e7b5      	b.n	10000cf0 <check_sys_clock_khz+0x5c>
10000d84:	2900      	cmp	r1, #0
10000d86:	d1ba      	bne.n	10000cfe <check_sys_clock_khz+0x6a>
10000d88:	46a0      	mov	r8, r4
10000d8a:	4642      	mov	r2, r8
10000d8c:	2001      	movs	r0, #1
10000d8e:	0173      	lsls	r3, r6, #5
10000d90:	1b9b      	subs	r3, r3, r6
10000d92:	009b      	lsls	r3, r3, #2
10000d94:	199e      	adds	r6, r3, r6
10000d96:	9b01      	ldr	r3, [sp, #4]
10000d98:	00f6      	lsls	r6, r6, #3
10000d9a:	601e      	str	r6, [r3, #0]
10000d9c:	9b02      	ldr	r3, [sp, #8]
10000d9e:	601c      	str	r4, [r3, #0]
10000da0:	9b03      	ldr	r3, [sp, #12]
10000da2:	601a      	str	r2, [r3, #0]
10000da4:	b005      	add	sp, #20
10000da6:	bcf0      	pop	{r4, r5, r6, r7}
10000da8:	46bb      	mov	fp, r7
10000daa:	46b2      	mov	sl, r6
10000dac:	46a9      	mov	r9, r5
10000dae:	46a0      	mov	r8, r4
10000db0:	bdf0      	pop	{r4, r5, r6, r7, pc}
10000db2:	2900      	cmp	r1, #0
10000db4:	d0e9      	beq.n	10000d8a <check_sys_clock_khz+0xf6>
10000db6:	1ea3      	subs	r3, r4, #2
10000db8:	469b      	mov	fp, r3
10000dba:	2c02      	cmp	r4, #2
10000dbc:	d1af      	bne.n	10000d1e <check_sys_clock_khz+0x8a>
10000dbe:	2401      	movs	r4, #1
10000dc0:	e796      	b.n	10000cf0 <check_sys_clock_khz+0x5c>
10000dc2:	2900      	cmp	r1, #0
10000dc4:	d1b2      	bne.n	10000d2c <check_sys_clock_khz+0x98>
10000dc6:	46d8      	mov	r8, fp
10000dc8:	e7df      	b.n	10000d8a <check_sys_clock_khz+0xf6>
10000dca:	2900      	cmp	r1, #0
10000dcc:	d0fb      	beq.n	10000dc6 <check_sys_clock_khz+0x132>
10000dce:	1f23      	subs	r3, r4, #4
10000dd0:	469b      	mov	fp, r3
10000dd2:	2c04      	cmp	r4, #4
10000dd4:	d1b9      	bne.n	10000d4a <check_sys_clock_khz+0xb6>
10000dd6:	2403      	movs	r4, #3
10000dd8:	e78a      	b.n	10000cf0 <check_sys_clock_khz+0x5c>
10000dda:	2900      	cmp	r1, #0
10000ddc:	d0f3      	beq.n	10000dc6 <check_sys_clock_khz+0x132>
10000dde:	1f63      	subs	r3, r4, #5
10000de0:	469b      	mov	fp, r3
10000de2:	2c05      	cmp	r4, #5
10000de4:	d1bc      	bne.n	10000d60 <check_sys_clock_khz+0xcc>
10000de6:	2404      	movs	r4, #4
10000de8:	e782      	b.n	10000cf0 <check_sys_clock_khz+0x5c>
10000dea:	2900      	cmp	r1, #0
10000dec:	d0eb      	beq.n	10000dc6 <check_sys_clock_khz+0x132>
10000dee:	4643      	mov	r3, r8
10000df0:	2b05      	cmp	r3, #5
10000df2:	d1bf      	bne.n	10000d74 <check_sys_clock_khz+0xe0>
10000df4:	2405      	movs	r4, #5
10000df6:	e77b      	b.n	10000cf0 <check_sys_clock_khz+0x5c>
10000df8:	2402      	movs	r4, #2
10000dfa:	e779      	b.n	10000cf0 <check_sys_clock_khz+0x5c>
10000dfc:	2301      	movs	r3, #1
10000dfe:	4698      	mov	r8, r3
10000e00:	e7c3      	b.n	10000d8a <check_sys_clock_khz+0xf6>
10000e02:	46c0      	nop			; (mov r8, r8)
10000e04:	fff48e50 	.word	0xfff48e50
10000e08:	000cf850 	.word	0x000cf850

10000e0c <gpio_set_function>:
10000e0c:	4a09      	ldr	r2, [pc, #36]	; (10000e34 <gpio_set_function+0x28>)
10000e0e:	0083      	lsls	r3, r0, #2
10000e10:	4694      	mov	ip, r2
10000e12:	2240      	movs	r2, #64	; 0x40
10000e14:	4463      	add	r3, ip
10000e16:	b510      	push	{r4, lr}
10000e18:	681c      	ldr	r4, [r3, #0]
10000e1a:	00c0      	lsls	r0, r0, #3
10000e1c:	4062      	eors	r2, r4
10000e1e:	24c0      	movs	r4, #192	; 0xc0
10000e20:	4014      	ands	r4, r2
10000e22:	2280      	movs	r2, #128	; 0x80
10000e24:	0152      	lsls	r2, r2, #5
10000e26:	4313      	orrs	r3, r2
10000e28:	601c      	str	r4, [r3, #0]
10000e2a:	4b03      	ldr	r3, [pc, #12]	; (10000e38 <gpio_set_function+0x2c>)
10000e2c:	469c      	mov	ip, r3
10000e2e:	4460      	add	r0, ip
10000e30:	6041      	str	r1, [r0, #4]
10000e32:	bd10      	pop	{r4, pc}
10000e34:	4001c004 	.word	0x4001c004
10000e38:	40014000 	.word	0x40014000

10000e3c <gpio_set_pulls>:
10000e3c:	4b0a      	ldr	r3, [pc, #40]	; (10000e68 <gpio_set_pulls+0x2c>)
10000e3e:	0080      	lsls	r0, r0, #2
10000e40:	469c      	mov	ip, r3
10000e42:	2304      	movs	r3, #4
10000e44:	4460      	add	r0, ip
10000e46:	2900      	cmp	r1, #0
10000e48:	d001      	beq.n	10000e4e <gpio_set_pulls+0x12>
10000e4a:	230c      	movs	r3, #12
10000e4c:	2108      	movs	r1, #8
10000e4e:	2a00      	cmp	r2, #0
10000e50:	d100      	bne.n	10000e54 <gpio_set_pulls+0x18>
10000e52:	000b      	movs	r3, r1
10000e54:	6802      	ldr	r2, [r0, #0]
10000e56:	4053      	eors	r3, r2
10000e58:	220c      	movs	r2, #12
10000e5a:	401a      	ands	r2, r3
10000e5c:	2380      	movs	r3, #128	; 0x80
10000e5e:	015b      	lsls	r3, r3, #5
10000e60:	4318      	orrs	r0, r3
10000e62:	6002      	str	r2, [r0, #0]
10000e64:	4770      	bx	lr
10000e66:	46c0      	nop			; (mov r8, r8)
10000e68:	4001c004 	.word	0x4001c004

10000e6c <gpio_set_input_enabled>:
10000e6c:	4b08      	ldr	r3, [pc, #32]	; (10000e90 <gpio_set_input_enabled+0x24>)
10000e6e:	0080      	lsls	r0, r0, #2
10000e70:	469c      	mov	ip, r3
10000e72:	4460      	add	r0, ip
10000e74:	2900      	cmp	r1, #0
10000e76:	d005      	beq.n	10000e84 <gpio_set_input_enabled+0x18>
10000e78:	2380      	movs	r3, #128	; 0x80
10000e7a:	019b      	lsls	r3, r3, #6
10000e7c:	4318      	orrs	r0, r3
10000e7e:	2340      	movs	r3, #64	; 0x40
10000e80:	6003      	str	r3, [r0, #0]
10000e82:	4770      	bx	lr
10000e84:	23c0      	movs	r3, #192	; 0xc0
10000e86:	019b      	lsls	r3, r3, #6
10000e88:	4318      	orrs	r0, r3
10000e8a:	2340      	movs	r3, #64	; 0x40
10000e8c:	6003      	str	r3, [r0, #0]
10000e8e:	e7f8      	b.n	10000e82 <gpio_set_input_enabled+0x16>
10000e90:	4001c004 	.word	0x4001c004

10000e94 <gpio_init>:
10000e94:	2301      	movs	r3, #1
10000e96:	22d0      	movs	r2, #208	; 0xd0
10000e98:	4083      	lsls	r3, r0
10000e9a:	0612      	lsls	r2, r2, #24
10000e9c:	6293      	str	r3, [r2, #40]	; 0x28
10000e9e:	6193      	str	r3, [r2, #24]
10000ea0:	4a09      	ldr	r2, [pc, #36]	; (10000ec8 <gpio_init+0x34>)
10000ea2:	0083      	lsls	r3, r0, #2
10000ea4:	4694      	mov	ip, r2
10000ea6:	2240      	movs	r2, #64	; 0x40
10000ea8:	4463      	add	r3, ip
10000eaa:	6819      	ldr	r1, [r3, #0]
10000eac:	00c0      	lsls	r0, r0, #3
10000eae:	404a      	eors	r2, r1
10000eb0:	21c0      	movs	r1, #192	; 0xc0
10000eb2:	4011      	ands	r1, r2
10000eb4:	2280      	movs	r2, #128	; 0x80
10000eb6:	0152      	lsls	r2, r2, #5
10000eb8:	4313      	orrs	r3, r2
10000eba:	6019      	str	r1, [r3, #0]
10000ebc:	4b03      	ldr	r3, [pc, #12]	; (10000ecc <gpio_init+0x38>)
10000ebe:	469c      	mov	ip, r3
10000ec0:	2305      	movs	r3, #5
10000ec2:	4460      	add	r0, ip
10000ec4:	6043      	str	r3, [r0, #4]
10000ec6:	4770      	bx	lr
10000ec8:	4001c004 	.word	0x4001c004
10000ecc:	40014000 	.word	0x40014000

10000ed0 <running_on_fpga>:
10000ed0:	4b02      	ldr	r3, [pc, #8]	; (10000edc <running_on_fpga+0xc>)
10000ed2:	6818      	ldr	r0, [r3, #0]
10000ed4:	0780      	lsls	r0, r0, #30
10000ed6:	0fc0      	lsrs	r0, r0, #31
10000ed8:	4770      	bx	lr
10000eda:	46c0      	nop			; (mov r8, r8)
10000edc:	4006c000 	.word	0x4006c000

10000ee0 <hw_claim_lock>:
10000ee0:	f3ef 8010 	mrs	r0, PRIMASK
10000ee4:	b672      	cpsid	i
10000ee6:	4a03      	ldr	r2, [pc, #12]	; (10000ef4 <hw_claim_lock+0x14>)
10000ee8:	6813      	ldr	r3, [r2, #0]
10000eea:	2b00      	cmp	r3, #0
10000eec:	d0fc      	beq.n	10000ee8 <hw_claim_lock+0x8>
10000eee:	f3bf 8f5f 	dmb	sy
10000ef2:	4770      	bx	lr
10000ef4:	d000012c 	.word	0xd000012c

10000ef8 <hw_claim_unlock>:
10000ef8:	f3bf 8f5f 	dmb	sy
10000efc:	2200      	movs	r2, #0
10000efe:	4b02      	ldr	r3, [pc, #8]	; (10000f08 <hw_claim_unlock+0x10>)
10000f00:	601a      	str	r2, [r3, #0]
10000f02:	f380 8810 	msr	PRIMASK, r0
10000f06:	4770      	bx	lr
10000f08:	d000012c 	.word	0xd000012c

10000f0c <hw_claim_or_assert>:
10000f0c:	b570      	push	{r4, r5, r6, lr}
10000f0e:	f3ef 8c10 	mrs	ip, PRIMASK
10000f12:	b672      	cpsid	i
10000f14:	4d0d      	ldr	r5, [pc, #52]	; (10000f4c <hw_claim_or_assert+0x40>)
10000f16:	682b      	ldr	r3, [r5, #0]
10000f18:	2b00      	cmp	r3, #0
10000f1a:	d0fc      	beq.n	10000f16 <hw_claim_or_assert+0xa>
10000f1c:	f3bf 8f5f 	dmb	sy
10000f20:	2407      	movs	r4, #7
10000f22:	08cb      	lsrs	r3, r1, #3
10000f24:	18c6      	adds	r6, r0, r3
10000f26:	5cc0      	ldrb	r0, [r0, r3]
10000f28:	2301      	movs	r3, #1
10000f2a:	400c      	ands	r4, r1
10000f2c:	40a3      	lsls	r3, r4
10000f2e:	001c      	movs	r4, r3
10000f30:	4004      	ands	r4, r0
10000f32:	4203      	tst	r3, r0
10000f34:	d107      	bne.n	10000f46 <hw_claim_or_assert+0x3a>
10000f36:	4303      	orrs	r3, r0
10000f38:	7033      	strb	r3, [r6, #0]
10000f3a:	f3bf 8f5f 	dmb	sy
10000f3e:	602c      	str	r4, [r5, #0]
10000f40:	f38c 8810 	msr	PRIMASK, ip
10000f44:	bd70      	pop	{r4, r5, r6, pc}
10000f46:	0010      	movs	r0, r2
10000f48:	f001 fd3e 	bl	100029c8 <panic>
10000f4c:	d000012c 	.word	0xd000012c

10000f50 <hw_claim_unused_from_range>:
10000f50:	b5f8      	push	{r3, r4, r5, r6, r7, lr}
10000f52:	4647      	mov	r7, r8
10000f54:	46ce      	mov	lr, r9
10000f56:	4688      	mov	r8, r1
10000f58:	b580      	push	{r7, lr}
10000f5a:	f3ef 8c10 	mrs	ip, PRIMASK
10000f5e:	b672      	cpsid	i
10000f60:	4d21      	ldr	r5, [pc, #132]	; (10000fe8 <hw_claim_unused_from_range+0x98>)
10000f62:	682c      	ldr	r4, [r5, #0]
10000f64:	2c00      	cmp	r4, #0
10000f66:	d0fc      	beq.n	10000f62 <hw_claim_unused_from_range+0x12>
10000f68:	f3bf 8f5f 	dmb	sy
10000f6c:	429a      	cmp	r2, r3
10000f6e:	d82c      	bhi.n	10000fca <hw_claim_unused_from_range+0x7a>
10000f70:	08d4      	lsrs	r4, r2, #3
10000f72:	2707      	movs	r7, #7
10000f74:	5d05      	ldrb	r5, [r0, r4]
10000f76:	1906      	adds	r6, r0, r4
10000f78:	2401      	movs	r4, #1
10000f7a:	4017      	ands	r7, r2
10000f7c:	40bc      	lsls	r4, r7
10000f7e:	422c      	tst	r4, r5
10000f80:	d01f      	beq.n	10000fc2 <hw_claim_unused_from_range+0x72>
10000f82:	2107      	movs	r1, #7
10000f84:	2701      	movs	r7, #1
10000f86:	4689      	mov	r9, r1
10000f88:	e009      	b.n	10000f9e <hw_claim_unused_from_range+0x4e>
10000f8a:	08d4      	lsrs	r4, r2, #3
10000f8c:	5d05      	ldrb	r5, [r0, r4]
10000f8e:	1906      	adds	r6, r0, r4
10000f90:	464c      	mov	r4, r9
10000f92:	0039      	movs	r1, r7
10000f94:	4014      	ands	r4, r2
10000f96:	40a1      	lsls	r1, r4
10000f98:	000c      	movs	r4, r1
10000f9a:	4229      	tst	r1, r5
10000f9c:	d011      	beq.n	10000fc2 <hw_claim_unused_from_range+0x72>
10000f9e:	3201      	adds	r2, #1
10000fa0:	4293      	cmp	r3, r2
10000fa2:	d2f2      	bcs.n	10000f8a <hw_claim_unused_from_range+0x3a>
10000fa4:	2001      	movs	r0, #1
10000fa6:	4240      	negs	r0, r0
10000fa8:	f3bf 8f5f 	dmb	sy
10000fac:	2200      	movs	r2, #0
10000fae:	4b0e      	ldr	r3, [pc, #56]	; (10000fe8 <hw_claim_unused_from_range+0x98>)
10000fb0:	601a      	str	r2, [r3, #0]
10000fb2:	f38c 8810 	msr	PRIMASK, ip
10000fb6:	2800      	cmp	r0, #0
10000fb8:	db0f      	blt.n	10000fda <hw_claim_unused_from_range+0x8a>
10000fba:	bcc0      	pop	{r6, r7}
10000fbc:	46b9      	mov	r9, r7
10000fbe:	46b0      	mov	r8, r6
10000fc0:	bdf8      	pop	{r3, r4, r5, r6, r7, pc}
10000fc2:	432c      	orrs	r4, r5
10000fc4:	0010      	movs	r0, r2
10000fc6:	7034      	strb	r4, [r6, #0]
10000fc8:	e7ee      	b.n	10000fa8 <hw_claim_unused_from_range+0x58>
10000fca:	f3bf 8f5f 	dmb	sy
10000fce:	2300      	movs	r3, #0
10000fd0:	602b      	str	r3, [r5, #0]
10000fd2:	f38c 8810 	msr	PRIMASK, ip
10000fd6:	2001      	movs	r0, #1
10000fd8:	4240      	negs	r0, r0
10000fda:	4643      	mov	r3, r8
10000fdc:	2b00      	cmp	r3, #0
10000fde:	d0ec      	beq.n	10000fba <hw_claim_unused_from_range+0x6a>
10000fe0:	9808      	ldr	r0, [sp, #32]
10000fe2:	f001 fcf1 	bl	100029c8 <panic>
10000fe6:	46c0      	nop			; (mov r8, r8)
10000fe8:	d000012c 	.word	0xd000012c

10000fec <spin_locks_reset>:
10000fec:	2100      	movs	r1, #0
10000fee:	4b04      	ldr	r3, [pc, #16]	; (10001000 <spin_locks_reset+0x14>)
10000ff0:	4a04      	ldr	r2, [pc, #16]	; (10001004 <spin_locks_reset+0x18>)
10000ff2:	f3bf 8f5f 	dmb	sy
10000ff6:	c302      	stmia	r3!, {r1}
10000ff8:	4293      	cmp	r3, r2
10000ffa:	d1fa      	bne.n	10000ff2 <spin_locks_reset+0x6>
10000ffc:	4770      	bx	lr
10000ffe:	46c0      	nop			; (mov r8, r8)
10001000:	d0000100 	.word	0xd0000100
10001004:	d0000180 	.word	0xd0000180

10001008 <next_striped_spin_lock_num>:
10001008:	4a04      	ldr	r2, [pc, #16]	; (1000101c <next_striped_spin_lock_num+0x14>)
1000100a:	7810      	ldrb	r0, [r2, #0]
1000100c:	1c43      	adds	r3, r0, #1
1000100e:	b2db      	uxtb	r3, r3
10001010:	2b17      	cmp	r3, #23
10001012:	d900      	bls.n	10001016 <next_striped_spin_lock_num+0xe>
10001014:	2310      	movs	r3, #16
10001016:	7013      	strb	r3, [r2, #0]
10001018:	4770      	bx	lr
1000101a:	46c0      	nop			; (mov r8, r8)
1000101c:	20000e34 	.word	0x20000e34

10001020 <spin_lock_claim_unused>:
10001020:	b500      	push	{lr}
10001022:	4b05      	ldr	r3, [pc, #20]	; (10001038 <spin_lock_claim_unused+0x18>)
10001024:	b083      	sub	sp, #12
10001026:	0001      	movs	r1, r0
10001028:	9300      	str	r3, [sp, #0]
1000102a:	2218      	movs	r2, #24
1000102c:	231f      	movs	r3, #31
1000102e:	4803      	ldr	r0, [pc, #12]	; (1000103c <spin_lock_claim_unused+0x1c>)
10001030:	f7ff ff8e 	bl	10000f50 <hw_claim_unused_from_range>
10001034:	b003      	add	sp, #12
10001036:	bd00      	pop	{pc}
10001038:	10007d00 	.word	0x10007d00
1000103c:	20001bf0 	.word	0x20001bf0

10001040 <irq_set_enabled>:
10001040:	2301      	movs	r3, #1
10001042:	4083      	lsls	r3, r0
10001044:	2900      	cmp	r1, #0
10001046:	d004      	beq.n	10001052 <irq_set_enabled+0x12>
10001048:	4a03      	ldr	r2, [pc, #12]	; (10001058 <irq_set_enabled+0x18>)
1000104a:	6013      	str	r3, [r2, #0]
1000104c:	4a03      	ldr	r2, [pc, #12]	; (1000105c <irq_set_enabled+0x1c>)
1000104e:	6013      	str	r3, [r2, #0]
10001050:	4770      	bx	lr
10001052:	4a03      	ldr	r2, [pc, #12]	; (10001060 <irq_set_enabled+0x20>)
10001054:	6013      	str	r3, [r2, #0]
10001056:	e7fb      	b.n	10001050 <irq_set_enabled+0x10>
10001058:	e000e280 	.word	0xe000e280
1000105c:	e000e100 	.word	0xe000e100
10001060:	e000e180 	.word	0xe000e180

10001064 <irq_set_pending>:
10001064:	2301      	movs	r3, #1
10001066:	4083      	lsls	r3, r0
10001068:	4a01      	ldr	r2, [pc, #4]	; (10001070 <irq_set_pending+0xc>)
1000106a:	6013      	str	r3, [r2, #0]
1000106c:	4770      	bx	lr
1000106e:	46c0      	nop			; (mov r8, r8)
10001070:	e000e200 	.word	0xe000e200

10001074 <irq_has_shared_handler>:
10001074:	4b08      	ldr	r3, [pc, #32]	; (10001098 <irq_has_shared_handler+0x24>)
10001076:	3010      	adds	r0, #16
10001078:	689b      	ldr	r3, [r3, #8]
1000107a:	0080      	lsls	r0, r0, #2
1000107c:	58c3      	ldr	r3, [r0, r3]
1000107e:	2b00      	cmp	r3, #0
10001080:	d007      	beq.n	10001092 <irq_has_shared_handler+0x1e>
10001082:	4a06      	ldr	r2, [pc, #24]	; (1000109c <irq_has_shared_handler+0x28>)
10001084:	2000      	movs	r0, #0
10001086:	1a9b      	subs	r3, r3, r2
10001088:	222f      	movs	r2, #47	; 0x2f
1000108a:	429a      	cmp	r2, r3
1000108c:	4140      	adcs	r0, r0
1000108e:	b2c0      	uxtb	r0, r0
10001090:	4770      	bx	lr
10001092:	2000      	movs	r0, #0
10001094:	e7fc      	b.n	10001090 <irq_has_shared_handler+0x1c>
10001096:	46c0      	nop			; (mov r8, r8)
10001098:	e000ed00 	.word	0xe000ed00
1000109c:	20000e38 	.word	0x20000e38

100010a0 <irq_get_vtable_handler>:
100010a0:	4b02      	ldr	r3, [pc, #8]	; (100010ac <irq_get_vtable_handler+0xc>)
100010a2:	3010      	adds	r0, #16
100010a4:	689b      	ldr	r3, [r3, #8]
100010a6:	0080      	lsls	r0, r0, #2
100010a8:	58c0      	ldr	r0, [r0, r3]
100010aa:	4770      	bx	lr
100010ac:	e000ed00 	.word	0xe000ed00

100010b0 <irq_set_exclusive_handler>:
100010b0:	b570      	push	{r4, r5, r6, lr}
100010b2:	000d      	movs	r5, r1
100010b4:	f3ef 8610 	mrs	r6, PRIMASK
100010b8:	b672      	cpsid	i
100010ba:	4a0f      	ldr	r2, [pc, #60]	; (100010f8 <irq_set_exclusive_handler+0x48>)
100010bc:	6813      	ldr	r3, [r2, #0]
100010be:	2b00      	cmp	r3, #0
100010c0:	d0fc      	beq.n	100010bc <irq_set_exclusive_handler+0xc>
100010c2:	f3bf 8f5f 	dmb	sy
100010c6:	4b0d      	ldr	r3, [pc, #52]	; (100010fc <irq_set_exclusive_handler+0x4c>)
100010c8:	3010      	adds	r0, #16
100010ca:	689b      	ldr	r3, [r3, #8]
100010cc:	0084      	lsls	r4, r0, #2
100010ce:	591b      	ldr	r3, [r3, r4]
100010d0:	4a0b      	ldr	r2, [pc, #44]	; (10001100 <irq_set_exclusive_handler+0x50>)
100010d2:	4293      	cmp	r3, r2
100010d4:	d003      	beq.n	100010de <irq_set_exclusive_handler+0x2e>
100010d6:	429d      	cmp	r5, r3
100010d8:	d001      	beq.n	100010de <irq_set_exclusive_handler+0x2e>
100010da:	f001 fc8d 	bl	100029f8 <hard_assertion_failure>
100010de:	4b07      	ldr	r3, [pc, #28]	; (100010fc <irq_set_exclusive_handler+0x4c>)
100010e0:	689b      	ldr	r3, [r3, #8]
100010e2:	511d      	str	r5, [r3, r4]
100010e4:	f3bf 8f5f 	dmb	sy
100010e8:	f3bf 8f5f 	dmb	sy
100010ec:	2200      	movs	r2, #0
100010ee:	4b02      	ldr	r3, [pc, #8]	; (100010f8 <irq_set_exclusive_handler+0x48>)
100010f0:	601a      	str	r2, [r3, #0]
100010f2:	f386 8810 	msr	PRIMASK, r6
100010f6:	bd70      	pop	{r4, r5, r6, pc}
100010f8:	d0000124 	.word	0xd0000124
100010fc:	e000ed00 	.word	0xe000ed00
10001100:	100001cd 	.word	0x100001cd

10001104 <irq_add_shared_handler>:
10001104:	b5f0      	push	{r4, r5, r6, r7, lr}
10001106:	4657      	mov	r7, sl
10001108:	464e      	mov	r6, r9
1000110a:	46de      	mov	lr, fp
1000110c:	4645      	mov	r5, r8
1000110e:	b5e0      	push	{r5, r6, r7, lr}
10001110:	b085      	sub	sp, #20
10001112:	0006      	movs	r6, r0
10001114:	9102      	str	r1, [sp, #8]
10001116:	0017      	movs	r7, r2
10001118:	f3ef 8b10 	mrs	fp, PRIMASK
1000111c:	b672      	cpsid	i
1000111e:	4a67      	ldr	r2, [pc, #412]	; (100012bc <irq_add_shared_handler+0x1b8>)
10001120:	6813      	ldr	r3, [r2, #0]
10001122:	2b00      	cmp	r3, #0
10001124:	d0fc      	beq.n	10001120 <irq_add_shared_handler+0x1c>
10001126:	f3bf 8f5f 	dmb	sy
1000112a:	2500      	movs	r5, #0
1000112c:	4b64      	ldr	r3, [pc, #400]	; (100012c0 <irq_add_shared_handler+0x1bc>)
1000112e:	575d      	ldrsb	r5, [r3, r5]
10001130:	469a      	mov	sl, r3
10001132:	2d00      	cmp	r5, #0
10001134:	da00      	bge.n	10001138 <irq_add_shared_handler+0x34>
10001136:	e0a4      	b.n	10001282 <irq_add_shared_handler+0x17e>
10001138:	006b      	lsls	r3, r5, #1
1000113a:	4c62      	ldr	r4, [pc, #392]	; (100012c4 <irq_add_shared_handler+0x1c0>)
1000113c:	9303      	str	r3, [sp, #12]
1000113e:	195b      	adds	r3, r3, r5
10001140:	009b      	lsls	r3, r3, #2
10001142:	4698      	mov	r8, r3
10001144:	46a1      	mov	r9, r4
10001146:	44c1      	add	r9, r8
10001148:	464b      	mov	r3, r9
1000114a:	4652      	mov	r2, sl
1000114c:	799b      	ldrb	r3, [r3, #6]
1000114e:	3610      	adds	r6, #16
10001150:	7013      	strb	r3, [r2, #0]
10001152:	4b5d      	ldr	r3, [pc, #372]	; (100012c8 <irq_add_shared_handler+0x1c4>)
10001154:	00b2      	lsls	r2, r6, #2
10001156:	689b      	ldr	r3, [r3, #8]
10001158:	9201      	str	r2, [sp, #4]
1000115a:	5899      	ldr	r1, [r3, r2]
1000115c:	1b0b      	subs	r3, r1, r4
1000115e:	2b2f      	cmp	r3, #47	; 0x2f
10001160:	d934      	bls.n	100011cc <irq_add_shared_handler+0xc8>
10001162:	4b5a      	ldr	r3, [pc, #360]	; (100012cc <irq_add_shared_handler+0x1c8>)
10001164:	4299      	cmp	r1, r3
10001166:	d000      	beq.n	1000116a <irq_add_shared_handler+0x66>
10001168:	e0a4      	b.n	100012b4 <irq_add_shared_handler+0x1b0>
1000116a:	9b03      	ldr	r3, [sp, #12]
1000116c:	4a58      	ldr	r2, [pc, #352]	; (100012d0 <irq_add_shared_handler+0x1cc>)
1000116e:	469c      	mov	ip, r3
10001170:	4b58      	ldr	r3, [pc, #352]	; (100012d4 <irq_add_shared_handler+0x1d0>)
10001172:	4465      	add	r5, ip
10001174:	00ad      	lsls	r5, r5, #2
10001176:	5363      	strh	r3, [r4, r5]
10001178:	4643      	mov	r3, r8
1000117a:	3302      	adds	r3, #2
1000117c:	1965      	adds	r5, r4, r5
1000117e:	18e4      	adds	r4, r4, r3
10001180:	4b55      	ldr	r3, [pc, #340]	; (100012d8 <irq_add_shared_handler+0x1d4>)
10001182:	2101      	movs	r1, #1
10001184:	3b04      	subs	r3, #4
10001186:	1b1b      	subs	r3, r3, r4
10001188:	051b      	lsls	r3, r3, #20
1000118a:	0d5b      	lsrs	r3, r3, #21
1000118c:	4313      	orrs	r3, r2
1000118e:	806b      	strh	r3, [r5, #2]
10001190:	4b52      	ldr	r3, [pc, #328]	; (100012dc <irq_add_shared_handler+0x1d8>)
10001192:	71ef      	strb	r7, [r5, #7]
10001194:	80ab      	strh	r3, [r5, #4]
10001196:	23ff      	movs	r3, #255	; 0xff
10001198:	71ab      	strb	r3, [r5, #6]
1000119a:	9b02      	ldr	r3, [sp, #8]
1000119c:	60ab      	str	r3, [r5, #8]
1000119e:	464b      	mov	r3, r9
100011a0:	430b      	orrs	r3, r1
100011a2:	0019      	movs	r1, r3
100011a4:	4b48      	ldr	r3, [pc, #288]	; (100012c8 <irq_add_shared_handler+0x1c4>)
100011a6:	9a01      	ldr	r2, [sp, #4]
100011a8:	689b      	ldr	r3, [r3, #8]
100011aa:	5099      	str	r1, [r3, r2]
100011ac:	f3bf 8f5f 	dmb	sy
100011b0:	f3bf 8f5f 	dmb	sy
100011b4:	2200      	movs	r2, #0
100011b6:	4b41      	ldr	r3, [pc, #260]	; (100012bc <irq_add_shared_handler+0x1b8>)
100011b8:	601a      	str	r2, [r3, #0]
100011ba:	f38b 8810 	msr	PRIMASK, fp
100011be:	b005      	add	sp, #20
100011c0:	bcf0      	pop	{r4, r5, r6, r7}
100011c2:	46bb      	mov	fp, r7
100011c4:	46b2      	mov	sl, r6
100011c6:	46a9      	mov	r9, r5
100011c8:	46a0      	mov	r8, r4
100011ca:	bdf0      	pop	{r4, r5, r6, r7, pc}
100011cc:	2001      	movs	r0, #1
100011ce:	000a      	movs	r2, r1
100011d0:	4382      	bics	r2, r0
100011d2:	79d3      	ldrb	r3, [r2, #7]
100011d4:	42bb      	cmp	r3, r7
100011d6:	d82f      	bhi.n	10001238 <irq_add_shared_handler+0x134>
100011d8:	4645      	mov	r5, r8
100011da:	464e      	mov	r6, r9
100011dc:	0013      	movs	r3, r2
100011de:	4940      	ldr	r1, [pc, #256]	; (100012e0 <irq_add_shared_handler+0x1dc>)
100011e0:	1b1b      	subs	r3, r3, r4
100011e2:	415b      	adcs	r3, r3
100011e4:	4359      	muls	r1, r3
100011e6:	0d09      	lsrs	r1, r1, #20
100011e8:	4b3a      	ldr	r3, [pc, #232]	; (100012d4 <irq_add_shared_handler+0x1d0>)
100011ea:	5363      	strh	r3, [r4, r5]
100011ec:	4b3a      	ldr	r3, [pc, #232]	; (100012d8 <irq_add_shared_handler+0x1d4>)
100011ee:	3502      	adds	r5, #2
100011f0:	1965      	adds	r5, r4, r5
100011f2:	3b04      	subs	r3, #4
100011f4:	1b5b      	subs	r3, r3, r5
100011f6:	051b      	lsls	r3, r3, #20
100011f8:	4d35      	ldr	r5, [pc, #212]	; (100012d0 <irq_add_shared_handler+0x1cc>)
100011fa:	0d5b      	lsrs	r3, r3, #21
100011fc:	432b      	orrs	r3, r5
100011fe:	8073      	strh	r3, [r6, #2]
10001200:	2604      	movs	r6, #4
10001202:	46b4      	mov	ip, r6
10001204:	44e0      	add	r8, ip
10001206:	4444      	add	r4, r8
10001208:	1f13      	subs	r3, r2, #4
1000120a:	1b1b      	subs	r3, r3, r4
1000120c:	464c      	mov	r4, r9
1000120e:	71a1      	strb	r1, [r4, #6]
10001210:	9902      	ldr	r1, [sp, #8]
10001212:	051b      	lsls	r3, r3, #20
10001214:	60a1      	str	r1, [r4, #8]
10001216:	4649      	mov	r1, r9
10001218:	0d5b      	lsrs	r3, r3, #21
1000121a:	432b      	orrs	r3, r5
1000121c:	80a3      	strh	r3, [r4, #4]
1000121e:	4b31      	ldr	r3, [pc, #196]	; (100012e4 <irq_add_shared_handler+0x1e0>)
10001220:	71e7      	strb	r7, [r4, #7]
10001222:	4301      	orrs	r1, r0
10001224:	6013      	str	r3, [r2, #0]
10001226:	e7bd      	b.n	100011a4 <irq_add_shared_handler+0xa0>
10001228:	0058      	lsls	r0, r3, #1
1000122a:	18c0      	adds	r0, r0, r3
1000122c:	0080      	lsls	r0, r0, #2
1000122e:	1820      	adds	r0, r4, r0
10001230:	79c6      	ldrb	r6, [r0, #7]
10001232:	42be      	cmp	r6, r7
10001234:	d92b      	bls.n	1000128e <irq_add_shared_handler+0x18a>
10001236:	0002      	movs	r2, r0
10001238:	2306      	movs	r3, #6
1000123a:	56d3      	ldrsb	r3, [r2, r3]
1000123c:	2b00      	cmp	r3, #0
1000123e:	daf3      	bge.n	10001228 <irq_add_shared_handler+0x124>
10001240:	1d10      	adds	r0, r2, #4
10001242:	4682      	mov	sl, r0
10001244:	4828      	ldr	r0, [pc, #160]	; (100012e8 <irq_add_shared_handler+0x1e4>)
10001246:	4680      	mov	r8, r0
10001248:	2604      	movs	r6, #4
1000124a:	4276      	negs	r6, r6
1000124c:	46b4      	mov	ip, r6
1000124e:	44e1      	add	r9, ip
10001250:	4650      	mov	r0, sl
10001252:	464e      	mov	r6, r9
10001254:	1a36      	subs	r6, r6, r0
10001256:	0530      	lsls	r0, r6, #20
10001258:	0d40      	lsrs	r0, r0, #21
1000125a:	4682      	mov	sl, r0
1000125c:	4656      	mov	r6, sl
1000125e:	481c      	ldr	r0, [pc, #112]	; (100012d0 <irq_add_shared_handler+0x1cc>)
10001260:	7195      	strb	r5, [r2, #6]
10001262:	4306      	orrs	r6, r0
10001264:	8096      	strh	r6, [r2, #4]
10001266:	9a03      	ldr	r2, [sp, #12]
10001268:	4694      	mov	ip, r2
1000126a:	4465      	add	r5, ip
1000126c:	4a1d      	ldr	r2, [pc, #116]	; (100012e4 <irq_add_shared_handler+0x1e0>)
1000126e:	00ad      	lsls	r5, r5, #2
10001270:	1964      	adds	r4, r4, r5
10001272:	6022      	str	r2, [r4, #0]
10001274:	4642      	mov	r2, r8
10001276:	71a3      	strb	r3, [r4, #6]
10001278:	9b02      	ldr	r3, [sp, #8]
1000127a:	80a2      	strh	r2, [r4, #4]
1000127c:	71e7      	strb	r7, [r4, #7]
1000127e:	60a3      	str	r3, [r4, #8]
10001280:	e790      	b.n	100011a4 <irq_add_shared_handler+0xa0>
10001282:	f001 fbb9 	bl	100029f8 <hard_assertion_failure>
10001286:	2500      	movs	r5, #0
10001288:	4653      	mov	r3, sl
1000128a:	575d      	ldrsb	r5, [r3, r5]
1000128c:	e754      	b.n	10001138 <irq_add_shared_handler+0x34>
1000128e:	1d10      	adds	r0, r2, #4
10001290:	4682      	mov	sl, r0
10001292:	8890      	ldrh	r0, [r2, #4]
10001294:	0540      	lsls	r0, r0, #21
10001296:	1500      	asrs	r0, r0, #20
10001298:	4684      	mov	ip, r0
1000129a:	4640      	mov	r0, r8
1000129c:	44d4      	add	ip, sl
1000129e:	4666      	mov	r6, ip
100012a0:	3004      	adds	r0, #4
100012a2:	1820      	adds	r0, r4, r0
100012a4:	1a30      	subs	r0, r6, r0
100012a6:	26e0      	movs	r6, #224	; 0xe0
100012a8:	0500      	lsls	r0, r0, #20
100012aa:	0d40      	lsrs	r0, r0, #21
100012ac:	0236      	lsls	r6, r6, #8
100012ae:	4330      	orrs	r0, r6
100012b0:	4680      	mov	r8, r0
100012b2:	e7c9      	b.n	10001248 <irq_add_shared_handler+0x144>
100012b4:	f001 fba0 	bl	100029f8 <hard_assertion_failure>
100012b8:	e757      	b.n	1000116a <irq_add_shared_handler+0x66>
100012ba:	46c0      	nop			; (mov r8, r8)
100012bc:	d0000124 	.word	0xd0000124
100012c0:	20002115 	.word	0x20002115
100012c4:	20000e38 	.word	0x20000e38
100012c8:	e000ed00 	.word	0xe000ed00
100012cc:	100001cd 	.word	0x100001cd
100012d0:	ffffe000 	.word	0xffffe000
100012d4:	ffffa100 	.word	0xffffa100
100012d8:	20000e68 	.word	0x20000e68
100012dc:	ffffbd01 	.word	0xffffbd01
100012e0:	0000aaaa 	.word	0x0000aaaa
100012e4:	47804801 	.word	0x47804801
100012e8:	0000bd01 	.word	0x0000bd01

100012ec <irq_remove_handler>:
100012ec:	b5f0      	push	{r4, r5, r6, r7, lr}
100012ee:	46de      	mov	lr, fp
100012f0:	4657      	mov	r7, sl
100012f2:	464e      	mov	r6, r9
100012f4:	4645      	mov	r5, r8
100012f6:	b5e0      	push	{r5, r6, r7, lr}
100012f8:	000c      	movs	r4, r1
100012fa:	b083      	sub	sp, #12
100012fc:	f3ef 8910 	mrs	r9, PRIMASK
10001300:	b672      	cpsid	i
10001302:	4a58      	ldr	r2, [pc, #352]	; (10001464 <irq_remove_handler+0x178>)
10001304:	6813      	ldr	r3, [r2, #0]
10001306:	2b00      	cmp	r3, #0
10001308:	d0fc      	beq.n	10001304 <irq_remove_handler+0x18>
1000130a:	f3bf 8f5f 	dmb	sy
1000130e:	4b56      	ldr	r3, [pc, #344]	; (10001468 <irq_remove_handler+0x17c>)
10001310:	689a      	ldr	r2, [r3, #8]
10001312:	0003      	movs	r3, r0
10001314:	3310      	adds	r3, #16
10001316:	009f      	lsls	r7, r3, #2
10001318:	59d5      	ldr	r5, [r2, r7]
1000131a:	4a54      	ldr	r2, [pc, #336]	; (1000146c <irq_remove_handler+0x180>)
1000131c:	4690      	mov	r8, r2
1000131e:	4295      	cmp	r5, r2
10001320:	d032      	beq.n	10001388 <irq_remove_handler+0x9c>
10001322:	42a5      	cmp	r5, r4
10001324:	d043      	beq.n	100013ae <irq_remove_handler+0xc2>
10001326:	4e52      	ldr	r6, [pc, #328]	; (10001470 <irq_remove_handler+0x184>)
10001328:	1baa      	subs	r2, r5, r6
1000132a:	2a2f      	cmp	r2, #47	; 0x2f
1000132c:	d82c      	bhi.n	10001388 <irq_remove_handler+0x9c>
1000132e:	2201      	movs	r2, #1
10001330:	4082      	lsls	r2, r0
10001332:	4692      	mov	sl, r2
10001334:	4651      	mov	r1, sl
10001336:	4a4f      	ldr	r2, [pc, #316]	; (10001474 <irq_remove_handler+0x188>)
10001338:	6812      	ldr	r2, [r2, #0]
1000133a:	4011      	ands	r1, r2
1000133c:	9101      	str	r1, [sp, #4]
1000133e:	4651      	mov	r1, sl
10001340:	4a4d      	ldr	r2, [pc, #308]	; (10001478 <irq_remove_handler+0x18c>)
10001342:	6011      	str	r1, [r2, #0]
10001344:	f3bf 8f5f 	dmb	sy
10001348:	f3ef 8205 	mrs	r2, IPSR
1000134c:	4693      	mov	fp, r2
1000134e:	2a00      	cmp	r2, #0
10001350:	d133      	bne.n	100013ba <irq_remove_handler+0xce>
10001352:	2301      	movs	r3, #1
10001354:	002a      	movs	r2, r5
10001356:	439a      	bics	r2, r3
10001358:	6893      	ldr	r3, [r2, #8]
1000135a:	429c      	cmp	r4, r3
1000135c:	d108      	bne.n	10001370 <irq_remove_handler+0x84>
1000135e:	e077      	b.n	10001450 <irq_remove_handler+0x164>
10001360:	004b      	lsls	r3, r1, #1
10001362:	185b      	adds	r3, r3, r1
10001364:	009b      	lsls	r3, r3, #2
10001366:	18f3      	adds	r3, r6, r3
10001368:	6899      	ldr	r1, [r3, #8]
1000136a:	42a1      	cmp	r1, r4
1000136c:	d02a      	beq.n	100013c4 <irq_remove_handler+0xd8>
1000136e:	001a      	movs	r2, r3
10001370:	2106      	movs	r1, #6
10001372:	5651      	ldrsb	r1, [r2, r1]
10001374:	2900      	cmp	r1, #0
10001376:	daf3      	bge.n	10001360 <irq_remove_handler+0x74>
10001378:	9b01      	ldr	r3, [sp, #4]
1000137a:	2b00      	cmp	r3, #0
1000137c:	d019      	beq.n	100013b2 <irq_remove_handler+0xc6>
1000137e:	4652      	mov	r2, sl
10001380:	4b3e      	ldr	r3, [pc, #248]	; (1000147c <irq_remove_handler+0x190>)
10001382:	601a      	str	r2, [r3, #0]
10001384:	4b3b      	ldr	r3, [pc, #236]	; (10001474 <irq_remove_handler+0x188>)
10001386:	601a      	str	r2, [r3, #0]
10001388:	4b37      	ldr	r3, [pc, #220]	; (10001468 <irq_remove_handler+0x17c>)
1000138a:	689b      	ldr	r3, [r3, #8]
1000138c:	51dd      	str	r5, [r3, r7]
1000138e:	f3bf 8f5f 	dmb	sy
10001392:	f3bf 8f5f 	dmb	sy
10001396:	2200      	movs	r2, #0
10001398:	4b32      	ldr	r3, [pc, #200]	; (10001464 <irq_remove_handler+0x178>)
1000139a:	601a      	str	r2, [r3, #0]
1000139c:	f389 8810 	msr	PRIMASK, r9
100013a0:	b003      	add	sp, #12
100013a2:	bcf0      	pop	{r4, r5, r6, r7}
100013a4:	46bb      	mov	fp, r7
100013a6:	46b2      	mov	sl, r6
100013a8:	46a9      	mov	r9, r5
100013aa:	46a0      	mov	r8, r4
100013ac:	bdf0      	pop	{r4, r5, r6, r7, pc}
100013ae:	0015      	movs	r5, r2
100013b0:	e7ea      	b.n	10001388 <irq_remove_handler+0x9c>
100013b2:	4652      	mov	r2, sl
100013b4:	4b30      	ldr	r3, [pc, #192]	; (10001478 <irq_remove_handler+0x18c>)
100013b6:	601a      	str	r2, [r3, #0]
100013b8:	e7e6      	b.n	10001388 <irq_remove_handler+0x9c>
100013ba:	4293      	cmp	r3, r2
100013bc:	d0c9      	beq.n	10001352 <irq_remove_handler+0x66>
100013be:	f001 fb1b 	bl	100029f8 <hard_assertion_failure>
100013c2:	e7c6      	b.n	10001352 <irq_remove_handler+0x66>
100013c4:	2106      	movs	r1, #6
100013c6:	5659      	ldrsb	r1, [r3, r1]
100013c8:	2900      	cmp	r1, #0
100013ca:	db21      	blt.n	10001410 <irq_remove_handler+0x124>
100013cc:	004a      	lsls	r2, r1, #1
100013ce:	1850      	adds	r0, r2, r1
100013d0:	0080      	lsls	r0, r0, #2
100013d2:	1834      	adds	r4, r6, r0
100013d4:	4680      	mov	r8, r0
100013d6:	68a0      	ldr	r0, [r4, #8]
100013d8:	6098      	str	r0, [r3, #8]
100013da:	79e0      	ldrb	r0, [r4, #7]
100013dc:	71d8      	strb	r0, [r3, #7]
100013de:	2006      	movs	r0, #6
100013e0:	5620      	ldrsb	r0, [r4, r0]
100013e2:	7198      	strb	r0, [r3, #6]
100013e4:	2800      	cmp	r0, #0
100013e6:	db24      	blt.n	10001432 <irq_remove_handler+0x146>
100013e8:	88a4      	ldrh	r4, [r4, #4]
100013ea:	1af0      	subs	r0, r6, r3
100013ec:	0564      	lsls	r4, r4, #21
100013ee:	1524      	asrs	r4, r4, #20
100013f0:	4444      	add	r4, r8
100013f2:	1900      	adds	r0, r0, r4
100013f4:	24e0      	movs	r4, #224	; 0xe0
100013f6:	0500      	lsls	r0, r0, #20
100013f8:	0d40      	lsrs	r0, r0, #21
100013fa:	0224      	lsls	r4, r4, #8
100013fc:	4320      	orrs	r0, r4
100013fe:	8098      	strh	r0, [r3, #4]
10001400:	1852      	adds	r2, r2, r1
10001402:	4b1f      	ldr	r3, [pc, #124]	; (10001480 <irq_remove_handler+0x194>)
10001404:	0092      	lsls	r2, r2, #2
10001406:	18b6      	adds	r6, r6, r2
10001408:	781a      	ldrb	r2, [r3, #0]
1000140a:	7019      	strb	r1, [r3, #0]
1000140c:	71b2      	strb	r2, [r6, #6]
1000140e:	e7b3      	b.n	10001378 <irq_remove_handler+0x8c>
10001410:	4659      	mov	r1, fp
10001412:	2900      	cmp	r1, #0
10001414:	d10f      	bne.n	10001436 <irq_remove_handler+0x14a>
10001416:	31ff      	adds	r1, #255	; 0xff
10001418:	7191      	strb	r1, [r2, #6]
1000141a:	491a      	ldr	r1, [pc, #104]	; (10001484 <irq_remove_handler+0x198>)
1000141c:	8091      	strh	r1, [r2, #4]
1000141e:	4918      	ldr	r1, [pc, #96]	; (10001480 <irq_remove_handler+0x194>)
10001420:	780a      	ldrb	r2, [r1, #0]
10001422:	719a      	strb	r2, [r3, #6]
10001424:	4a18      	ldr	r2, [pc, #96]	; (10001488 <irq_remove_handler+0x19c>)
10001426:	1b9b      	subs	r3, r3, r6
10001428:	415b      	adcs	r3, r3
1000142a:	435a      	muls	r2, r3
1000142c:	0d12      	lsrs	r2, r2, #20
1000142e:	700a      	strb	r2, [r1, #0]
10001430:	e7a2      	b.n	10001378 <irq_remove_handler+0x8c>
10001432:	4816      	ldr	r0, [pc, #88]	; (1000148c <irq_remove_handler+0x1a0>)
10001434:	e7e3      	b.n	100013fe <irq_remove_handler+0x112>
10001436:	4a16      	ldr	r2, [pc, #88]	; (10001490 <irq_remove_handler+0x1a4>)
10001438:	4916      	ldr	r1, [pc, #88]	; (10001494 <irq_remove_handler+0x1a8>)
1000143a:	1ad2      	subs	r2, r2, r3
1000143c:	3a08      	subs	r2, #8
1000143e:	0250      	lsls	r0, r2, #9
10001440:	0d40      	lsrs	r0, r0, #21
10001442:	4301      	orrs	r1, r0
10001444:	8099      	strh	r1, [r3, #4]
10001446:	4914      	ldr	r1, [pc, #80]	; (10001498 <irq_remove_handler+0x1ac>)
10001448:	0852      	lsrs	r2, r2, #1
1000144a:	430a      	orrs	r2, r1
1000144c:	80da      	strh	r2, [r3, #6]
1000144e:	e793      	b.n	10001378 <irq_remove_handler+0x8c>
10001450:	2106      	movs	r1, #6
10001452:	5651      	ldrsb	r1, [r2, r1]
10001454:	0013      	movs	r3, r2
10001456:	2900      	cmp	r1, #0
10001458:	dab8      	bge.n	100013cc <irq_remove_handler+0xe0>
1000145a:	465a      	mov	r2, fp
1000145c:	2a00      	cmp	r2, #0
1000145e:	d1ea      	bne.n	10001436 <irq_remove_handler+0x14a>
10001460:	4645      	mov	r5, r8
10001462:	e7dc      	b.n	1000141e <irq_remove_handler+0x132>
10001464:	d0000124 	.word	0xd0000124
10001468:	e000ed00 	.word	0xe000ed00
1000146c:	100001cd 	.word	0x100001cd
10001470:	20000e38 	.word	0x20000e38
10001474:	e000e100 	.word	0xe000e100
10001478:	e000e180 	.word	0xe000e180
1000147c:	e000e280 	.word	0xe000e280
10001480:	20002115 	.word	0x20002115
10001484:	ffffbd01 	.word	0xffffbd01
10001488:	0000aaaa 	.word	0x0000aaaa
1000148c:	0000bd01 	.word	0x0000bd01
10001490:	20000e72 	.word	0x20000e72
10001494:	fffff000 	.word	0xfffff000
10001498:	fffff800 	.word	0xfffff800

1000149c <irq_add_tail_to_free_list>:
1000149c:	b570      	push	{r4, r5, r6, lr}
1000149e:	f3ef 8105 	mrs	r1, IPSR
100014a2:	2401      	movs	r4, #1
100014a4:	4304      	orrs	r4, r0
100014a6:	f3ef 8c10 	mrs	ip, PRIMASK
100014aa:	b672      	cpsid	i
100014ac:	4a21      	ldr	r2, [pc, #132]	; (10001534 <irq_add_tail_to_free_list+0x98>)
100014ae:	6813      	ldr	r3, [r2, #0]
100014b0:	2b00      	cmp	r3, #0
100014b2:	d0fc      	beq.n	100014ae <irq_add_tail_to_free_list+0x12>
100014b4:	f3bf 8f5f 	dmb	sy
100014b8:	4b1f      	ldr	r3, [pc, #124]	; (10001538 <irq_add_tail_to_free_list+0x9c>)
100014ba:	0005      	movs	r5, r0
100014bc:	4a1f      	ldr	r2, [pc, #124]	; (1000153c <irq_add_tail_to_free_list+0xa0>)
100014be:	1aed      	subs	r5, r5, r3
100014c0:	416d      	adcs	r5, r5
100014c2:	436a      	muls	r2, r5
100014c4:	0d12      	lsrs	r2, r2, #20
100014c6:	4d1e      	ldr	r5, [pc, #120]	; (10001540 <irq_add_tail_to_free_list+0xa4>)
100014c8:	0089      	lsls	r1, r1, #2
100014ca:	68ae      	ldr	r6, [r5, #8]
100014cc:	b252      	sxtb	r2, r2
100014ce:	5876      	ldr	r6, [r6, r1]
100014d0:	42a6      	cmp	r6, r4
100014d2:	d01c      	beq.n	1000150e <irq_add_tail_to_free_list+0x72>
100014d4:	2106      	movs	r1, #6
100014d6:	5659      	ldrsb	r1, [r3, r1]
100014d8:	4291      	cmp	r1, r2
100014da:	d01c      	beq.n	10001516 <irq_add_tail_to_free_list+0x7a>
100014dc:	2112      	movs	r1, #18
100014de:	5659      	ldrsb	r1, [r3, r1]
100014e0:	4291      	cmp	r1, r2
100014e2:	d022      	beq.n	1000152a <irq_add_tail_to_free_list+0x8e>
100014e4:	211e      	movs	r1, #30
100014e6:	5659      	ldrsb	r1, [r3, r1]
100014e8:	4291      	cmp	r1, r2
100014ea:	d020      	beq.n	1000152e <irq_add_tail_to_free_list+0x92>
100014ec:	212a      	movs	r1, #42	; 0x2a
100014ee:	5659      	ldrsb	r1, [r3, r1]
100014f0:	2403      	movs	r4, #3
100014f2:	4291      	cmp	r1, r2
100014f4:	d010      	beq.n	10001518 <irq_add_tail_to_free_list+0x7c>
100014f6:	4b13      	ldr	r3, [pc, #76]	; (10001544 <irq_add_tail_to_free_list+0xa8>)
100014f8:	7819      	ldrb	r1, [r3, #0]
100014fa:	701a      	strb	r2, [r3, #0]
100014fc:	7181      	strb	r1, [r0, #6]
100014fe:	f3bf 8f5f 	dmb	sy
10001502:	2200      	movs	r2, #0
10001504:	4b0b      	ldr	r3, [pc, #44]	; (10001534 <irq_add_tail_to_free_list+0x98>)
10001506:	601a      	str	r2, [r3, #0]
10001508:	f38c 8810 	msr	PRIMASK, ip
1000150c:	bd70      	pop	{r4, r5, r6, pc}
1000150e:	68ab      	ldr	r3, [r5, #8]
10001510:	4c0d      	ldr	r4, [pc, #52]	; (10001548 <irq_add_tail_to_free_list+0xac>)
10001512:	505c      	str	r4, [r3, r1]
10001514:	e7ef      	b.n	100014f6 <irq_add_tail_to_free_list+0x5a>
10001516:	2400      	movs	r4, #0
10001518:	0061      	lsls	r1, r4, #1
1000151a:	1909      	adds	r1, r1, r4
1000151c:	0089      	lsls	r1, r1, #2
1000151e:	185b      	adds	r3, r3, r1
10001520:	21ff      	movs	r1, #255	; 0xff
10001522:	7199      	strb	r1, [r3, #6]
10001524:	4909      	ldr	r1, [pc, #36]	; (1000154c <irq_add_tail_to_free_list+0xb0>)
10001526:	8099      	strh	r1, [r3, #4]
10001528:	e7e5      	b.n	100014f6 <irq_add_tail_to_free_list+0x5a>
1000152a:	2401      	movs	r4, #1
1000152c:	e7f4      	b.n	10001518 <irq_add_tail_to_free_list+0x7c>
1000152e:	2402      	movs	r4, #2
10001530:	e7f2      	b.n	10001518 <irq_add_tail_to_free_list+0x7c>
10001532:	46c0      	nop			; (mov r8, r8)
10001534:	d0000124 	.word	0xd0000124
10001538:	20000e38 	.word	0x20000e38
1000153c:	0000aaaa 	.word	0x0000aaaa
10001540:	e000ed00 	.word	0xe000ed00
10001544:	20002115 	.word	0x20002115
10001548:	100001cd 	.word	0x100001cd
1000154c:	ffffbd01 	.word	0xffffbd01

10001550 <irq_init_priorities>:
10001550:	4b05      	ldr	r3, [pc, #20]	; (10001568 <irq_init_priorities+0x18>)
10001552:	4a06      	ldr	r2, [pc, #24]	; (1000156c <irq_init_priorities+0x1c>)
10001554:	6013      	str	r3, [r2, #0]
10001556:	4a06      	ldr	r2, [pc, #24]	; (10001570 <irq_init_priorities+0x20>)
10001558:	6013      	str	r3, [r2, #0]
1000155a:	6053      	str	r3, [r2, #4]
1000155c:	6093      	str	r3, [r2, #8]
1000155e:	60d3      	str	r3, [r2, #12]
10001560:	6113      	str	r3, [r2, #16]
10001562:	6153      	str	r3, [r2, #20]
10001564:	6193      	str	r3, [r2, #24]
10001566:	4770      	bx	lr
10001568:	80808080 	.word	0x80808080
1000156c:	e000e400 	.word	0xe000e400
10001570:	e000e404 	.word	0xe000e404

10001574 <user_irq_claim_unused>:
10001574:	b500      	push	{lr}
10001576:	4b07      	ldr	r3, [pc, #28]	; (10001594 <user_irq_claim_unused+0x20>)
10001578:	b083      	sub	sp, #12
1000157a:	0001      	movs	r1, r0
1000157c:	9300      	str	r3, [sp, #0]
1000157e:	2200      	movs	r2, #0
10001580:	2305      	movs	r3, #5
10001582:	4805      	ldr	r0, [pc, #20]	; (10001598 <user_irq_claim_unused+0x24>)
10001584:	f7ff fce4 	bl	10000f50 <hw_claim_unused_from_range>
10001588:	2800      	cmp	r0, #0
1000158a:	db01      	blt.n	10001590 <user_irq_claim_unused+0x1c>
1000158c:	231f      	movs	r3, #31
1000158e:	1a18      	subs	r0, r3, r0
10001590:	b003      	add	sp, #12
10001592:	bd00      	pop	{pc}
10001594:	10007d1c 	.word	0x10007d1c
10001598:	2000211a 	.word	0x2000211a

1000159c <lock_init>:
1000159c:	4b02      	ldr	r3, [pc, #8]	; (100015a8 <lock_init+0xc>)
1000159e:	469c      	mov	ip, r3
100015a0:	4461      	add	r1, ip
100015a2:	0089      	lsls	r1, r1, #2
100015a4:	6001      	str	r1, [r0, #0]
100015a6:	4770      	bx	lr
100015a8:	34000040 	.word	0x34000040

100015ac <mutex_init>:
100015ac:	b510      	push	{r4, lr}
100015ae:	0004      	movs	r4, r0
100015b0:	f7ff fd2a 	bl	10001008 <next_striped_spin_lock_num>
100015b4:	0001      	movs	r1, r0
100015b6:	0020      	movs	r0, r4
100015b8:	f7ff fff0 	bl	1000159c <lock_init>
100015bc:	23ff      	movs	r3, #255	; 0xff
100015be:	7123      	strb	r3, [r4, #4]
100015c0:	f3bf 8f5f 	dmb	sy
100015c4:	bd10      	pop	{r4, pc}
100015c6:	46c0      	nop			; (mov r8, r8)

100015c8 <recursive_mutex_init>:
100015c8:	b510      	push	{r4, lr}
100015ca:	0004      	movs	r4, r0
100015cc:	f7ff fd1c 	bl	10001008 <next_striped_spin_lock_num>
100015d0:	0001      	movs	r1, r0
100015d2:	0020      	movs	r0, r4
100015d4:	f7ff ffe2 	bl	1000159c <lock_init>
100015d8:	23ff      	movs	r3, #255	; 0xff
100015da:	80a3      	strh	r3, [r4, #4]
100015dc:	f3bf 8f5f 	dmb	sy
100015e0:	bd10      	pop	{r4, pc}
100015e2:	46c0      	nop			; (mov r8, r8)

100015e4 <critical_section_init>:
100015e4:	b510      	push	{r4, lr}
100015e6:	0004      	movs	r4, r0
100015e8:	2001      	movs	r0, #1
100015ea:	f7ff fd19 	bl	10001020 <spin_lock_claim_unused>
100015ee:	4b04      	ldr	r3, [pc, #16]	; (10001600 <critical_section_init+0x1c>)
100015f0:	469c      	mov	ip, r3
100015f2:	4460      	add	r0, ip
100015f4:	0080      	lsls	r0, r0, #2
100015f6:	6020      	str	r0, [r4, #0]
100015f8:	f3bf 8f5f 	dmb	sy
100015fc:	bd10      	pop	{r4, pc}
100015fe:	46c0      	nop			; (mov r8, r8)
10001600:	34000040 	.word	0x34000040

10001604 <critical_section_init_with_lock_num>:
10001604:	4b03      	ldr	r3, [pc, #12]	; (10001614 <critical_section_init_with_lock_num+0x10>)
10001606:	469c      	mov	ip, r3
10001608:	4461      	add	r1, ip
1000160a:	0089      	lsls	r1, r1, #2
1000160c:	6001      	str	r1, [r0, #0]
1000160e:	f3bf 8f5f 	dmb	sy
10001612:	4770      	bx	lr
10001614:	34000040 	.word	0x34000040

10001618 <timer_pool_entry_comparator>:
10001618:	6883      	ldr	r3, [r0, #8]
1000161a:	480b      	ldr	r0, [pc, #44]	; (10001648 <timer_pool_entry_comparator+0x30>)
1000161c:	b510      	push	{r4, lr}
1000161e:	4684      	mov	ip, r0
10001620:	4461      	add	r1, ip
10001622:	4462      	add	r2, ip
10001624:	0109      	lsls	r1, r1, #4
10001626:	0112      	lsls	r2, r2, #4
10001628:	189a      	adds	r2, r3, r2
1000162a:	1859      	adds	r1, r3, r1
1000162c:	6854      	ldr	r4, [r2, #4]
1000162e:	684b      	ldr	r3, [r1, #4]
10001630:	2001      	movs	r0, #1
10001632:	429c      	cmp	r4, r3
10001634:	d801      	bhi.n	1000163a <timer_pool_entry_comparator+0x22>
10001636:	d002      	beq.n	1000163e <timer_pool_entry_comparator+0x26>
10001638:	2000      	movs	r0, #0
1000163a:	b2c0      	uxtb	r0, r0
1000163c:	bd10      	pop	{r4, pc}
1000163e:	6812      	ldr	r2, [r2, #0]
10001640:	680b      	ldr	r3, [r1, #0]
10001642:	429a      	cmp	r2, r3
10001644:	d8f9      	bhi.n	1000163a <timer_pool_entry_comparator+0x22>
10001646:	e7f7      	b.n	10001638 <timer_pool_entry_comparator+0x20>
10001648:	0fffffff 	.word	0x0fffffff

1000164c <sleep_until_callback>:
1000164c:	4b0a      	ldr	r3, [pc, #40]	; (10001678 <sleep_until_callback+0x2c>)
1000164e:	6819      	ldr	r1, [r3, #0]
10001650:	f3ef 8010 	mrs	r0, PRIMASK
10001654:	b672      	cpsid	i
10001656:	680a      	ldr	r2, [r1, #0]
10001658:	2a00      	cmp	r2, #0
1000165a:	d0fc      	beq.n	10001656 <sleep_until_callback+0xa>
1000165c:	f3bf 8f5f 	dmb	sy
10001660:	681b      	ldr	r3, [r3, #0]
10001662:	f3bf 8f5f 	dmb	sy
10001666:	2200      	movs	r2, #0
10001668:	601a      	str	r2, [r3, #0]
1000166a:	f380 8810 	msr	PRIMASK, r0
1000166e:	bf40      	sev
10001670:	2000      	movs	r0, #0
10001672:	2100      	movs	r1, #0
10001674:	4770      	bx	lr
10001676:	46c0      	nop			; (mov r8, r8)
10001678:	200020e4 	.word	0x200020e4

1000167c <add_alarm_under_lock.isra.0>:
1000167c:	b5f8      	push	{r3, r4, r5, r6, r7, lr}
1000167e:	4657      	mov	r7, sl
10001680:	464e      	mov	r6, r9
10001682:	4645      	mov	r5, r8
10001684:	46de      	mov	lr, fp
10001686:	b5e0      	push	{r5, r6, r7, lr}
10001688:	4699      	mov	r9, r3
1000168a:	ab0c      	add	r3, sp, #48	; 0x30
1000168c:	781c      	ldrb	r4, [r3, #0]
1000168e:	ab0d      	add	r3, sp, #52	; 0x34
10001690:	781b      	ldrb	r3, [r3, #0]
10001692:	0006      	movs	r6, r0
10001694:	4690      	mov	r8, r2
10001696:	469a      	mov	sl, r3
10001698:	6807      	ldr	r7, [r0, #0]
1000169a:	2c00      	cmp	r4, #0
1000169c:	d111      	bne.n	100016c2 <add_alarm_under_lock.isra.0+0x46>
1000169e:	7bbc      	ldrb	r4, [r7, #14]
100016a0:	2c00      	cmp	r4, #0
100016a2:	d042      	beq.n	1000172a <add_alarm_under_lock.isra.0+0xae>
100016a4:	0065      	lsls	r5, r4, #1
100016a6:	683b      	ldr	r3, [r7, #0]
100016a8:	192d      	adds	r5, r5, r4
100016aa:	3d03      	subs	r5, #3
100016ac:	1959      	adds	r1, r3, r5
100016ae:	784b      	ldrb	r3, [r1, #1]
100016b0:	73bb      	strb	r3, [r7, #14]
100016b2:	2b00      	cmp	r3, #0
100016b4:	d100      	bne.n	100016b8 <add_alarm_under_lock.isra.0+0x3c>
100016b6:	73fb      	strb	r3, [r7, #15]
100016b8:	2300      	movs	r3, #0
100016ba:	708b      	strb	r3, [r1, #2]
100016bc:	704b      	strb	r3, [r1, #1]
100016be:	700b      	strb	r3, [r1, #0]
100016c0:	e004      	b.n	100016cc <add_alarm_under_lock.isra.0+0x50>
100016c2:	0065      	lsls	r5, r4, #1
100016c4:	683b      	ldr	r3, [r7, #0]
100016c6:	192d      	adds	r5, r5, r4
100016c8:	3d03      	subs	r5, #3
100016ca:	1959      	adds	r1, r3, r5
100016cc:	68b2      	ldr	r2, [r6, #8]
100016ce:	4b2a      	ldr	r3, [pc, #168]	; (10001778 <add_alarm_under_lock.isra.0+0xfc>)
100016d0:	4694      	mov	ip, r2
100016d2:	4642      	mov	r2, r8
100016d4:	18e3      	adds	r3, r4, r3
100016d6:	011b      	lsls	r3, r3, #4
100016d8:	4463      	add	r3, ip
100016da:	601a      	str	r2, [r3, #0]
100016dc:	464a      	mov	r2, r9
100016de:	605a      	str	r2, [r3, #4]
100016e0:	9a0a      	ldr	r2, [sp, #40]	; 0x28
100016e2:	609a      	str	r2, [r3, #8]
100016e4:	9a0b      	ldr	r2, [sp, #44]	; 0x2c
100016e6:	60da      	str	r2, [r3, #12]
100016e8:	2300      	movs	r3, #0
100016ea:	708b      	strb	r3, [r1, #2]
100016ec:	704b      	strb	r3, [r1, #1]
100016ee:	700b      	strb	r3, [r1, #0]
100016f0:	7b7b      	ldrb	r3, [r7, #13]
100016f2:	469b      	mov	fp, r3
100016f4:	2b00      	cmp	r3, #0
100016f6:	d02b      	beq.n	10001750 <add_alarm_under_lock.isra.0+0xd4>
100016f8:	0022      	movs	r2, r4
100016fa:	4659      	mov	r1, fp
100016fc:	68b8      	ldr	r0, [r7, #8]
100016fe:	687b      	ldr	r3, [r7, #4]
10001700:	4798      	blx	r3
10001702:	683a      	ldr	r2, [r7, #0]
10001704:	2800      	cmp	r0, #0
10001706:	d016      	beq.n	10001736 <add_alarm_under_lock.isra.0+0xba>
10001708:	465b      	mov	r3, fp
1000170a:	4658      	mov	r0, fp
1000170c:	005b      	lsls	r3, r3, #1
1000170e:	445b      	add	r3, fp
10001710:	1955      	adds	r5, r2, r5
10001712:	3b03      	subs	r3, #3
10001714:	70a8      	strb	r0, [r5, #2]
10001716:	18d1      	adds	r1, r2, r3
10001718:	5cd3      	ldrb	r3, [r2, r3]
1000171a:	2b00      	cmp	r3, #0
1000171c:	d000      	beq.n	10001720 <add_alarm_under_lock.isra.0+0xa4>
1000171e:	706b      	strb	r3, [r5, #1]
10001720:	465b      	mov	r3, fp
10001722:	700c      	strb	r4, [r1, #0]
10001724:	737b      	strb	r3, [r7, #13]
10001726:	45a3      	cmp	fp, r4
10001728:	d013      	beq.n	10001752 <add_alarm_under_lock.isra.0+0xd6>
1000172a:	bcf0      	pop	{r4, r5, r6, r7}
1000172c:	46bb      	mov	fp, r7
1000172e:	46b2      	mov	sl, r6
10001730:	46a9      	mov	r9, r5
10001732:	46a0      	mov	r8, r4
10001734:	bdf8      	pop	{r3, r4, r5, r6, r7, pc}
10001736:	465b      	mov	r3, fp
10001738:	005b      	lsls	r3, r3, #1
1000173a:	445b      	add	r3, fp
1000173c:	3b03      	subs	r3, #3
1000173e:	18d3      	adds	r3, r2, r3
10001740:	709c      	strb	r4, [r3, #2]
10001742:	1951      	adds	r1, r2, r5
10001744:	5d52      	ldrb	r2, [r2, r5]
10001746:	2a00      	cmp	r2, #0
10001748:	d000      	beq.n	1000174c <add_alarm_under_lock.isra.0+0xd0>
1000174a:	705a      	strb	r2, [r3, #1]
1000174c:	465b      	mov	r3, fp
1000174e:	700b      	strb	r3, [r1, #0]
10001750:	737c      	strb	r4, [r7, #13]
10001752:	4642      	mov	r2, r8
10001754:	464b      	mov	r3, r9
10001756:	7d30      	ldrb	r0, [r6, #20]
10001758:	f000 fba2 	bl	10001ea0 <hardware_alarm_set_target>
1000175c:	1e05      	subs	r5, r0, #0
1000175e:	d006      	beq.n	1000176e <add_alarm_under_lock.isra.0+0xf2>
10001760:	4653      	mov	r3, sl
10001762:	2b00      	cmp	r3, #0
10001764:	d103      	bne.n	1000176e <add_alarm_under_lock.isra.0+0xf2>
10001766:	0021      	movs	r1, r4
10001768:	6830      	ldr	r0, [r6, #0]
1000176a:	f000 fdc3 	bl	100022f4 <ph_remove_and_free_node>
1000176e:	9b0e      	ldr	r3, [sp, #56]	; 0x38
10001770:	2b00      	cmp	r3, #0
10001772:	d0da      	beq.n	1000172a <add_alarm_under_lock.isra.0+0xae>
10001774:	701d      	strb	r5, [r3, #0]
10001776:	e7d8      	b.n	1000172a <add_alarm_under_lock.isra.0+0xae>
10001778:	0fffffff 	.word	0x0fffffff

1000177c <alarm_pool_alarm_callback>:
1000177c:	b5f0      	push	{r4, r5, r6, r7, lr}
1000177e:	46de      	mov	lr, fp
10001780:	4657      	mov	r7, sl
10001782:	464e      	mov	r6, r9
10001784:	4645      	mov	r5, r8
10001786:	2300      	movs	r3, #0
10001788:	b5e0      	push	{r5, r6, r7, lr}
1000178a:	b08b      	sub	sp, #44	; 0x2c
1000178c:	9308      	str	r3, [sp, #32]
1000178e:	4b66      	ldr	r3, [pc, #408]	; (10001928 <alarm_pool_alarm_callback+0x1ac>)
10001790:	0082      	lsls	r2, r0, #2
10001792:	58d4      	ldr	r4, [r2, r3]
10001794:	2300      	movs	r3, #0
10001796:	469b      	mov	fp, r3
10001798:	9009      	str	r0, [sp, #36]	; 0x24
1000179a:	f000 fb21 	bl	10001de0 <time_us_64>
1000179e:	6862      	ldr	r2, [r4, #4]
100017a0:	0006      	movs	r6, r0
100017a2:	000f      	movs	r7, r1
100017a4:	f3ef 8510 	mrs	r5, PRIMASK
100017a8:	b672      	cpsid	i
100017aa:	6813      	ldr	r3, [r2, #0]
100017ac:	2b00      	cmp	r3, #0
100017ae:	d0fc      	beq.n	100017aa <alarm_pool_alarm_callback+0x2e>
100017b0:	f3bf 8f5f 	dmb	sy
100017b4:	6823      	ldr	r3, [r4, #0]
100017b6:	469c      	mov	ip, r3
100017b8:	7b5b      	ldrb	r3, [r3, #13]
100017ba:	4699      	mov	r9, r3
100017bc:	2b00      	cmp	r3, #0
100017be:	d068      	beq.n	10001892 <alarm_pool_alarm_callback+0x116>
100017c0:	68a2      	ldr	r2, [r4, #8]
100017c2:	4b5a      	ldr	r3, [pc, #360]	; (1000192c <alarm_pool_alarm_callback+0x1b0>)
100017c4:	4690      	mov	r8, r2
100017c6:	444b      	add	r3, r9
100017c8:	011b      	lsls	r3, r3, #4
100017ca:	4498      	add	r8, r3
100017cc:	4643      	mov	r3, r8
100017ce:	681a      	ldr	r2, [r3, #0]
100017d0:	685b      	ldr	r3, [r3, #4]
100017d2:	0010      	movs	r0, r2
100017d4:	0019      	movs	r1, r3
100017d6:	1b80      	subs	r0, r0, r6
100017d8:	41b9      	sbcs	r1, r7
100017da:	2900      	cmp	r1, #0
100017dc:	dd63      	ble.n	100018a6 <alarm_pool_alarm_callback+0x12a>
100017de:	9809      	ldr	r0, [sp, #36]	; 0x24
100017e0:	f000 fb5e 	bl	10001ea0 <hardware_alarm_set_target>
100017e4:	2300      	movs	r3, #0
100017e6:	2200      	movs	r2, #0
100017e8:	4698      	mov	r8, r3
100017ea:	2300      	movs	r3, #0
100017ec:	9206      	str	r2, [sp, #24]
100017ee:	9307      	str	r3, [sp, #28]
100017f0:	2300      	movs	r3, #0
100017f2:	469a      	mov	sl, r3
100017f4:	6863      	ldr	r3, [r4, #4]
100017f6:	f3bf 8f5f 	dmb	sy
100017fa:	465a      	mov	r2, fp
100017fc:	601a      	str	r2, [r3, #0]
100017fe:	f385 8810 	msr	PRIMASK, r5
10001802:	4653      	mov	r3, sl
10001804:	2b00      	cmp	r3, #0
10001806:	d108      	bne.n	1000181a <alarm_pool_alarm_callback+0x9e>
10001808:	2800      	cmp	r0, #0
1000180a:	d1c6      	bne.n	1000179a <alarm_pool_alarm_callback+0x1e>
1000180c:	b00b      	add	sp, #44	; 0x2c
1000180e:	bcf0      	pop	{r4, r5, r6, r7}
10001810:	46bb      	mov	fp, r7
10001812:	46b2      	mov	sl, r6
10001814:	46a9      	mov	r9, r5
10001816:	46a0      	mov	r8, r4
10001818:	bdf0      	pop	{r4, r5, r6, r7, pc}
1000181a:	9b08      	ldr	r3, [sp, #32]
1000181c:	4641      	mov	r1, r8
1000181e:	0218      	lsls	r0, r3, #8
10001820:	464b      	mov	r3, r9
10001822:	4318      	orrs	r0, r3
10001824:	47d0      	blx	sl
10001826:	6862      	ldr	r2, [r4, #4]
10001828:	0006      	movs	r6, r0
1000182a:	000f      	movs	r7, r1
1000182c:	f3ef 8510 	mrs	r5, PRIMASK
10001830:	b672      	cpsid	i
10001832:	6813      	ldr	r3, [r2, #0]
10001834:	2b00      	cmp	r3, #0
10001836:	d0fc      	beq.n	10001832 <alarm_pool_alarm_callback+0xb6>
10001838:	f3bf 8f5f 	dmb	sy
1000183c:	2f00      	cmp	r7, #0
1000183e:	db4f      	blt.n	100018e0 <alarm_pool_alarm_callback+0x164>
10001840:	0033      	movs	r3, r6
10001842:	433b      	orrs	r3, r7
10001844:	d002      	beq.n	1000184c <alarm_pool_alarm_callback+0xd0>
10001846:	6923      	ldr	r3, [r4, #16]
10001848:	2b00      	cmp	r3, #0
1000184a:	d160      	bne.n	1000190e <alarm_pool_alarm_callback+0x192>
1000184c:	6823      	ldr	r3, [r4, #0]
1000184e:	7bd9      	ldrb	r1, [r3, #15]
10001850:	2900      	cmp	r1, #0
10001852:	d007      	beq.n	10001864 <alarm_pool_alarm_callback+0xe8>
10001854:	004a      	lsls	r2, r1, #1
10001856:	1852      	adds	r2, r2, r1
10001858:	6819      	ldr	r1, [r3, #0]
1000185a:	468c      	mov	ip, r1
1000185c:	4649      	mov	r1, r9
1000185e:	4462      	add	r2, ip
10001860:	3a03      	subs	r2, #3
10001862:	7051      	strb	r1, [r2, #1]
10001864:	7b9a      	ldrb	r2, [r3, #14]
10001866:	2a00      	cmp	r2, #0
10001868:	d101      	bne.n	1000186e <alarm_pool_alarm_callback+0xf2>
1000186a:	464a      	mov	r2, r9
1000186c:	739a      	strb	r2, [r3, #14]
1000186e:	464a      	mov	r2, r9
10001870:	73da      	strb	r2, [r3, #15]
10001872:	464b      	mov	r3, r9
10001874:	68e1      	ldr	r1, [r4, #12]
10001876:	3b01      	subs	r3, #1
10001878:	5cca      	ldrb	r2, [r1, r3]
1000187a:	3201      	adds	r2, #1
1000187c:	54ca      	strb	r2, [r1, r3]
1000187e:	465b      	mov	r3, fp
10001880:	6123      	str	r3, [r4, #16]
10001882:	6863      	ldr	r3, [r4, #4]
10001884:	f3bf 8f5f 	dmb	sy
10001888:	465a      	mov	r2, fp
1000188a:	601a      	str	r2, [r3, #0]
1000188c:	f385 8810 	msr	PRIMASK, r5
10001890:	e783      	b.n	1000179a <alarm_pool_alarm_callback+0x1e>
10001892:	2300      	movs	r3, #0
10001894:	2200      	movs	r2, #0
10001896:	4698      	mov	r8, r3
10001898:	2300      	movs	r3, #0
1000189a:	9206      	str	r2, [sp, #24]
1000189c:	9307      	str	r3, [sp, #28]
1000189e:	2300      	movs	r3, #0
100018a0:	2000      	movs	r0, #0
100018a2:	469a      	mov	sl, r3
100018a4:	e7a6      	b.n	100017f4 <alarm_pool_alarm_callback+0x78>
100018a6:	2900      	cmp	r1, #0
100018a8:	d101      	bne.n	100018ae <alarm_pool_alarm_callback+0x132>
100018aa:	2800      	cmp	r0, #0
100018ac:	d197      	bne.n	100017de <alarm_pool_alarm_callback+0x62>
100018ae:	2100      	movs	r1, #0
100018b0:	4660      	mov	r0, ip
100018b2:	f000 fc9d 	bl	100021f0 <ph_remove_head>
100018b6:	4643      	mov	r3, r8
100018b8:	681a      	ldr	r2, [r3, #0]
100018ba:	685b      	ldr	r3, [r3, #4]
100018bc:	9206      	str	r2, [sp, #24]
100018be:	9307      	str	r3, [sp, #28]
100018c0:	4643      	mov	r3, r8
100018c2:	689b      	ldr	r3, [r3, #8]
100018c4:	469a      	mov	sl, r3
100018c6:	4643      	mov	r3, r8
100018c8:	68db      	ldr	r3, [r3, #12]
100018ca:	4698      	mov	r8, r3
100018cc:	68e3      	ldr	r3, [r4, #12]
100018ce:	444b      	add	r3, r9
100018d0:	3b01      	subs	r3, #1
100018d2:	781b      	ldrb	r3, [r3, #0]
100018d4:	9308      	str	r3, [sp, #32]
100018d6:	021b      	lsls	r3, r3, #8
100018d8:	4303      	orrs	r3, r0
100018da:	6123      	str	r3, [r4, #16]
100018dc:	2000      	movs	r0, #0
100018de:	e789      	b.n	100017f4 <alarm_pool_alarm_callback+0x78>
100018e0:	6923      	ldr	r3, [r4, #16]
100018e2:	2b00      	cmp	r3, #0
100018e4:	d0b2      	beq.n	1000184c <alarm_pool_alarm_callback+0xd0>
100018e6:	9a06      	ldr	r2, [sp, #24]
100018e8:	9b07      	ldr	r3, [sp, #28]
100018ea:	1b92      	subs	r2, r2, r6
100018ec:	41bb      	sbcs	r3, r7
100018ee:	2b00      	cmp	r3, #0
100018f0:	db15      	blt.n	1000191e <alarm_pool_alarm_callback+0x1a2>
100018f2:	4659      	mov	r1, fp
100018f4:	9104      	str	r1, [sp, #16]
100018f6:	2101      	movs	r1, #1
100018f8:	9103      	str	r1, [sp, #12]
100018fa:	4649      	mov	r1, r9
100018fc:	9102      	str	r1, [sp, #8]
100018fe:	4641      	mov	r1, r8
10001900:	9101      	str	r1, [sp, #4]
10001902:	4651      	mov	r1, sl
10001904:	0020      	movs	r0, r4
10001906:	9100      	str	r1, [sp, #0]
10001908:	f7ff feb8 	bl	1000167c <add_alarm_under_lock.isra.0>
1000190c:	e7b7      	b.n	1000187e <alarm_pool_alarm_callback+0x102>
1000190e:	f000 fa67 	bl	10001de0 <time_us_64>
10001912:	0032      	movs	r2, r6
10001914:	003b      	movs	r3, r7
10001916:	1812      	adds	r2, r2, r0
10001918:	414b      	adcs	r3, r1
1000191a:	2b00      	cmp	r3, #0
1000191c:	dae9      	bge.n	100018f2 <alarm_pool_alarm_callback+0x176>
1000191e:	2201      	movs	r2, #1
10001920:	4b03      	ldr	r3, [pc, #12]	; (10001930 <alarm_pool_alarm_callback+0x1b4>)
10001922:	4252      	negs	r2, r2
10001924:	e7e5      	b.n	100018f2 <alarm_pool_alarm_callback+0x176>
10001926:	46c0      	nop			; (mov r8, r8)
10001928:	200020c8 	.word	0x200020c8
1000192c:	0fffffff 	.word	0x0fffffff
10001930:	7fffffff 	.word	0x7fffffff

10001934 <alarm_pool_init_default>:
10001934:	b510      	push	{r4, lr}
10001936:	4c14      	ldr	r4, [pc, #80]	; (10001988 <alarm_pool_init_default+0x54>)
10001938:	6863      	ldr	r3, [r4, #4]
1000193a:	2b00      	cmp	r3, #0
1000193c:	d004      	beq.n	10001948 <alarm_pool_init_default+0x14>
1000193e:	210a      	movs	r1, #10
10001940:	4812      	ldr	r0, [pc, #72]	; (1000198c <alarm_pool_init_default+0x58>)
10001942:	f7ff fe2b 	bl	1000159c <lock_init>
10001946:	bd10      	pop	{r4, pc}
10001948:	0023      	movs	r3, r4
1000194a:	4a11      	ldr	r2, [pc, #68]	; (10001990 <alarm_pool_init_default+0x5c>)
1000194c:	2110      	movs	r1, #16
1000194e:	6820      	ldr	r0, [r4, #0]
10001950:	f000 fb68 	bl	10002024 <ph_post_alloc_init>
10001954:	2003      	movs	r0, #3
10001956:	f000 fa37 	bl	10001dc8 <hardware_alarm_claim>
1000195a:	2003      	movs	r0, #3
1000195c:	f000 fb10 	bl	10001f80 <hardware_alarm_cancel>
10001960:	2003      	movs	r0, #3
10001962:	490c      	ldr	r1, [pc, #48]	; (10001994 <alarm_pool_init_default+0x60>)
10001964:	f000 fa56 	bl	10001e14 <hardware_alarm_set_callback>
10001968:	f7ff fb4e 	bl	10001008 <next_striped_spin_lock_num>
1000196c:	4b0a      	ldr	r3, [pc, #40]	; (10001998 <alarm_pool_init_default+0x64>)
1000196e:	469c      	mov	ip, r3
10001970:	2303      	movs	r3, #3
10001972:	7523      	strb	r3, [r4, #20]
10001974:	23d0      	movs	r3, #208	; 0xd0
10001976:	061b      	lsls	r3, r3, #24
10001978:	681b      	ldr	r3, [r3, #0]
1000197a:	4460      	add	r0, ip
1000197c:	7563      	strb	r3, [r4, #21]
1000197e:	4b07      	ldr	r3, [pc, #28]	; (1000199c <alarm_pool_init_default+0x68>)
10001980:	0080      	lsls	r0, r0, #2
10001982:	6060      	str	r0, [r4, #4]
10001984:	60dc      	str	r4, [r3, #12]
10001986:	e7da      	b.n	1000193e <alarm_pool_init_default+0xa>
10001988:	20000e80 	.word	0x20000e80
1000198c:	200020e4 	.word	0x200020e4
10001990:	10001619 	.word	0x10001619
10001994:	1000177d 	.word	0x1000177d
10001998:	34000040 	.word	0x34000040
1000199c:	200020c8 	.word	0x200020c8

100019a0 <alarm_pool_get_default>:
100019a0:	4800      	ldr	r0, [pc, #0]	; (100019a4 <alarm_pool_get_default+0x4>)
100019a2:	4770      	bx	lr
100019a4:	20000e80 	.word	0x20000e80

100019a8 <alarm_pool_add_alarm_at>:
100019a8:	b5f0      	push	{r4, r5, r6, r7, lr}
100019aa:	4657      	mov	r7, sl
100019ac:	464e      	mov	r6, r9
100019ae:	4645      	mov	r5, r8
100019b0:	46de      	mov	lr, fp
100019b2:	b5e0      	push	{r5, r6, r7, lr}
100019b4:	b085      	sub	sp, #20
100019b6:	9301      	str	r3, [sp, #4]
100019b8:	ab10      	add	r3, sp, #64	; 0x40
100019ba:	781b      	ldrb	r3, [r3, #0]
100019bc:	0006      	movs	r6, r0
100019be:	9303      	str	r3, [sp, #12]
100019c0:	2300      	movs	r3, #0
100019c2:	469a      	mov	sl, r3
100019c4:	4698      	mov	r8, r3
100019c6:	9200      	str	r2, [sp, #0]
100019c8:	6872      	ldr	r2, [r6, #4]
100019ca:	f3ef 8910 	mrs	r9, PRIMASK
100019ce:	b672      	cpsid	i
100019d0:	6813      	ldr	r3, [r2, #0]
100019d2:	2b00      	cmp	r3, #0
100019d4:	d0fc      	beq.n	100019d0 <alarm_pool_add_alarm_at+0x28>
100019d6:	f3bf 8f5f 	dmb	sy
100019da:	6835      	ldr	r5, [r6, #0]
100019dc:	7bac      	ldrb	r4, [r5, #14]
100019de:	2c00      	cmp	r4, #0
100019e0:	d049      	beq.n	10001a76 <alarm_pool_add_alarm_at+0xce>
100019e2:	0067      	lsls	r7, r4, #1
100019e4:	682b      	ldr	r3, [r5, #0]
100019e6:	193f      	adds	r7, r7, r4
100019e8:	3f03      	subs	r7, #3
100019ea:	19db      	adds	r3, r3, r7
100019ec:	785a      	ldrb	r2, [r3, #1]
100019ee:	73aa      	strb	r2, [r5, #14]
100019f0:	2a00      	cmp	r2, #0
100019f2:	d100      	bne.n	100019f6 <alarm_pool_add_alarm_at+0x4e>
100019f4:	73ea      	strb	r2, [r5, #15]
100019f6:	68b1      	ldr	r1, [r6, #8]
100019f8:	4a48      	ldr	r2, [pc, #288]	; (10001b1c <alarm_pool_add_alarm_at+0x174>)
100019fa:	468c      	mov	ip, r1
100019fc:	9800      	ldr	r0, [sp, #0]
100019fe:	9901      	ldr	r1, [sp, #4]
10001a00:	18a2      	adds	r2, r4, r2
10001a02:	0112      	lsls	r2, r2, #4
10001a04:	4462      	add	r2, ip
10001a06:	6010      	str	r0, [r2, #0]
10001a08:	6051      	str	r1, [r2, #4]
10001a0a:	990e      	ldr	r1, [sp, #56]	; 0x38
10001a0c:	6091      	str	r1, [r2, #8]
10001a0e:	990f      	ldr	r1, [sp, #60]	; 0x3c
10001a10:	60d1      	str	r1, [r2, #12]
10001a12:	4642      	mov	r2, r8
10001a14:	709a      	strb	r2, [r3, #2]
10001a16:	705a      	strb	r2, [r3, #1]
10001a18:	701a      	strb	r2, [r3, #0]
10001a1a:	7b6b      	ldrb	r3, [r5, #13]
10001a1c:	469b      	mov	fp, r3
10001a1e:	2b00      	cmp	r3, #0
10001a20:	d045      	beq.n	10001aae <alarm_pool_add_alarm_at+0x106>
10001a22:	0022      	movs	r2, r4
10001a24:	0019      	movs	r1, r3
10001a26:	68a8      	ldr	r0, [r5, #8]
10001a28:	686b      	ldr	r3, [r5, #4]
10001a2a:	4798      	blx	r3
10001a2c:	682a      	ldr	r2, [r5, #0]
10001a2e:	2800      	cmp	r0, #0
10001a30:	d030      	beq.n	10001a94 <alarm_pool_add_alarm_at+0xec>
10001a32:	465b      	mov	r3, fp
10001a34:	4658      	mov	r0, fp
10001a36:	005b      	lsls	r3, r3, #1
10001a38:	445b      	add	r3, fp
10001a3a:	19d7      	adds	r7, r2, r7
10001a3c:	3b03      	subs	r3, #3
10001a3e:	70b8      	strb	r0, [r7, #2]
10001a40:	18d1      	adds	r1, r2, r3
10001a42:	5cd3      	ldrb	r3, [r2, r3]
10001a44:	2b00      	cmp	r3, #0
10001a46:	d000      	beq.n	10001a4a <alarm_pool_add_alarm_at+0xa2>
10001a48:	707b      	strb	r3, [r7, #1]
10001a4a:	465b      	mov	r3, fp
10001a4c:	700c      	strb	r4, [r1, #0]
10001a4e:	736b      	strb	r3, [r5, #13]
10001a50:	455c      	cmp	r4, fp
10001a52:	d02d      	beq.n	10001ab0 <alarm_pool_add_alarm_at+0x108>
10001a54:	68f3      	ldr	r3, [r6, #12]
10001a56:	191b      	adds	r3, r3, r4
10001a58:	3b01      	subs	r3, #1
10001a5a:	7818      	ldrb	r0, [r3, #0]
10001a5c:	6873      	ldr	r3, [r6, #4]
10001a5e:	f3bf 8f5f 	dmb	sy
10001a62:	4642      	mov	r2, r8
10001a64:	601a      	str	r2, [r3, #0]
10001a66:	f389 8810 	msr	PRIMASK, r9
10001a6a:	4653      	mov	r3, sl
10001a6c:	2b00      	cmp	r3, #0
10001a6e:	d12c      	bne.n	10001aca <alarm_pool_add_alarm_at+0x122>
10001a70:	0200      	lsls	r0, r0, #8
10001a72:	4320      	orrs	r0, r4
10001a74:	e007      	b.n	10001a86 <alarm_pool_add_alarm_at+0xde>
10001a76:	6873      	ldr	r3, [r6, #4]
10001a78:	f3bf 8f5f 	dmb	sy
10001a7c:	601c      	str	r4, [r3, #0]
10001a7e:	f389 8810 	msr	PRIMASK, r9
10001a82:	2001      	movs	r0, #1
10001a84:	4240      	negs	r0, r0
10001a86:	b005      	add	sp, #20
10001a88:	bcf0      	pop	{r4, r5, r6, r7}
10001a8a:	46bb      	mov	fp, r7
10001a8c:	46b2      	mov	sl, r6
10001a8e:	46a9      	mov	r9, r5
10001a90:	46a0      	mov	r8, r4
10001a92:	bdf0      	pop	{r4, r5, r6, r7, pc}
10001a94:	465b      	mov	r3, fp
10001a96:	005b      	lsls	r3, r3, #1
10001a98:	445b      	add	r3, fp
10001a9a:	3b03      	subs	r3, #3
10001a9c:	18d3      	adds	r3, r2, r3
10001a9e:	709c      	strb	r4, [r3, #2]
10001aa0:	19d1      	adds	r1, r2, r7
10001aa2:	5dd2      	ldrb	r2, [r2, r7]
10001aa4:	2a00      	cmp	r2, #0
10001aa6:	d000      	beq.n	10001aaa <alarm_pool_add_alarm_at+0x102>
10001aa8:	705a      	strb	r2, [r3, #1]
10001aaa:	465b      	mov	r3, fp
10001aac:	700b      	strb	r3, [r1, #0]
10001aae:	736c      	strb	r4, [r5, #13]
10001ab0:	7d30      	ldrb	r0, [r6, #20]
10001ab2:	9a00      	ldr	r2, [sp, #0]
10001ab4:	9b01      	ldr	r3, [sp, #4]
10001ab6:	f000 f9f3 	bl	10001ea0 <hardware_alarm_set_target>
10001aba:	4682      	mov	sl, r0
10001abc:	2800      	cmp	r0, #0
10001abe:	d0c9      	beq.n	10001a54 <alarm_pool_add_alarm_at+0xac>
10001ac0:	0021      	movs	r1, r4
10001ac2:	6830      	ldr	r0, [r6, #0]
10001ac4:	f000 fc16 	bl	100022f4 <ph_remove_and_free_node>
10001ac8:	e7c4      	b.n	10001a54 <alarm_pool_add_alarm_at+0xac>
10001aca:	9b03      	ldr	r3, [sp, #12]
10001acc:	2b00      	cmp	r3, #0
10001ace:	d023      	beq.n	10001b18 <alarm_pool_add_alarm_at+0x170>
10001ad0:	9b0e      	ldr	r3, [sp, #56]	; 0x38
10001ad2:	2000      	movs	r0, #0
10001ad4:	990f      	ldr	r1, [sp, #60]	; 0x3c
10001ad6:	4798      	blx	r3
10001ad8:	0003      	movs	r3, r0
10001ada:	0004      	movs	r4, r0
10001adc:	000d      	movs	r5, r1
10001ade:	430b      	orrs	r3, r1
10001ae0:	d01a      	beq.n	10001b18 <alarm_pool_add_alarm_at+0x170>
10001ae2:	2900      	cmp	r1, #0
10001ae4:	da0a      	bge.n	10001afc <alarm_pool_add_alarm_at+0x154>
10001ae6:	9a00      	ldr	r2, [sp, #0]
10001ae8:	9b01      	ldr	r3, [sp, #4]
10001aea:	1b12      	subs	r2, r2, r4
10001aec:	41ab      	sbcs	r3, r5
10001aee:	9200      	str	r2, [sp, #0]
10001af0:	9301      	str	r3, [sp, #4]
10001af2:	2b00      	cmp	r3, #0
10001af4:	db0a      	blt.n	10001b0c <alarm_pool_add_alarm_at+0x164>
10001af6:	9b03      	ldr	r3, [sp, #12]
10001af8:	469a      	mov	sl, r3
10001afa:	e765      	b.n	100019c8 <alarm_pool_add_alarm_at+0x20>
10001afc:	f000 f970 	bl	10001de0 <time_us_64>
10001b00:	1824      	adds	r4, r4, r0
10001b02:	414d      	adcs	r5, r1
10001b04:	9400      	str	r4, [sp, #0]
10001b06:	9501      	str	r5, [sp, #4]
10001b08:	2d00      	cmp	r5, #0
10001b0a:	daf4      	bge.n	10001af6 <alarm_pool_add_alarm_at+0x14e>
10001b0c:	2301      	movs	r3, #1
10001b0e:	4c04      	ldr	r4, [pc, #16]	; (10001b20 <alarm_pool_add_alarm_at+0x178>)
10001b10:	425b      	negs	r3, r3
10001b12:	9300      	str	r3, [sp, #0]
10001b14:	9401      	str	r4, [sp, #4]
10001b16:	e7ee      	b.n	10001af6 <alarm_pool_add_alarm_at+0x14e>
10001b18:	2000      	movs	r0, #0
10001b1a:	e7b4      	b.n	10001a86 <alarm_pool_add_alarm_at+0xde>
10001b1c:	0fffffff 	.word	0x0fffffff
10001b20:	7fffffff 	.word	0x7fffffff

10001b24 <alarm_pool_cancel_alarm>:
10001b24:	b570      	push	{r4, r5, r6, lr}
10001b26:	6842      	ldr	r2, [r0, #4]
10001b28:	0004      	movs	r4, r0
10001b2a:	f3ef 8510 	mrs	r5, PRIMASK
10001b2e:	b672      	cpsid	i
10001b30:	6813      	ldr	r3, [r2, #0]
10001b32:	2b00      	cmp	r3, #0
10001b34:	d0fc      	beq.n	10001b30 <alarm_pool_cancel_alarm+0xc>
10001b36:	f3bf 8f5f 	dmb	sy
10001b3a:	6820      	ldr	r0, [r4, #0]
10001b3c:	b2ce      	uxtb	r6, r1
10001b3e:	7b43      	ldrb	r3, [r0, #13]
10001b40:	42b3      	cmp	r3, r6
10001b42:	d00a      	beq.n	10001b5a <alarm_pool_cancel_alarm+0x36>
10001b44:	23ff      	movs	r3, #255	; 0xff
10001b46:	400b      	ands	r3, r1
10001b48:	005a      	lsls	r2, r3, #1
10001b4a:	18d3      	adds	r3, r2, r3
10001b4c:	6802      	ldr	r2, [r0, #0]
10001b4e:	4694      	mov	ip, r2
10001b50:	4463      	add	r3, ip
10001b52:	3b03      	subs	r3, #3
10001b54:	789b      	ldrb	r3, [r3, #2]
10001b56:	2b00      	cmp	r3, #0
10001b58:	d013      	beq.n	10001b82 <alarm_pool_cancel_alarm+0x5e>
10001b5a:	68e2      	ldr	r2, [r4, #12]
10001b5c:	23ff      	movs	r3, #255	; 0xff
10001b5e:	4694      	mov	ip, r2
10001b60:	400b      	ands	r3, r1
10001b62:	4463      	add	r3, ip
10001b64:	3b01      	subs	r3, #1
10001b66:	0a0a      	lsrs	r2, r1, #8
10001b68:	7819      	ldrb	r1, [r3, #0]
10001b6a:	b2d2      	uxtb	r2, r2
10001b6c:	4291      	cmp	r1, r2
10001b6e:	d00e      	beq.n	10001b8e <alarm_pool_cancel_alarm+0x6a>
10001b70:	2000      	movs	r0, #0
10001b72:	6863      	ldr	r3, [r4, #4]
10001b74:	f3bf 8f5f 	dmb	sy
10001b78:	2200      	movs	r2, #0
10001b7a:	601a      	str	r2, [r3, #0]
10001b7c:	f385 8810 	msr	PRIMASK, r5
10001b80:	bd70      	pop	{r4, r5, r6, pc}
10001b82:	6922      	ldr	r2, [r4, #16]
10001b84:	428a      	cmp	r2, r1
10001b86:	d1f3      	bne.n	10001b70 <alarm_pool_cancel_alarm+0x4c>
10001b88:	2000      	movs	r0, #0
10001b8a:	6123      	str	r3, [r4, #16]
10001b8c:	e7f1      	b.n	10001b72 <alarm_pool_cancel_alarm+0x4e>
10001b8e:	0031      	movs	r1, r6
10001b90:	f000 fbb0 	bl	100022f4 <ph_remove_and_free_node>
10001b94:	e7ed      	b.n	10001b72 <alarm_pool_cancel_alarm+0x4e>
10001b96:	46c0      	nop			; (mov r8, r8)

10001b98 <alarm_pool_core_num>:
10001b98:	7d40      	ldrb	r0, [r0, #21]
10001b9a:	4770      	bx	lr

10001b9c <sleep_until>:
10001b9c:	b5f0      	push	{r4, r5, r6, r7, lr}
10001b9e:	0004      	movs	r4, r0
10001ba0:	000d      	movs	r5, r1
10001ba2:	2606      	movs	r6, #6
10001ba4:	4276      	negs	r6, r6
10001ba6:	17f7      	asrs	r7, r6, #31
10001ba8:	46c6      	mov	lr, r8
10001baa:	1936      	adds	r6, r6, r4
10001bac:	416f      	adcs	r7, r5
10001bae:	b500      	push	{lr}
10001bb0:	b084      	sub	sp, #16
10001bb2:	428f      	cmp	r7, r1
10001bb4:	d814      	bhi.n	10001be0 <sleep_until+0x44>
10001bb6:	d011      	beq.n	10001bdc <sleep_until+0x40>
10001bb8:	f000 f912 	bl	10001de0 <time_us_64>
10001bbc:	0032      	movs	r2, r6
10001bbe:	003b      	movs	r3, r7
10001bc0:	1a12      	subs	r2, r2, r0
10001bc2:	418b      	sbcs	r3, r1
10001bc4:	2b00      	cmp	r3, #0
10001bc6:	dc15      	bgt.n	10001bf4 <sleep_until+0x58>
10001bc8:	2b00      	cmp	r3, #0
10001bca:	d03e      	beq.n	10001c4a <sleep_until+0xae>
10001bcc:	0020      	movs	r0, r4
10001bce:	0029      	movs	r1, r5
10001bd0:	f000 f910 	bl	10001df4 <busy_wait_until>
10001bd4:	b004      	add	sp, #16
10001bd6:	bc80      	pop	{r7}
10001bd8:	46b8      	mov	r8, r7
10001bda:	bdf0      	pop	{r4, r5, r6, r7, pc}
10001bdc:	4286      	cmp	r6, r0
10001bde:	d9eb      	bls.n	10001bb8 <sleep_until+0x1c>
10001be0:	2600      	movs	r6, #0
10001be2:	2700      	movs	r7, #0
10001be4:	f000 f8fc 	bl	10001de0 <time_us_64>
10001be8:	0032      	movs	r2, r6
10001bea:	003b      	movs	r3, r7
10001bec:	1a12      	subs	r2, r2, r0
10001bee:	418b      	sbcs	r3, r1
10001bf0:	2b00      	cmp	r3, #0
10001bf2:	dde9      	ble.n	10001bc8 <sleep_until+0x2c>
10001bf4:	2300      	movs	r3, #0
10001bf6:	9302      	str	r3, [sp, #8]
10001bf8:	9301      	str	r3, [sp, #4]
10001bfa:	4b15      	ldr	r3, [pc, #84]	; (10001c50 <sleep_until+0xb4>)
10001bfc:	0032      	movs	r2, r6
10001bfe:	9300      	str	r3, [sp, #0]
10001c00:	4814      	ldr	r0, [pc, #80]	; (10001c54 <sleep_until+0xb8>)
10001c02:	003b      	movs	r3, r7
10001c04:	f7ff fed0 	bl	100019a8 <alarm_pool_add_alarm_at>
10001c08:	2800      	cmp	r0, #0
10001c0a:	dbdf      	blt.n	10001bcc <sleep_until+0x30>
10001c0c:	2300      	movs	r3, #0
10001c0e:	4698      	mov	r8, r3
10001c10:	46bc      	mov	ip, r7
10001c12:	4a11      	ldr	r2, [pc, #68]	; (10001c58 <sleep_until+0xbc>)
10001c14:	4f11      	ldr	r7, [pc, #68]	; (10001c5c <sleep_until+0xc0>)
10001c16:	6a7b      	ldr	r3, [r7, #36]	; 0x24
10001c18:	459c      	cmp	ip, r3
10001c1a:	d804      	bhi.n	10001c26 <sleep_until+0x8a>
10001c1c:	6ab9      	ldr	r1, [r7, #40]	; 0x28
10001c1e:	428e      	cmp	r6, r1
10001c20:	d9d4      	bls.n	10001bcc <sleep_until+0x30>
10001c22:	459c      	cmp	ip, r3
10001c24:	d1d2      	bne.n	10001bcc <sleep_until+0x30>
10001c26:	6811      	ldr	r1, [r2, #0]
10001c28:	f3ef 8010 	mrs	r0, PRIMASK
10001c2c:	b672      	cpsid	i
10001c2e:	680b      	ldr	r3, [r1, #0]
10001c30:	2b00      	cmp	r3, #0
10001c32:	d0fc      	beq.n	10001c2e <sleep_until+0x92>
10001c34:	f3bf 8f5f 	dmb	sy
10001c38:	6813      	ldr	r3, [r2, #0]
10001c3a:	f3bf 8f5f 	dmb	sy
10001c3e:	4641      	mov	r1, r8
10001c40:	6019      	str	r1, [r3, #0]
10001c42:	f380 8810 	msr	PRIMASK, r0
10001c46:	bf20      	wfe
10001c48:	e7e5      	b.n	10001c16 <sleep_until+0x7a>
10001c4a:	2a00      	cmp	r2, #0
10001c4c:	d0be      	beq.n	10001bcc <sleep_until+0x30>
10001c4e:	e7d1      	b.n	10001bf4 <sleep_until+0x58>
10001c50:	1000164d 	.word	0x1000164d
10001c54:	20000e80 	.word	0x20000e80
10001c58:	200020e4 	.word	0x200020e4
10001c5c:	40054000 	.word	0x40054000

10001c60 <sleep_ms>:
10001c60:	b570      	push	{r4, r5, r6, lr}
10001c62:	0006      	movs	r6, r0
10001c64:	f000 f8bc 	bl	10001de0 <time_us_64>
10001c68:	22fa      	movs	r2, #250	; 0xfa
10001c6a:	0004      	movs	r4, r0
10001c6c:	000d      	movs	r5, r1
10001c6e:	2300      	movs	r3, #0
10001c70:	0030      	movs	r0, r6
10001c72:	2100      	movs	r1, #0
10001c74:	0092      	lsls	r2, r2, #2
10001c76:	f003 f827 	bl	10004cc8 <__wrap___aeabi_lmul>
10001c7a:	1900      	adds	r0, r0, r4
10001c7c:	4169      	adcs	r1, r5
10001c7e:	2900      	cmp	r1, #0
10001c80:	db02      	blt.n	10001c88 <sleep_ms+0x28>
10001c82:	f7ff ff8b 	bl	10001b9c <sleep_until>
10001c86:	bd70      	pop	{r4, r5, r6, pc}
10001c88:	2001      	movs	r0, #1
10001c8a:	4901      	ldr	r1, [pc, #4]	; (10001c90 <sleep_ms+0x30>)
10001c8c:	4240      	negs	r0, r0
10001c8e:	e7f8      	b.n	10001c82 <sleep_ms+0x22>
10001c90:	7fffffff 	.word	0x7fffffff

10001c94 <best_effort_wfe_or_timeout>:
10001c94:	b570      	push	{r4, r5, r6, lr}
10001c96:	f3ef 8305 	mrs	r3, IPSR
10001c9a:	0005      	movs	r5, r0
10001c9c:	000c      	movs	r4, r1
10001c9e:	b084      	sub	sp, #16
10001ca0:	2b00      	cmp	r3, #0
10001ca2:	d00a      	beq.n	10001cba <best_effort_wfe_or_timeout+0x26>
10001ca4:	4a16      	ldr	r2, [pc, #88]	; (10001d00 <best_effort_wfe_or_timeout+0x6c>)
10001ca6:	2000      	movs	r0, #0
10001ca8:	6a53      	ldr	r3, [r2, #36]	; 0x24
10001caa:	429c      	cmp	r4, r3
10001cac:	d803      	bhi.n	10001cb6 <best_effort_wfe_or_timeout+0x22>
10001cae:	6a92      	ldr	r2, [r2, #40]	; 0x28
10001cb0:	3001      	adds	r0, #1
10001cb2:	42aa      	cmp	r2, r5
10001cb4:	d31f      	bcc.n	10001cf6 <best_effort_wfe_or_timeout+0x62>
10001cb6:	b004      	add	sp, #16
10001cb8:	bd70      	pop	{r4, r5, r6, pc}
10001cba:	4e12      	ldr	r6, [pc, #72]	; (10001d04 <best_effort_wfe_or_timeout+0x70>)
10001cbc:	9302      	str	r3, [sp, #8]
10001cbe:	9301      	str	r3, [sp, #4]
10001cc0:	4b11      	ldr	r3, [pc, #68]	; (10001d08 <best_effort_wfe_or_timeout+0x74>)
10001cc2:	0002      	movs	r2, r0
10001cc4:	9300      	str	r3, [sp, #0]
10001cc6:	0030      	movs	r0, r6
10001cc8:	000b      	movs	r3, r1
10001cca:	f7ff fe6d 	bl	100019a8 <alarm_pool_add_alarm_at>
10001cce:	1e01      	subs	r1, r0, #0
10001cd0:	dde8      	ble.n	10001ca4 <best_effort_wfe_or_timeout+0x10>
10001cd2:	bf20      	wfe
10001cd4:	0030      	movs	r0, r6
10001cd6:	f7ff ff25 	bl	10001b24 <alarm_pool_cancel_alarm>
10001cda:	4b09      	ldr	r3, [pc, #36]	; (10001d00 <best_effort_wfe_or_timeout+0x6c>)
10001cdc:	2000      	movs	r0, #0
10001cde:	6a59      	ldr	r1, [r3, #36]	; 0x24
10001ce0:	428c      	cmp	r4, r1
10001ce2:	d8e8      	bhi.n	10001cb6 <best_effort_wfe_or_timeout+0x22>
10001ce4:	6a9b      	ldr	r3, [r3, #40]	; 0x28
10001ce6:	3001      	adds	r0, #1
10001ce8:	42ab      	cmp	r3, r5
10001cea:	d2e4      	bcs.n	10001cb6 <best_effort_wfe_or_timeout+0x22>
10001cec:	1a64      	subs	r4, r4, r1
10001cee:	1e63      	subs	r3, r4, #1
10001cf0:	419c      	sbcs	r4, r3
10001cf2:	b2e0      	uxtb	r0, r4
10001cf4:	e7df      	b.n	10001cb6 <best_effort_wfe_or_timeout+0x22>
10001cf6:	1ae4      	subs	r4, r4, r3
10001cf8:	1e63      	subs	r3, r4, #1
10001cfa:	419c      	sbcs	r4, r3
10001cfc:	b2e0      	uxtb	r0, r4
10001cfe:	e7da      	b.n	10001cb6 <best_effort_wfe_or_timeout+0x22>
10001d00:	40054000 	.word	0x40054000
10001d04:	20000e80 	.word	0x20000e80
10001d08:	1000164d 	.word	0x1000164d

10001d0c <hardware_alarm_irq_handler>:
10001d0c:	b5f0      	push	{r4, r5, r6, r7, lr}
10001d0e:	f3ef 8205 	mrs	r2, IPSR
10001d12:	46d6      	mov	lr, sl
10001d14:	464f      	mov	r7, r9
10001d16:	4646      	mov	r6, r8
10001d18:	0010      	movs	r0, r2
10001d1a:	b5c0      	push	{r6, r7, lr}
10001d1c:	3810      	subs	r0, #16
10001d1e:	f3ef 8810 	mrs	r8, PRIMASK
10001d22:	b672      	cpsid	i
10001d24:	4c21      	ldr	r4, [pc, #132]	; (10001dac <hardware_alarm_irq_handler+0xa0>)
10001d26:	6823      	ldr	r3, [r4, #0]
10001d28:	2b00      	cmp	r3, #0
10001d2a:	d0fc      	beq.n	10001d26 <hardware_alarm_irq_handler+0x1a>
10001d2c:	f3bf 8f5f 	dmb	sy
10001d30:	2301      	movs	r3, #1
10001d32:	0019      	movs	r1, r3
10001d34:	4081      	lsls	r1, r0
10001d36:	4d1e      	ldr	r5, [pc, #120]	; (10001db0 <hardware_alarm_irq_handler+0xa4>)
10001d38:	001f      	movs	r7, r3
10001d3a:	6369      	str	r1, [r5, #52]	; 0x34
10001d3c:	46aa      	mov	sl, r5
10001d3e:	4d1d      	ldr	r5, [pc, #116]	; (10001db4 <hardware_alarm_irq_handler+0xa8>)
10001d40:	6029      	str	r1, [r5, #0]
10001d42:	4d1d      	ldr	r5, [pc, #116]	; (10001db8 <hardware_alarm_irq_handler+0xac>)
10001d44:	782e      	ldrb	r6, [r5, #0]
10001d46:	46ac      	mov	ip, r5
10001d48:	0035      	movs	r5, r6
10001d4a:	40c5      	lsrs	r5, r0
10001d4c:	402f      	ands	r7, r5
10001d4e:	422b      	tst	r3, r5
10001d50:	d109      	bne.n	10001d66 <hardware_alarm_irq_handler+0x5a>
10001d52:	f3bf 8f5f 	dmb	sy
10001d56:	6027      	str	r7, [r4, #0]
10001d58:	f388 8810 	msr	PRIMASK, r8
10001d5c:	bce0      	pop	{r5, r6, r7}
10001d5e:	46ba      	mov	sl, r7
10001d60:	46b1      	mov	r9, r6
10001d62:	46a8      	mov	r8, r5
10001d64:	bdf0      	pop	{r4, r5, r6, r7, pc}
10001d66:	4653      	mov	r3, sl
10001d68:	4d14      	ldr	r5, [pc, #80]	; (10001dbc <hardware_alarm_irq_handler+0xb0>)
10001d6a:	6a5f      	ldr	r7, [r3, #36]	; 0x24
10001d6c:	0083      	lsls	r3, r0, #2
10001d6e:	595d      	ldr	r5, [r3, r5]
10001d70:	42af      	cmp	r7, r5
10001d72:	d30e      	bcc.n	10001d92 <hardware_alarm_irq_handler+0x86>
10001d74:	4a12      	ldr	r2, [pc, #72]	; (10001dc0 <hardware_alarm_irq_handler+0xb4>)
10001d76:	438e      	bics	r6, r1
10001d78:	589b      	ldr	r3, [r3, r2]
10001d7a:	4662      	mov	r2, ip
10001d7c:	7016      	strb	r6, [r2, #0]
10001d7e:	f3bf 8f5f 	dmb	sy
10001d82:	2200      	movs	r2, #0
10001d84:	6022      	str	r2, [r4, #0]
10001d86:	f388 8810 	msr	PRIMASK, r8
10001d8a:	2b00      	cmp	r3, #0
10001d8c:	d0e6      	beq.n	10001d5c <hardware_alarm_irq_handler+0x50>
10001d8e:	4798      	blx	r3
10001d90:	e7e4      	b.n	10001d5c <hardware_alarm_irq_handler+0x50>
10001d92:	4b0c      	ldr	r3, [pc, #48]	; (10001dc4 <hardware_alarm_irq_handler+0xb8>)
10001d94:	0092      	lsls	r2, r2, #2
10001d96:	469c      	mov	ip, r3
10001d98:	4462      	add	r2, ip
10001d9a:	6813      	ldr	r3, [r2, #0]
10001d9c:	6013      	str	r3, [r2, #0]
10001d9e:	f3bf 8f5f 	dmb	sy
10001da2:	2300      	movs	r3, #0
10001da4:	6023      	str	r3, [r4, #0]
10001da6:	f388 8810 	msr	PRIMASK, r8
10001daa:	e7d7      	b.n	10001d5c <hardware_alarm_irq_handler+0x50>
10001dac:	d0000128 	.word	0xd0000128
10001db0:	40054000 	.word	0x40054000
10001db4:	4005703c 	.word	0x4005703c
10001db8:	20002119 	.word	0x20002119
10001dbc:	200020f0 	.word	0x200020f0
10001dc0:	20001ad8 	.word	0x20001ad8
10001dc4:	40053fd0 	.word	0x40053fd0

10001dc8 <hardware_alarm_claim>:
10001dc8:	b510      	push	{r4, lr}
10001dca:	0001      	movs	r1, r0
10001dcc:	4a02      	ldr	r2, [pc, #8]	; (10001dd8 <hardware_alarm_claim+0x10>)
10001dce:	4803      	ldr	r0, [pc, #12]	; (10001ddc <hardware_alarm_claim+0x14>)
10001dd0:	f7ff f89c 	bl	10000f0c <hw_claim_or_assert>
10001dd4:	bd10      	pop	{r4, pc}
10001dd6:	46c0      	nop			; (mov r8, r8)
10001dd8:	10007d38 	.word	0x10007d38
10001ddc:	20002114 	.word	0x20002114

10001de0 <time_us_64>:
10001de0:	4b03      	ldr	r3, [pc, #12]	; (10001df0 <time_us_64+0x10>)
10001de2:	6a59      	ldr	r1, [r3, #36]	; 0x24
10001de4:	000a      	movs	r2, r1
10001de6:	6a98      	ldr	r0, [r3, #40]	; 0x28
10001de8:	6a59      	ldr	r1, [r3, #36]	; 0x24
10001dea:	428a      	cmp	r2, r1
10001dec:	d1fa      	bne.n	10001de4 <time_us_64+0x4>
10001dee:	4770      	bx	lr
10001df0:	40054000 	.word	0x40054000

10001df4 <busy_wait_until>:
10001df4:	4a06      	ldr	r2, [pc, #24]	; (10001e10 <busy_wait_until+0x1c>)
10001df6:	6a53      	ldr	r3, [r2, #36]	; 0x24
10001df8:	4299      	cmp	r1, r3
10001dfa:	d8fc      	bhi.n	10001df6 <busy_wait_until+0x2>
10001dfc:	d107      	bne.n	10001e0e <busy_wait_until+0x1a>
10001dfe:	4b04      	ldr	r3, [pc, #16]	; (10001e10 <busy_wait_until+0x1c>)
10001e00:	e002      	b.n	10001e08 <busy_wait_until+0x14>
10001e02:	6a5a      	ldr	r2, [r3, #36]	; 0x24
10001e04:	4291      	cmp	r1, r2
10001e06:	d102      	bne.n	10001e0e <busy_wait_until+0x1a>
10001e08:	6a9a      	ldr	r2, [r3, #40]	; 0x28
10001e0a:	4282      	cmp	r2, r0
10001e0c:	d3f9      	bcc.n	10001e02 <busy_wait_until+0xe>
10001e0e:	4770      	bx	lr
10001e10:	40054000 	.word	0x40054000

10001e14 <hardware_alarm_set_callback>:
10001e14:	b570      	push	{r4, r5, r6, lr}
10001e16:	0004      	movs	r4, r0
10001e18:	000d      	movs	r5, r1
10001e1a:	f3ef 8610 	mrs	r6, PRIMASK
10001e1e:	b672      	cpsid	i
10001e20:	4a1a      	ldr	r2, [pc, #104]	; (10001e8c <hardware_alarm_set_callback+0x78>)
10001e22:	6813      	ldr	r3, [r2, #0]
10001e24:	2b00      	cmp	r3, #0
10001e26:	d0fc      	beq.n	10001e22 <hardware_alarm_set_callback+0xe>
10001e28:	f3bf 8f5f 	dmb	sy
10001e2c:	2d00      	cmp	r5, #0
10001e2e:	d01b      	beq.n	10001e68 <hardware_alarm_set_callback+0x54>
10001e30:	0020      	movs	r0, r4
10001e32:	f7ff f935 	bl	100010a0 <irq_get_vtable_handler>
10001e36:	4916      	ldr	r1, [pc, #88]	; (10001e90 <hardware_alarm_set_callback+0x7c>)
10001e38:	4281      	cmp	r1, r0
10001e3a:	d00a      	beq.n	10001e52 <hardware_alarm_set_callback+0x3e>
10001e3c:	0020      	movs	r0, r4
10001e3e:	f7ff f937 	bl	100010b0 <irq_set_exclusive_handler>
10001e42:	2101      	movs	r1, #1
10001e44:	0020      	movs	r0, r4
10001e46:	f7ff f8fb 	bl	10001040 <irq_set_enabled>
10001e4a:	2301      	movs	r3, #1
10001e4c:	40a3      	lsls	r3, r4
10001e4e:	4a11      	ldr	r2, [pc, #68]	; (10001e94 <hardware_alarm_set_callback+0x80>)
10001e50:	6013      	str	r3, [r2, #0]
10001e52:	4b11      	ldr	r3, [pc, #68]	; (10001e98 <hardware_alarm_set_callback+0x84>)
10001e54:	00a4      	lsls	r4, r4, #2
10001e56:	50e5      	str	r5, [r4, r3]
10001e58:	f3bf 8f5f 	dmb	sy
10001e5c:	2200      	movs	r2, #0
10001e5e:	4b0b      	ldr	r3, [pc, #44]	; (10001e8c <hardware_alarm_set_callback+0x78>)
10001e60:	601a      	str	r2, [r3, #0]
10001e62:	f386 8810 	msr	PRIMASK, r6
10001e66:	bd70      	pop	{r4, r5, r6, pc}
10001e68:	4b0b      	ldr	r3, [pc, #44]	; (10001e98 <hardware_alarm_set_callback+0x84>)
10001e6a:	00a2      	lsls	r2, r4, #2
10001e6c:	50d5      	str	r5, [r2, r3]
10001e6e:	2201      	movs	r2, #1
10001e70:	40a2      	lsls	r2, r4
10001e72:	490a      	ldr	r1, [pc, #40]	; (10001e9c <hardware_alarm_set_callback+0x88>)
10001e74:	0020      	movs	r0, r4
10001e76:	780b      	ldrb	r3, [r1, #0]
10001e78:	4393      	bics	r3, r2
10001e7a:	700b      	strb	r3, [r1, #0]
10001e7c:	4904      	ldr	r1, [pc, #16]	; (10001e90 <hardware_alarm_set_callback+0x7c>)
10001e7e:	f7ff fa35 	bl	100012ec <irq_remove_handler>
10001e82:	2100      	movs	r1, #0
10001e84:	0020      	movs	r0, r4
10001e86:	f7ff f8db 	bl	10001040 <irq_set_enabled>
10001e8a:	e7e5      	b.n	10001e58 <hardware_alarm_set_callback+0x44>
10001e8c:	d0000128 	.word	0xd0000128
10001e90:	10001d0d 	.word	0x10001d0d
10001e94:	40056038 	.word	0x40056038
10001e98:	20001ad8 	.word	0x20001ad8
10001e9c:	20002119 	.word	0x20002119

10001ea0 <hardware_alarm_set_target>:
10001ea0:	b5f0      	push	{r4, r5, r6, r7, lr}
10001ea2:	464f      	mov	r7, r9
10001ea4:	46d6      	mov	lr, sl
10001ea6:	4646      	mov	r6, r8
10001ea8:	b5c0      	push	{r6, r7, lr}
10001eaa:	0007      	movs	r7, r0
10001eac:	4c2f      	ldr	r4, [pc, #188]	; (10001f6c <hardware_alarm_set_target+0xcc>)
10001eae:	6a61      	ldr	r1, [r4, #36]	; 0x24
10001eb0:	000d      	movs	r5, r1
10001eb2:	6aa6      	ldr	r6, [r4, #40]	; 0x28
10001eb4:	6a61      	ldr	r1, [r4, #36]	; 0x24
10001eb6:	42a9      	cmp	r1, r5
10001eb8:	d1fa      	bne.n	10001eb0 <hardware_alarm_set_target+0x10>
10001eba:	428b      	cmp	r3, r1
10001ebc:	d808      	bhi.n	10001ed0 <hardware_alarm_set_target+0x30>
10001ebe:	d005      	beq.n	10001ecc <hardware_alarm_set_target+0x2c>
10001ec0:	2001      	movs	r0, #1
10001ec2:	bce0      	pop	{r5, r6, r7}
10001ec4:	46ba      	mov	sl, r7
10001ec6:	46b1      	mov	r9, r6
10001ec8:	46a8      	mov	r8, r5
10001eca:	bdf0      	pop	{r4, r5, r6, r7, pc}
10001ecc:	42b2      	cmp	r2, r6
10001ece:	d9f7      	bls.n	10001ec0 <hardware_alarm_set_target+0x20>
10001ed0:	f3ef 8a10 	mrs	sl, PRIMASK
10001ed4:	b672      	cpsid	i
10001ed6:	4826      	ldr	r0, [pc, #152]	; (10001f70 <hardware_alarm_set_target+0xd0>)
10001ed8:	6801      	ldr	r1, [r0, #0]
10001eda:	2900      	cmp	r1, #0
10001edc:	d0fc      	beq.n	10001ed8 <hardware_alarm_set_target+0x38>
10001ede:	f3bf 8f5f 	dmb	sy
10001ee2:	2501      	movs	r5, #1
10001ee4:	40bd      	lsls	r5, r7
10001ee6:	4923      	ldr	r1, [pc, #140]	; (10001f74 <hardware_alarm_set_target+0xd4>)
10001ee8:	4c20      	ldr	r4, [pc, #128]	; (10001f6c <hardware_alarm_set_target+0xcc>)
10001eea:	4688      	mov	r8, r1
10001eec:	7809      	ldrb	r1, [r1, #0]
10001eee:	4689      	mov	r9, r1
10001ef0:	4329      	orrs	r1, r5
10001ef2:	b2c9      	uxtb	r1, r1
10001ef4:	468c      	mov	ip, r1
10001ef6:	4641      	mov	r1, r8
10001ef8:	4660      	mov	r0, ip
10001efa:	7008      	strb	r0, [r1, #0]
10001efc:	1d39      	adds	r1, r7, #4
10001efe:	481e      	ldr	r0, [pc, #120]	; (10001f78 <hardware_alarm_set_target+0xd8>)
10001f00:	0089      	lsls	r1, r1, #2
10001f02:	6365      	str	r5, [r4, #52]	; 0x34
10001f04:	510a      	str	r2, [r1, r4]
10001f06:	00b9      	lsls	r1, r7, #2
10001f08:	500b      	str	r3, [r1, r0]
10001f0a:	6a21      	ldr	r1, [r4, #32]
10001f0c:	2000      	movs	r0, #0
10001f0e:	4229      	tst	r1, r5
10001f10:	d019      	beq.n	10001f46 <hardware_alarm_set_target+0xa6>
10001f12:	6a61      	ldr	r1, [r4, #36]	; 0x24
10001f14:	0008      	movs	r0, r1
10001f16:	6aa6      	ldr	r6, [r4, #40]	; 0x28
10001f18:	6a61      	ldr	r1, [r4, #36]	; 0x24
10001f1a:	4281      	cmp	r1, r0
10001f1c:	d1fa      	bne.n	10001f14 <hardware_alarm_set_target+0x74>
10001f1e:	428b      	cmp	r3, r1
10001f20:	d819      	bhi.n	10001f56 <hardware_alarm_set_target+0xb6>
10001f22:	d101      	bne.n	10001f28 <hardware_alarm_set_target+0x88>
10001f24:	42b2      	cmp	r2, r6
10001f26:	d816      	bhi.n	10001f56 <hardware_alarm_set_target+0xb6>
10001f28:	45cc      	cmp	ip, r9
10001f2a:	d01d      	beq.n	10001f68 <hardware_alarm_set_target+0xc8>
10001f2c:	4b0f      	ldr	r3, [pc, #60]	; (10001f6c <hardware_alarm_set_target+0xcc>)
10001f2e:	201f      	movs	r0, #31
10001f30:	621d      	str	r5, [r3, #32]
10001f32:	635d      	str	r5, [r3, #52]	; 0x34
10001f34:	2301      	movs	r3, #1
10001f36:	4007      	ands	r7, r0
10001f38:	40bb      	lsls	r3, r7
10001f3a:	4a10      	ldr	r2, [pc, #64]	; (10001f7c <hardware_alarm_set_target+0xdc>)
10001f3c:	381e      	subs	r0, #30
10001f3e:	6013      	str	r3, [r2, #0]
10001f40:	4643      	mov	r3, r8
10001f42:	464a      	mov	r2, r9
10001f44:	701a      	strb	r2, [r3, #0]
10001f46:	f3bf 8f5f 	dmb	sy
10001f4a:	2200      	movs	r2, #0
10001f4c:	4b08      	ldr	r3, [pc, #32]	; (10001f70 <hardware_alarm_set_target+0xd0>)
10001f4e:	601a      	str	r2, [r3, #0]
10001f50:	f38a 8810 	msr	PRIMASK, sl
10001f54:	e7b5      	b.n	10001ec2 <hardware_alarm_set_target+0x22>
10001f56:	2000      	movs	r0, #0
10001f58:	f3bf 8f5f 	dmb	sy
10001f5c:	2200      	movs	r2, #0
10001f5e:	4b04      	ldr	r3, [pc, #16]	; (10001f70 <hardware_alarm_set_target+0xd0>)
10001f60:	601a      	str	r2, [r3, #0]
10001f62:	f38a 8810 	msr	PRIMASK, sl
10001f66:	e7ac      	b.n	10001ec2 <hardware_alarm_set_target+0x22>
10001f68:	2001      	movs	r0, #1
10001f6a:	e7ec      	b.n	10001f46 <hardware_alarm_set_target+0xa6>
10001f6c:	40054000 	.word	0x40054000
10001f70:	d0000128 	.word	0xd0000128
10001f74:	20002119 	.word	0x20002119
10001f78:	200020f0 	.word	0x200020f0
10001f7c:	e000e280 	.word	0xe000e280

10001f80 <hardware_alarm_cancel>:
10001f80:	f3ef 8c10 	mrs	ip, PRIMASK
10001f84:	b672      	cpsid	i
10001f86:	490a      	ldr	r1, [pc, #40]	; (10001fb0 <hardware_alarm_cancel+0x30>)
10001f88:	680b      	ldr	r3, [r1, #0]
10001f8a:	2b00      	cmp	r3, #0
10001f8c:	d0fc      	beq.n	10001f88 <hardware_alarm_cancel+0x8>
10001f8e:	f3bf 8f5f 	dmb	sy
10001f92:	2301      	movs	r3, #1
10001f94:	4083      	lsls	r3, r0
10001f96:	4a07      	ldr	r2, [pc, #28]	; (10001fb4 <hardware_alarm_cancel+0x34>)
10001f98:	4807      	ldr	r0, [pc, #28]	; (10001fb8 <hardware_alarm_cancel+0x38>)
10001f9a:	6213      	str	r3, [r2, #32]
10001f9c:	7802      	ldrb	r2, [r0, #0]
10001f9e:	439a      	bics	r2, r3
10001fa0:	7002      	strb	r2, [r0, #0]
10001fa2:	f3bf 8f5f 	dmb	sy
10001fa6:	2300      	movs	r3, #0
10001fa8:	600b      	str	r3, [r1, #0]
10001faa:	f38c 8810 	msr	PRIMASK, ip
10001fae:	4770      	bx	lr
10001fb0:	d0000128 	.word	0xd0000128
10001fb4:	40054000 	.word	0x40054000
10001fb8:	20002119 	.word	0x20002119

10001fbc <ph_merge_nodes>:
10001fbc:	b570      	push	{r4, r5, r6, lr}
10001fbe:	0005      	movs	r5, r0
10001fc0:	0014      	movs	r4, r2
10001fc2:	0016      	movs	r6, r2
10001fc4:	2900      	cmp	r1, #0
10001fc6:	d015      	beq.n	10001ff4 <ph_merge_nodes+0x38>
10001fc8:	000c      	movs	r4, r1
10001fca:	2a00      	cmp	r2, #0
10001fcc:	d012      	beq.n	10001ff4 <ph_merge_nodes+0x38>
10001fce:	6880      	ldr	r0, [r0, #8]
10001fd0:	686b      	ldr	r3, [r5, #4]
10001fd2:	4798      	blx	r3
10001fd4:	6829      	ldr	r1, [r5, #0]
10001fd6:	2800      	cmp	r0, #0
10001fd8:	d00e      	beq.n	10001ff8 <ph_merge_nodes+0x3c>
10001fda:	0073      	lsls	r3, r6, #1
10001fdc:	199b      	adds	r3, r3, r6
10001fde:	0062      	lsls	r2, r4, #1
10001fe0:	3b03      	subs	r3, #3
10001fe2:	1912      	adds	r2, r2, r4
10001fe4:	18cb      	adds	r3, r1, r3
10001fe6:	3a03      	subs	r2, #3
10001fe8:	709c      	strb	r4, [r3, #2]
10001fea:	1888      	adds	r0, r1, r2
10001fec:	5c8a      	ldrb	r2, [r1, r2]
10001fee:	2a00      	cmp	r2, #0
10001ff0:	d115      	bne.n	1000201e <ph_merge_nodes+0x62>
10001ff2:	7006      	strb	r6, [r0, #0]
10001ff4:	0020      	movs	r0, r4
10001ff6:	bd70      	pop	{r4, r5, r6, pc}
10001ff8:	0063      	lsls	r3, r4, #1
10001ffa:	191b      	adds	r3, r3, r4
10001ffc:	0072      	lsls	r2, r6, #1
10001ffe:	3b03      	subs	r3, #3
10002000:	1992      	adds	r2, r2, r6
10002002:	18cb      	adds	r3, r1, r3
10002004:	3a03      	subs	r2, #3
10002006:	709e      	strb	r6, [r3, #2]
10002008:	1888      	adds	r0, r1, r2
1000200a:	5c8a      	ldrb	r2, [r1, r2]
1000200c:	2a00      	cmp	r2, #0
1000200e:	d102      	bne.n	10002016 <ph_merge_nodes+0x5a>
10002010:	7004      	strb	r4, [r0, #0]
10002012:	0034      	movs	r4, r6
10002014:	e7ee      	b.n	10001ff4 <ph_merge_nodes+0x38>
10002016:	705a      	strb	r2, [r3, #1]
10002018:	7004      	strb	r4, [r0, #0]
1000201a:	0034      	movs	r4, r6
1000201c:	e7ea      	b.n	10001ff4 <ph_merge_nodes+0x38>
1000201e:	705a      	strb	r2, [r3, #1]
10002020:	7006      	strb	r6, [r0, #0]
10002022:	e7e7      	b.n	10001ff4 <ph_merge_nodes+0x38>

10002024 <ph_post_alloc_init>:
10002024:	b530      	push	{r4, r5, lr}
10002026:	6083      	str	r3, [r0, #8]
10002028:	2300      	movs	r3, #0
1000202a:	b2cc      	uxtb	r4, r1
1000202c:	7343      	strb	r3, [r0, #13]
1000202e:	3301      	adds	r3, #1
10002030:	7304      	strb	r4, [r0, #12]
10002032:	6042      	str	r2, [r0, #4]
10002034:	7383      	strb	r3, [r0, #14]
10002036:	73c4      	strb	r4, [r0, #15]
10002038:	000d      	movs	r5, r1
1000203a:	6800      	ldr	r0, [r0, #0]
1000203c:	2c01      	cmp	r4, #1
1000203e:	d906      	bls.n	1000204e <ph_post_alloc_init+0x2a>
10002040:	1c42      	adds	r2, r0, #1
10002042:	3301      	adds	r3, #1
10002044:	b2db      	uxtb	r3, r3
10002046:	7013      	strb	r3, [r2, #0]
10002048:	3203      	adds	r2, #3
1000204a:	429c      	cmp	r4, r3
1000204c:	d1f9      	bne.n	10002042 <ph_post_alloc_init+0x1e>
1000204e:	21ff      	movs	r1, #255	; 0xff
10002050:	4029      	ands	r1, r5
10002052:	004b      	lsls	r3, r1, #1
10002054:	1859      	adds	r1, r3, r1
10002056:	2300      	movs	r3, #0
10002058:	1840      	adds	r0, r0, r1
1000205a:	3803      	subs	r0, #3
1000205c:	7043      	strb	r3, [r0, #1]
1000205e:	bd30      	pop	{r4, r5, pc}

10002060 <ph_merge_two_pass>:
10002060:	b5f8      	push	{r3, r4, r5, r6, r7, lr}
10002062:	46ce      	mov	lr, r9
10002064:	4647      	mov	r7, r8
10002066:	0006      	movs	r6, r0
10002068:	000c      	movs	r4, r1
1000206a:	b580      	push	{r7, lr}
1000206c:	2900      	cmp	r1, #0
1000206e:	d007      	beq.n	10002080 <ph_merge_two_pass+0x20>
10002070:	004d      	lsls	r5, r1, #1
10002072:	6803      	ldr	r3, [r0, #0]
10002074:	186d      	adds	r5, r5, r1
10002076:	3d03      	subs	r5, #3
10002078:	195a      	adds	r2, r3, r5
1000207a:	7857      	ldrb	r7, [r2, #1]
1000207c:	2f00      	cmp	r7, #0
1000207e:	d104      	bne.n	1000208a <ph_merge_two_pass+0x2a>
10002080:	0020      	movs	r0, r4
10002082:	bcc0      	pop	{r6, r7}
10002084:	46b9      	mov	r9, r7
10002086:	46b0      	mov	r8, r6
10002088:	bdf8      	pop	{r3, r4, r5, r6, r7, pc}
1000208a:	0079      	lsls	r1, r7, #1
1000208c:	19c9      	adds	r1, r1, r7
1000208e:	3903      	subs	r1, #3
10002090:	4688      	mov	r8, r1
10002092:	4443      	add	r3, r8
10002094:	7859      	ldrb	r1, [r3, #1]
10002096:	4689      	mov	r9, r1
10002098:	2100      	movs	r1, #0
1000209a:	7059      	strb	r1, [r3, #1]
1000209c:	7051      	strb	r1, [r2, #1]
1000209e:	6873      	ldr	r3, [r6, #4]
100020a0:	003a      	movs	r2, r7
100020a2:	0021      	movs	r1, r4
100020a4:	6880      	ldr	r0, [r0, #8]
100020a6:	4798      	blx	r3
100020a8:	6833      	ldr	r3, [r6, #0]
100020aa:	2800      	cmp	r0, #0
100020ac:	d014      	beq.n	100020d8 <ph_merge_two_pass+0x78>
100020ae:	4642      	mov	r2, r8
100020b0:	189a      	adds	r2, r3, r2
100020b2:	7094      	strb	r4, [r2, #2]
100020b4:	1959      	adds	r1, r3, r5
100020b6:	5d5b      	ldrb	r3, [r3, r5]
100020b8:	2b00      	cmp	r3, #0
100020ba:	d000      	beq.n	100020be <ph_merge_two_pass+0x5e>
100020bc:	7053      	strb	r3, [r2, #1]
100020be:	700f      	strb	r7, [r1, #0]
100020c0:	0027      	movs	r7, r4
100020c2:	4649      	mov	r1, r9
100020c4:	0030      	movs	r0, r6
100020c6:	f7ff ffcb 	bl	10002060 <ph_merge_two_pass>
100020ca:	0039      	movs	r1, r7
100020cc:	0002      	movs	r2, r0
100020ce:	0030      	movs	r0, r6
100020d0:	f7ff ff74 	bl	10001fbc <ph_merge_nodes>
100020d4:	0004      	movs	r4, r0
100020d6:	e7d3      	b.n	10002080 <ph_merge_two_pass+0x20>
100020d8:	4642      	mov	r2, r8
100020da:	4641      	mov	r1, r8
100020dc:	195d      	adds	r5, r3, r5
100020de:	70af      	strb	r7, [r5, #2]
100020e0:	189a      	adds	r2, r3, r2
100020e2:	5c5b      	ldrb	r3, [r3, r1]
100020e4:	2b00      	cmp	r3, #0
100020e6:	d000      	beq.n	100020ea <ph_merge_two_pass+0x8a>
100020e8:	706b      	strb	r3, [r5, #1]
100020ea:	7014      	strb	r4, [r2, #0]
100020ec:	e7e9      	b.n	100020c2 <ph_merge_two_pass+0x62>
100020ee:	46c0      	nop			; (mov r8, r8)

100020f0 <ph_remove_any_head>:
100020f0:	b5f0      	push	{r4, r5, r6, r7, lr}
100020f2:	4657      	mov	r7, sl
100020f4:	4645      	mov	r5, r8
100020f6:	46de      	mov	lr, fp
100020f8:	464e      	mov	r6, r9
100020fa:	b5e0      	push	{r5, r6, r7, lr}
100020fc:	000d      	movs	r5, r1
100020fe:	006b      	lsls	r3, r5, #1
10002100:	6801      	ldr	r1, [r0, #0]
10002102:	195b      	adds	r3, r3, r5
10002104:	1edf      	subs	r7, r3, #3
10002106:	0004      	movs	r4, r0
10002108:	5dc8      	ldrb	r0, [r1, r7]
1000210a:	b083      	sub	sp, #12
1000210c:	9201      	str	r2, [sp, #4]
1000210e:	19ca      	adds	r2, r1, r7
10002110:	2800      	cmp	r0, #0
10002112:	d050      	beq.n	100021b6 <ph_remove_any_head+0xc6>
10002114:	0043      	lsls	r3, r0, #1
10002116:	181b      	adds	r3, r3, r0
10002118:	3b03      	subs	r3, #3
1000211a:	18cb      	adds	r3, r1, r3
1000211c:	785e      	ldrb	r6, [r3, #1]
1000211e:	46b4      	mov	ip, r6
10002120:	2e00      	cmp	r6, #0
10002122:	d11a      	bne.n	1000215a <ph_remove_any_head+0x6a>
10002124:	9e01      	ldr	r6, [sp, #4]
10002126:	2e00      	cmp	r6, #0
10002128:	d042      	beq.n	100021b0 <ph_remove_any_head+0xc0>
1000212a:	7be6      	ldrb	r6, [r4, #15]
1000212c:	2e00      	cmp	r6, #0
1000212e:	d004      	beq.n	1000213a <ph_remove_any_head+0x4a>
10002130:	0073      	lsls	r3, r6, #1
10002132:	199b      	adds	r3, r3, r6
10002134:	18cb      	adds	r3, r1, r3
10002136:	3b03      	subs	r3, #3
10002138:	705d      	strb	r5, [r3, #1]
1000213a:	7ba3      	ldrb	r3, [r4, #14]
1000213c:	2b00      	cmp	r3, #0
1000213e:	d100      	bne.n	10002142 <ph_remove_any_head+0x52>
10002140:	73a5      	strb	r5, [r4, #14]
10002142:	73e5      	strb	r5, [r4, #15]
10002144:	2800      	cmp	r0, #0
10002146:	d12f      	bne.n	100021a8 <ph_remove_any_head+0xb8>
10002148:	2300      	movs	r3, #0
1000214a:	7053      	strb	r3, [r2, #1]
1000214c:	b003      	add	sp, #12
1000214e:	bcf0      	pop	{r4, r5, r6, r7}
10002150:	46bb      	mov	fp, r7
10002152:	46b2      	mov	sl, r6
10002154:	46a9      	mov	r9, r5
10002156:	46a0      	mov	r8, r4
10002158:	bdf0      	pop	{r4, r5, r6, r7, pc}
1000215a:	0072      	lsls	r2, r6, #1
1000215c:	4462      	add	r2, ip
1000215e:	3a03      	subs	r2, #3
10002160:	1889      	adds	r1, r1, r2
10002162:	784a      	ldrb	r2, [r1, #1]
10002164:	4690      	mov	r8, r2
10002166:	2200      	movs	r2, #0
10002168:	704a      	strb	r2, [r1, #1]
1000216a:	4691      	mov	r9, r2
1000216c:	705a      	strb	r2, [r3, #1]
1000216e:	0001      	movs	r1, r0
10002170:	0032      	movs	r2, r6
10002172:	0020      	movs	r0, r4
10002174:	f7ff ff22 	bl	10001fbc <ph_merge_nodes>
10002178:	4643      	mov	r3, r8
1000217a:	4682      	mov	sl, r0
1000217c:	2b00      	cmp	r3, #0
1000217e:	d007      	beq.n	10002190 <ph_remove_any_head+0xa0>
10002180:	005b      	lsls	r3, r3, #1
10002182:	6821      	ldr	r1, [r4, #0]
10002184:	4443      	add	r3, r8
10002186:	3b03      	subs	r3, #3
10002188:	18cb      	adds	r3, r1, r3
1000218a:	785a      	ldrb	r2, [r3, #1]
1000218c:	2a00      	cmp	r2, #0
1000218e:	d116      	bne.n	100021be <ph_remove_any_head+0xce>
10002190:	4642      	mov	r2, r8
10002192:	4651      	mov	r1, sl
10002194:	0020      	movs	r0, r4
10002196:	f7ff ff11 	bl	10001fbc <ph_merge_nodes>
1000219a:	6821      	ldr	r1, [r4, #0]
1000219c:	9b01      	ldr	r3, [sp, #4]
1000219e:	19ca      	adds	r2, r1, r7
100021a0:	2b00      	cmp	r3, #0
100021a2:	d1c2      	bne.n	1000212a <ph_remove_any_head+0x3a>
100021a4:	2800      	cmp	r0, #0
100021a6:	d0cf      	beq.n	10002148 <ph_remove_any_head+0x58>
100021a8:	0043      	lsls	r3, r0, #1
100021aa:	181b      	adds	r3, r3, r0
100021ac:	3b03      	subs	r3, #3
100021ae:	18cb      	adds	r3, r1, r3
100021b0:	2100      	movs	r1, #0
100021b2:	7099      	strb	r1, [r3, #2]
100021b4:	e7c8      	b.n	10002148 <ph_remove_any_head+0x58>
100021b6:	9b01      	ldr	r3, [sp, #4]
100021b8:	2b00      	cmp	r3, #0
100021ba:	d1b6      	bne.n	1000212a <ph_remove_any_head+0x3a>
100021bc:	e7c4      	b.n	10002148 <ph_remove_any_head+0x58>
100021be:	0050      	lsls	r0, r2, #1
100021c0:	1880      	adds	r0, r0, r2
100021c2:	3803      	subs	r0, #3
100021c4:	1809      	adds	r1, r1, r0
100021c6:	7848      	ldrb	r0, [r1, #1]
100021c8:	4683      	mov	fp, r0
100021ca:	4648      	mov	r0, r9
100021cc:	7048      	strb	r0, [r1, #1]
100021ce:	7058      	strb	r0, [r3, #1]
100021d0:	4641      	mov	r1, r8
100021d2:	0020      	movs	r0, r4
100021d4:	f7ff fef2 	bl	10001fbc <ph_merge_nodes>
100021d8:	4659      	mov	r1, fp
100021da:	4680      	mov	r8, r0
100021dc:	0020      	movs	r0, r4
100021de:	f7ff ff3f 	bl	10002060 <ph_merge_two_pass>
100021e2:	4641      	mov	r1, r8
100021e4:	0002      	movs	r2, r0
100021e6:	0020      	movs	r0, r4
100021e8:	f7ff fee8 	bl	10001fbc <ph_merge_nodes>
100021ec:	4680      	mov	r8, r0
100021ee:	e7cf      	b.n	10002190 <ph_remove_any_head+0xa0>

100021f0 <ph_remove_head>:
100021f0:	b5f0      	push	{r4, r5, r6, r7, lr}
100021f2:	4657      	mov	r7, sl
100021f4:	4645      	mov	r5, r8
100021f6:	46de      	mov	lr, fp
100021f8:	464e      	mov	r6, r9
100021fa:	b5e0      	push	{r5, r6, r7, lr}
100021fc:	b083      	sub	sp, #12
100021fe:	9101      	str	r1, [sp, #4]
10002200:	7b45      	ldrb	r5, [r0, #13]
10002202:	0004      	movs	r4, r0
10002204:	006b      	lsls	r3, r5, #1
10002206:	6800      	ldr	r0, [r0, #0]
10002208:	195b      	adds	r3, r3, r5
1000220a:	1edf      	subs	r7, r3, #3
1000220c:	5dc1      	ldrb	r1, [r0, r7]
1000220e:	19c2      	adds	r2, r0, r7
10002210:	2900      	cmp	r1, #0
10002212:	d052      	beq.n	100022ba <ph_remove_head+0xca>
10002214:	004b      	lsls	r3, r1, #1
10002216:	185b      	adds	r3, r3, r1
10002218:	3b03      	subs	r3, #3
1000221a:	18c3      	adds	r3, r0, r3
1000221c:	785e      	ldrb	r6, [r3, #1]
1000221e:	46b4      	mov	ip, r6
10002220:	2e00      	cmp	r6, #0
10002222:	d11c      	bne.n	1000225e <ph_remove_head+0x6e>
10002224:	9e01      	ldr	r6, [sp, #4]
10002226:	2e00      	cmp	r6, #0
10002228:	d044      	beq.n	100022b4 <ph_remove_head+0xc4>
1000222a:	7be6      	ldrb	r6, [r4, #15]
1000222c:	2e00      	cmp	r6, #0
1000222e:	d004      	beq.n	1000223a <ph_remove_head+0x4a>
10002230:	0073      	lsls	r3, r6, #1
10002232:	199b      	adds	r3, r3, r6
10002234:	18c3      	adds	r3, r0, r3
10002236:	3b03      	subs	r3, #3
10002238:	705d      	strb	r5, [r3, #1]
1000223a:	7ba3      	ldrb	r3, [r4, #14]
1000223c:	2b00      	cmp	r3, #0
1000223e:	d100      	bne.n	10002242 <ph_remove_head+0x52>
10002240:	73a5      	strb	r5, [r4, #14]
10002242:	73e5      	strb	r5, [r4, #15]
10002244:	2900      	cmp	r1, #0
10002246:	d131      	bne.n	100022ac <ph_remove_head+0xbc>
10002248:	2300      	movs	r3, #0
1000224a:	0028      	movs	r0, r5
1000224c:	7053      	strb	r3, [r2, #1]
1000224e:	7361      	strb	r1, [r4, #13]
10002250:	b003      	add	sp, #12
10002252:	bcf0      	pop	{r4, r5, r6, r7}
10002254:	46bb      	mov	fp, r7
10002256:	46b2      	mov	sl, r6
10002258:	46a9      	mov	r9, r5
1000225a:	46a0      	mov	r8, r4
1000225c:	bdf0      	pop	{r4, r5, r6, r7, pc}
1000225e:	0072      	lsls	r2, r6, #1
10002260:	4462      	add	r2, ip
10002262:	3a03      	subs	r2, #3
10002264:	1880      	adds	r0, r0, r2
10002266:	7842      	ldrb	r2, [r0, #1]
10002268:	4690      	mov	r8, r2
1000226a:	2200      	movs	r2, #0
1000226c:	7042      	strb	r2, [r0, #1]
1000226e:	4691      	mov	r9, r2
10002270:	705a      	strb	r2, [r3, #1]
10002272:	0020      	movs	r0, r4
10002274:	0032      	movs	r2, r6
10002276:	f7ff fea1 	bl	10001fbc <ph_merge_nodes>
1000227a:	4643      	mov	r3, r8
1000227c:	4682      	mov	sl, r0
1000227e:	2b00      	cmp	r3, #0
10002280:	d007      	beq.n	10002292 <ph_remove_head+0xa2>
10002282:	005b      	lsls	r3, r3, #1
10002284:	6821      	ldr	r1, [r4, #0]
10002286:	4443      	add	r3, r8
10002288:	3b03      	subs	r3, #3
1000228a:	18cb      	adds	r3, r1, r3
1000228c:	785a      	ldrb	r2, [r3, #1]
1000228e:	2a00      	cmp	r2, #0
10002290:	d117      	bne.n	100022c2 <ph_remove_head+0xd2>
10002292:	4642      	mov	r2, r8
10002294:	4651      	mov	r1, sl
10002296:	0020      	movs	r0, r4
10002298:	f7ff fe90 	bl	10001fbc <ph_merge_nodes>
1000229c:	9b01      	ldr	r3, [sp, #4]
1000229e:	0001      	movs	r1, r0
100022a0:	6820      	ldr	r0, [r4, #0]
100022a2:	19c2      	adds	r2, r0, r7
100022a4:	2b00      	cmp	r3, #0
100022a6:	d1c0      	bne.n	1000222a <ph_remove_head+0x3a>
100022a8:	2900      	cmp	r1, #0
100022aa:	d0cd      	beq.n	10002248 <ph_remove_head+0x58>
100022ac:	004b      	lsls	r3, r1, #1
100022ae:	185b      	adds	r3, r3, r1
100022b0:	3b03      	subs	r3, #3
100022b2:	18c3      	adds	r3, r0, r3
100022b4:	2000      	movs	r0, #0
100022b6:	7098      	strb	r0, [r3, #2]
100022b8:	e7c6      	b.n	10002248 <ph_remove_head+0x58>
100022ba:	9b01      	ldr	r3, [sp, #4]
100022bc:	2b00      	cmp	r3, #0
100022be:	d1b4      	bne.n	1000222a <ph_remove_head+0x3a>
100022c0:	e7c2      	b.n	10002248 <ph_remove_head+0x58>
100022c2:	0050      	lsls	r0, r2, #1
100022c4:	1880      	adds	r0, r0, r2
100022c6:	3803      	subs	r0, #3
100022c8:	1809      	adds	r1, r1, r0
100022ca:	7848      	ldrb	r0, [r1, #1]
100022cc:	4683      	mov	fp, r0
100022ce:	4648      	mov	r0, r9
100022d0:	7048      	strb	r0, [r1, #1]
100022d2:	7058      	strb	r0, [r3, #1]
100022d4:	4641      	mov	r1, r8
100022d6:	0020      	movs	r0, r4
100022d8:	f7ff fe70 	bl	10001fbc <ph_merge_nodes>
100022dc:	4659      	mov	r1, fp
100022de:	4680      	mov	r8, r0
100022e0:	0020      	movs	r0, r4
100022e2:	f7ff febd 	bl	10002060 <ph_merge_two_pass>
100022e6:	4641      	mov	r1, r8
100022e8:	0002      	movs	r2, r0
100022ea:	0020      	movs	r0, r4
100022ec:	f7ff fe66 	bl	10001fbc <ph_merge_nodes>
100022f0:	4680      	mov	r8, r0
100022f2:	e7ce      	b.n	10002292 <ph_remove_head+0xa2>

100022f4 <ph_remove_and_free_node>:
100022f4:	b570      	push	{r4, r5, r6, lr}
100022f6:	0004      	movs	r4, r0
100022f8:	2900      	cmp	r1, #0
100022fa:	d02c      	beq.n	10002356 <ph_remove_and_free_node+0x62>
100022fc:	7b43      	ldrb	r3, [r0, #13]
100022fe:	428b      	cmp	r3, r1
10002300:	d02e      	beq.n	10002360 <ph_remove_and_free_node+0x6c>
10002302:	6805      	ldr	r5, [r0, #0]
10002304:	0048      	lsls	r0, r1, #1
10002306:	1840      	adds	r0, r0, r1
10002308:	3803      	subs	r0, #3
1000230a:	1828      	adds	r0, r5, r0
1000230c:	7882      	ldrb	r2, [r0, #2]
1000230e:	2a00      	cmp	r2, #0
10002310:	d021      	beq.n	10002356 <ph_remove_and_free_node+0x62>
10002312:	0053      	lsls	r3, r2, #1
10002314:	189b      	adds	r3, r3, r2
10002316:	3b03      	subs	r3, #3
10002318:	5cea      	ldrb	r2, [r5, r3]
1000231a:	18ee      	adds	r6, r5, r3
1000231c:	428a      	cmp	r2, r1
1000231e:	d102      	bne.n	10002326 <ph_remove_and_free_node+0x32>
10002320:	e01b      	b.n	1000235a <ph_remove_and_free_node+0x66>
10002322:	2a00      	cmp	r2, #0
10002324:	d008      	beq.n	10002338 <ph_remove_and_free_node+0x44>
10002326:	0053      	lsls	r3, r2, #1
10002328:	189b      	adds	r3, r3, r2
1000232a:	3b03      	subs	r3, #3
1000232c:	18eb      	adds	r3, r5, r3
1000232e:	785a      	ldrb	r2, [r3, #1]
10002330:	428a      	cmp	r2, r1
10002332:	d1f6      	bne.n	10002322 <ph_remove_and_free_node+0x2e>
10002334:	7842      	ldrb	r2, [r0, #1]
10002336:	705a      	strb	r2, [r3, #1]
10002338:	2300      	movs	r3, #0
1000233a:	2201      	movs	r2, #1
1000233c:	7083      	strb	r3, [r0, #2]
1000233e:	7043      	strb	r3, [r0, #1]
10002340:	0020      	movs	r0, r4
10002342:	f7ff fed5 	bl	100020f0 <ph_remove_any_head>
10002346:	7b61      	ldrb	r1, [r4, #13]
10002348:	0002      	movs	r2, r0
1000234a:	0020      	movs	r0, r4
1000234c:	f7ff fe36 	bl	10001fbc <ph_merge_nodes>
10002350:	7360      	strb	r0, [r4, #13]
10002352:	2001      	movs	r0, #1
10002354:	e000      	b.n	10002358 <ph_remove_and_free_node+0x64>
10002356:	2000      	movs	r0, #0
10002358:	bd70      	pop	{r4, r5, r6, pc}
1000235a:	7843      	ldrb	r3, [r0, #1]
1000235c:	7033      	strb	r3, [r6, #0]
1000235e:	e7eb      	b.n	10002338 <ph_remove_and_free_node+0x44>
10002360:	2201      	movs	r2, #1
10002362:	0019      	movs	r1, r3
10002364:	f7ff fec4 	bl	100020f0 <ph_remove_any_head>
10002368:	7360      	strb	r0, [r4, #13]
1000236a:	2001      	movs	r0, #1
1000236c:	e7f4      	b.n	10002358 <ph_remove_and_free_node+0x64>
1000236e:	46c0      	nop			; (mov r8, r8)

10002370 <clock_configure>:
10002370:	b5f0      	push	{r4, r5, r6, r7, lr}
10002372:	4645      	mov	r5, r8
10002374:	46de      	mov	lr, fp
10002376:	4657      	mov	r7, sl
10002378:	464e      	mov	r6, r9
1000237a:	b5e0      	push	{r5, r6, r7, lr}
1000237c:	b083      	sub	sp, #12
1000237e:	9201      	str	r2, [sp, #4]
10002380:	9a0c      	ldr	r2, [sp, #48]	; 0x30
10002382:	0005      	movs	r5, r0
10002384:	4688      	mov	r8, r1
10002386:	429a      	cmp	r2, r3
10002388:	d900      	bls.n	1000238c <clock_configure+0x1c>
1000238a:	e074      	b.n	10002476 <clock_configure+0x106>
1000238c:	0e1a      	lsrs	r2, r3, #24
1000238e:	4693      	mov	fp, r2
10002390:	021e      	lsls	r6, r3, #8
10002392:	0030      	movs	r0, r6
10002394:	2300      	movs	r3, #0
10002396:	4659      	mov	r1, fp
10002398:	9a0c      	ldr	r2, [sp, #48]	; 0x30
1000239a:	f001 feb5 	bl	10004108 <__wrap___aeabi_uldivmod>
1000239e:	4b37      	ldr	r3, [pc, #220]	; (1000247c <clock_configure+0x10c>)
100023a0:	006c      	lsls	r4, r5, #1
100023a2:	469c      	mov	ip, r3
100023a4:	1964      	adds	r4, r4, r5
100023a6:	00a4      	lsls	r4, r4, #2
100023a8:	4464      	add	r4, ip
100023aa:	6863      	ldr	r3, [r4, #4]
100023ac:	0007      	movs	r7, r0
100023ae:	4283      	cmp	r3, r0
100023b0:	d200      	bcs.n	100023b4 <clock_configure+0x44>
100023b2:	6060      	str	r0, [r4, #4]
100023b4:	1f2b      	subs	r3, r5, #4
100023b6:	b2db      	uxtb	r3, r3
100023b8:	4699      	mov	r9, r3
100023ba:	2b01      	cmp	r3, #1
100023bc:	d935      	bls.n	1000242a <clock_configure+0xba>
100023be:	23c0      	movs	r3, #192	; 0xc0
100023c0:	2280      	movs	r2, #128	; 0x80
100023c2:	019b      	lsls	r3, r3, #6
100023c4:	4323      	orrs	r3, r4
100023c6:	0112      	lsls	r2, r2, #4
100023c8:	601a      	str	r2, [r3, #0]
100023ca:	4b2d      	ldr	r3, [pc, #180]	; (10002480 <clock_configure+0x110>)
100023cc:	00ad      	lsls	r5, r5, #2
100023ce:	5959      	ldr	r1, [r3, r5]
100023d0:	469a      	mov	sl, r3
100023d2:	2900      	cmp	r1, #0
100023d4:	d005      	beq.n	100023e2 <clock_configure+0x72>
100023d6:	6958      	ldr	r0, [r3, #20]
100023d8:	f001 fe58 	bl	1000408c <__wrap___aeabi_uidiv>
100023dc:	3001      	adds	r0, #1
100023de:	3801      	subs	r0, #1
100023e0:	d1fd      	bne.n	100023de <clock_configure+0x6e>
100023e2:	9a01      	ldr	r2, [sp, #4]
100023e4:	6823      	ldr	r3, [r4, #0]
100023e6:	0152      	lsls	r2, r2, #5
100023e8:	4053      	eors	r3, r2
100023ea:	22e0      	movs	r2, #224	; 0xe0
100023ec:	401a      	ands	r2, r3
100023ee:	2380      	movs	r3, #128	; 0x80
100023f0:	015b      	lsls	r3, r3, #5
100023f2:	4323      	orrs	r3, r4
100023f4:	601a      	str	r2, [r3, #0]
100023f6:	464a      	mov	r2, r9
100023f8:	2a01      	cmp	r2, #1
100023fa:	d92f      	bls.n	1000245c <clock_configure+0xec>
100023fc:	2380      	movs	r3, #128	; 0x80
100023fe:	2280      	movs	r2, #128	; 0x80
10002400:	019b      	lsls	r3, r3, #6
10002402:	4323      	orrs	r3, r4
10002404:	0112      	lsls	r2, r2, #4
10002406:	601a      	str	r2, [r3, #0]
10002408:	0030      	movs	r0, r6
1000240a:	2300      	movs	r3, #0
1000240c:	003a      	movs	r2, r7
1000240e:	4659      	mov	r1, fp
10002410:	6067      	str	r7, [r4, #4]
10002412:	f001 fe79 	bl	10004108 <__wrap___aeabi_uldivmod>
10002416:	4653      	mov	r3, sl
10002418:	5158      	str	r0, [r3, r5]
1000241a:	2001      	movs	r0, #1
1000241c:	b003      	add	sp, #12
1000241e:	bcf0      	pop	{r4, r5, r6, r7}
10002420:	46bb      	mov	fp, r7
10002422:	46b2      	mov	sl, r6
10002424:	46a9      	mov	r9, r5
10002426:	46a0      	mov	r8, r4
10002428:	bdf0      	pop	{r4, r5, r6, r7, pc}
1000242a:	4643      	mov	r3, r8
1000242c:	2b01      	cmp	r3, #1
1000242e:	d1c6      	bne.n	100023be <clock_configure+0x4e>
10002430:	23c0      	movs	r3, #192	; 0xc0
10002432:	2203      	movs	r2, #3
10002434:	019b      	lsls	r3, r3, #6
10002436:	4323      	orrs	r3, r4
10002438:	601a      	str	r2, [r3, #0]
1000243a:	3a02      	subs	r2, #2
1000243c:	68a3      	ldr	r3, [r4, #8]
1000243e:	421a      	tst	r2, r3
10002440:	d0fc      	beq.n	1000243c <clock_configure+0xcc>
10002442:	9a01      	ldr	r2, [sp, #4]
10002444:	6823      	ldr	r3, [r4, #0]
10002446:	0152      	lsls	r2, r2, #5
10002448:	405a      	eors	r2, r3
1000244a:	23e0      	movs	r3, #224	; 0xe0
1000244c:	401a      	ands	r2, r3
1000244e:	2380      	movs	r3, #128	; 0x80
10002450:	015b      	lsls	r3, r3, #5
10002452:	4323      	orrs	r3, r4
10002454:	601a      	str	r2, [r3, #0]
10002456:	4a0a      	ldr	r2, [pc, #40]	; (10002480 <clock_configure+0x110>)
10002458:	00ad      	lsls	r5, r5, #2
1000245a:	4692      	mov	sl, r2
1000245c:	4642      	mov	r2, r8
1000245e:	6821      	ldr	r1, [r4, #0]
10002460:	4051      	eors	r1, r2
10002462:	2203      	movs	r2, #3
10002464:	400a      	ands	r2, r1
10002466:	601a      	str	r2, [r3, #0]
10002468:	2201      	movs	r2, #1
1000246a:	4643      	mov	r3, r8
1000246c:	409a      	lsls	r2, r3
1000246e:	68a3      	ldr	r3, [r4, #8]
10002470:	421a      	tst	r2, r3
10002472:	d0fc      	beq.n	1000246e <clock_configure+0xfe>
10002474:	e7c2      	b.n	100023fc <clock_configure+0x8c>
10002476:	2000      	movs	r0, #0
10002478:	e7d0      	b.n	1000241c <clock_configure+0xac>
1000247a:	46c0      	nop			; (mov r8, r8)
1000247c:	40008000 	.word	0x40008000
10002480:	20001bf4 	.word	0x20001bf4

10002484 <clocks_init>:
10002484:	b530      	push	{r4, r5, lr}
10002486:	200c      	movs	r0, #12
10002488:	b083      	sub	sp, #12
1000248a:	f000 f9b7 	bl	100027fc <watchdog_start_tick>
1000248e:	f7fe fd1f 	bl	10000ed0 <running_on_fpga>
10002492:	2800      	cmp	r0, #0
10002494:	d00e      	beq.n	100024b4 <clocks_init+0x30>
10002496:	4b94      	ldr	r3, [pc, #592]	; (100026e8 <clocks_init+0x264>)
10002498:	4a94      	ldr	r2, [pc, #592]	; (100026ec <clocks_init+0x268>)
1000249a:	601a      	str	r2, [r3, #0]
1000249c:	605a      	str	r2, [r3, #4]
1000249e:	609a      	str	r2, [r3, #8]
100024a0:	60da      	str	r2, [r3, #12]
100024a2:	611a      	str	r2, [r3, #16]
100024a4:	615a      	str	r2, [r3, #20]
100024a6:	619a      	str	r2, [r3, #24]
100024a8:	61da      	str	r2, [r3, #28]
100024aa:	621a      	str	r2, [r3, #32]
100024ac:	4a90      	ldr	r2, [pc, #576]	; (100026f0 <clocks_init+0x26c>)
100024ae:	625a      	str	r2, [r3, #36]	; 0x24
100024b0:	b003      	add	sp, #12
100024b2:	bd30      	pop	{r4, r5, pc}
100024b4:	4c8f      	ldr	r4, [pc, #572]	; (100026f4 <clocks_init+0x270>)
100024b6:	67a0      	str	r0, [r4, #120]	; 0x78
100024b8:	f000 f9f4 	bl	100028a4 <xosc_init>
100024bc:	2201      	movs	r2, #1
100024be:	4b8e      	ldr	r3, [pc, #568]	; (100026f8 <clocks_init+0x274>)
100024c0:	601a      	str	r2, [r3, #0]
100024c2:	6c63      	ldr	r3, [r4, #68]	; 0x44
100024c4:	2b01      	cmp	r3, #1
100024c6:	d1fc      	bne.n	100024c2 <clocks_init+0x3e>
100024c8:	2203      	movs	r2, #3
100024ca:	4b8c      	ldr	r3, [pc, #560]	; (100026fc <clocks_init+0x278>)
100024cc:	601a      	str	r2, [r3, #0]
100024ce:	4a89      	ldr	r2, [pc, #548]	; (100026f4 <clocks_init+0x270>)
100024d0:	6b93      	ldr	r3, [r2, #56]	; 0x38
100024d2:	2b01      	cmp	r3, #1
100024d4:	d1fc      	bne.n	100024d0 <clocks_init+0x4c>
100024d6:	3301      	adds	r3, #1
100024d8:	2101      	movs	r1, #1
100024da:	4a89      	ldr	r2, [pc, #548]	; (10002700 <clocks_init+0x27c>)
100024dc:	4889      	ldr	r0, [pc, #548]	; (10002704 <clocks_init+0x280>)
100024de:	9300      	str	r3, [sp, #0]
100024e0:	3304      	adds	r3, #4
100024e2:	f000 f933 	bl	1000274c <pll_init>
100024e6:	2305      	movs	r3, #5
100024e8:	4a87      	ldr	r2, [pc, #540]	; (10002708 <clocks_init+0x284>)
100024ea:	9300      	str	r3, [sp, #0]
100024ec:	2101      	movs	r1, #1
100024ee:	4887      	ldr	r0, [pc, #540]	; (1000270c <clocks_init+0x288>)
100024f0:	f000 f92c 	bl	1000274c <pll_init>
100024f4:	4b86      	ldr	r3, [pc, #536]	; (10002710 <clocks_init+0x28c>)
100024f6:	685a      	ldr	r2, [r3, #4]
100024f8:	2aff      	cmp	r2, #255	; 0xff
100024fa:	d802      	bhi.n	10002502 <clocks_init+0x7e>
100024fc:	2280      	movs	r2, #128	; 0x80
100024fe:	0052      	lsls	r2, r2, #1
10002500:	605a      	str	r2, [r3, #4]
10002502:	2280      	movs	r2, #128	; 0x80
10002504:	4c78      	ldr	r4, [pc, #480]	; (100026e8 <clocks_init+0x264>)
10002506:	4b7d      	ldr	r3, [pc, #500]	; (100026fc <clocks_init+0x278>)
10002508:	6921      	ldr	r1, [r4, #16]
1000250a:	0112      	lsls	r2, r2, #4
1000250c:	4d80      	ldr	r5, [pc, #512]	; (10002710 <clocks_init+0x28c>)
1000250e:	601a      	str	r2, [r3, #0]
10002510:	2900      	cmp	r1, #0
10002512:	d005      	beq.n	10002520 <clocks_init+0x9c>
10002514:	6960      	ldr	r0, [r4, #20]
10002516:	f001 fdb9 	bl	1000408c <__wrap___aeabi_uidiv>
1000251a:	3001      	adds	r0, #1
1000251c:	3801      	subs	r0, #1
1000251e:	d1fd      	bne.n	1000251c <clocks_init+0x98>
10002520:	21e0      	movs	r1, #224	; 0xe0
10002522:	4b7b      	ldr	r3, [pc, #492]	; (10002710 <clocks_init+0x28c>)
10002524:	2002      	movs	r0, #2
10002526:	681a      	ldr	r2, [r3, #0]
10002528:	4011      	ands	r1, r2
1000252a:	2280      	movs	r2, #128	; 0x80
1000252c:	0152      	lsls	r2, r2, #5
1000252e:	432a      	orrs	r2, r5
10002530:	6011      	str	r1, [r2, #0]
10002532:	6819      	ldr	r1, [r3, #0]
10002534:	4048      	eors	r0, r1
10002536:	2103      	movs	r1, #3
10002538:	4001      	ands	r1, r0
1000253a:	6011      	str	r1, [r2, #0]
1000253c:	2104      	movs	r1, #4
1000253e:	689a      	ldr	r2, [r3, #8]
10002540:	4211      	tst	r1, r2
10002542:	d0fc      	beq.n	1000253e <clocks_init+0xba>
10002544:	2280      	movs	r2, #128	; 0x80
10002546:	2180      	movs	r1, #128	; 0x80
10002548:	0192      	lsls	r2, r2, #6
1000254a:	432a      	orrs	r2, r5
1000254c:	0109      	lsls	r1, r1, #4
1000254e:	6011      	str	r1, [r2, #0]
10002550:	2280      	movs	r2, #128	; 0x80
10002552:	0052      	lsls	r2, r2, #1
10002554:	605a      	str	r2, [r3, #4]
10002556:	4b6f      	ldr	r3, [pc, #444]	; (10002714 <clocks_init+0x290>)
10002558:	6123      	str	r3, [r4, #16]
1000255a:	4b6f      	ldr	r3, [pc, #444]	; (10002718 <clocks_init+0x294>)
1000255c:	6859      	ldr	r1, [r3, #4]
1000255e:	29ff      	cmp	r1, #255	; 0xff
10002560:	d800      	bhi.n	10002564 <clocks_init+0xe0>
10002562:	605a      	str	r2, [r3, #4]
10002564:	2103      	movs	r1, #3
10002566:	4a64      	ldr	r2, [pc, #400]	; (100026f8 <clocks_init+0x274>)
10002568:	4b6b      	ldr	r3, [pc, #428]	; (10002718 <clocks_init+0x294>)
1000256a:	6011      	str	r1, [r2, #0]
1000256c:	3902      	subs	r1, #2
1000256e:	689a      	ldr	r2, [r3, #8]
10002570:	4211      	tst	r1, r2
10002572:	d0fc      	beq.n	1000256e <clocks_init+0xea>
10002574:	20e0      	movs	r0, #224	; 0xe0
10002576:	681a      	ldr	r2, [r3, #0]
10002578:	4010      	ands	r0, r2
1000257a:	2280      	movs	r2, #128	; 0x80
1000257c:	0152      	lsls	r2, r2, #5
1000257e:	431a      	orrs	r2, r3
10002580:	6010      	str	r0, [r2, #0]
10002582:	6818      	ldr	r0, [r3, #0]
10002584:	4048      	eors	r0, r1
10002586:	2103      	movs	r1, #3
10002588:	4001      	ands	r1, r0
1000258a:	2002      	movs	r0, #2
1000258c:	6011      	str	r1, [r2, #0]
1000258e:	4962      	ldr	r1, [pc, #392]	; (10002718 <clocks_init+0x294>)
10002590:	688a      	ldr	r2, [r1, #8]
10002592:	4210      	tst	r0, r2
10002594:	d0fc      	beq.n	10002590 <clocks_init+0x10c>
10002596:	2280      	movs	r2, #128	; 0x80
10002598:	0192      	lsls	r2, r2, #6
1000259a:	4313      	orrs	r3, r2
1000259c:	2280      	movs	r2, #128	; 0x80
1000259e:	0112      	lsls	r2, r2, #4
100025a0:	601a      	str	r2, [r3, #0]
100025a2:	2280      	movs	r2, #128	; 0x80
100025a4:	4b5d      	ldr	r3, [pc, #372]	; (1000271c <clocks_init+0x298>)
100025a6:	0052      	lsls	r2, r2, #1
100025a8:	604a      	str	r2, [r1, #4]
100025aa:	6163      	str	r3, [r4, #20]
100025ac:	4b5c      	ldr	r3, [pc, #368]	; (10002720 <clocks_init+0x29c>)
100025ae:	6859      	ldr	r1, [r3, #4]
100025b0:	29ff      	cmp	r1, #255	; 0xff
100025b2:	d800      	bhi.n	100025b6 <clocks_init+0x132>
100025b4:	605a      	str	r2, [r3, #4]
100025b6:	2280      	movs	r2, #128	; 0x80
100025b8:	4b5a      	ldr	r3, [pc, #360]	; (10002724 <clocks_init+0x2a0>)
100025ba:	69e1      	ldr	r1, [r4, #28]
100025bc:	0112      	lsls	r2, r2, #4
100025be:	4d58      	ldr	r5, [pc, #352]	; (10002720 <clocks_init+0x29c>)
100025c0:	601a      	str	r2, [r3, #0]
100025c2:	2900      	cmp	r1, #0
100025c4:	d005      	beq.n	100025d2 <clocks_init+0x14e>
100025c6:	6960      	ldr	r0, [r4, #20]
100025c8:	f001 fd60 	bl	1000408c <__wrap___aeabi_uidiv>
100025cc:	3001      	adds	r0, #1
100025ce:	3801      	subs	r0, #1
100025d0:	d1fd      	bne.n	100025ce <clocks_init+0x14a>
100025d2:	22e0      	movs	r2, #224	; 0xe0
100025d4:	4952      	ldr	r1, [pc, #328]	; (10002720 <clocks_init+0x29c>)
100025d6:	680b      	ldr	r3, [r1, #0]
100025d8:	401a      	ands	r2, r3
100025da:	2380      	movs	r3, #128	; 0x80
100025dc:	015b      	lsls	r3, r3, #5
100025de:	432b      	orrs	r3, r5
100025e0:	601a      	str	r2, [r3, #0]
100025e2:	2380      	movs	r3, #128	; 0x80
100025e4:	2280      	movs	r2, #128	; 0x80
100025e6:	019b      	lsls	r3, r3, #6
100025e8:	432b      	orrs	r3, r5
100025ea:	0112      	lsls	r2, r2, #4
100025ec:	601a      	str	r2, [r3, #0]
100025ee:	2280      	movs	r2, #128	; 0x80
100025f0:	4b3e      	ldr	r3, [pc, #248]	; (100026ec <clocks_init+0x268>)
100025f2:	0052      	lsls	r2, r2, #1
100025f4:	604a      	str	r2, [r1, #4]
100025f6:	61e3      	str	r3, [r4, #28]
100025f8:	4b4b      	ldr	r3, [pc, #300]	; (10002728 <clocks_init+0x2a4>)
100025fa:	6859      	ldr	r1, [r3, #4]
100025fc:	29ff      	cmp	r1, #255	; 0xff
100025fe:	d800      	bhi.n	10002602 <clocks_init+0x17e>
10002600:	605a      	str	r2, [r3, #4]
10002602:	2280      	movs	r2, #128	; 0x80
10002604:	4b49      	ldr	r3, [pc, #292]	; (1000272c <clocks_init+0x2a8>)
10002606:	6a21      	ldr	r1, [r4, #32]
10002608:	0112      	lsls	r2, r2, #4
1000260a:	4d47      	ldr	r5, [pc, #284]	; (10002728 <clocks_init+0x2a4>)
1000260c:	601a      	str	r2, [r3, #0]
1000260e:	2900      	cmp	r1, #0
10002610:	d005      	beq.n	1000261e <clocks_init+0x19a>
10002612:	6960      	ldr	r0, [r4, #20]
10002614:	f001 fd3a 	bl	1000408c <__wrap___aeabi_uidiv>
10002618:	3001      	adds	r0, #1
1000261a:	3801      	subs	r0, #1
1000261c:	d1fd      	bne.n	1000261a <clocks_init+0x196>
1000261e:	22e0      	movs	r2, #224	; 0xe0
10002620:	4941      	ldr	r1, [pc, #260]	; (10002728 <clocks_init+0x2a4>)
10002622:	680b      	ldr	r3, [r1, #0]
10002624:	401a      	ands	r2, r3
10002626:	2380      	movs	r3, #128	; 0x80
10002628:	015b      	lsls	r3, r3, #5
1000262a:	432b      	orrs	r3, r5
1000262c:	601a      	str	r2, [r3, #0]
1000262e:	2380      	movs	r3, #128	; 0x80
10002630:	2280      	movs	r2, #128	; 0x80
10002632:	019b      	lsls	r3, r3, #6
10002634:	432b      	orrs	r3, r5
10002636:	0112      	lsls	r2, r2, #4
10002638:	601a      	str	r2, [r3, #0]
1000263a:	2380      	movs	r3, #128	; 0x80
1000263c:	2280      	movs	r2, #128	; 0x80
1000263e:	005b      	lsls	r3, r3, #1
10002640:	604b      	str	r3, [r1, #4]
10002642:	4b2a      	ldr	r3, [pc, #168]	; (100026ec <clocks_init+0x268>)
10002644:	02d2      	lsls	r2, r2, #11
10002646:	6223      	str	r3, [r4, #32]
10002648:	4b39      	ldr	r3, [pc, #228]	; (10002730 <clocks_init+0x2ac>)
1000264a:	6859      	ldr	r1, [r3, #4]
1000264c:	4291      	cmp	r1, r2
1000264e:	d200      	bcs.n	10002652 <clocks_init+0x1ce>
10002650:	605a      	str	r2, [r3, #4]
10002652:	2280      	movs	r2, #128	; 0x80
10002654:	4b37      	ldr	r3, [pc, #220]	; (10002734 <clocks_init+0x2b0>)
10002656:	6a61      	ldr	r1, [r4, #36]	; 0x24
10002658:	0112      	lsls	r2, r2, #4
1000265a:	4d35      	ldr	r5, [pc, #212]	; (10002730 <clocks_init+0x2ac>)
1000265c:	601a      	str	r2, [r3, #0]
1000265e:	2900      	cmp	r1, #0
10002660:	d005      	beq.n	1000266e <clocks_init+0x1ea>
10002662:	6960      	ldr	r0, [r4, #20]
10002664:	f001 fd12 	bl	1000408c <__wrap___aeabi_uidiv>
10002668:	3001      	adds	r0, #1
1000266a:	3801      	subs	r0, #1
1000266c:	d1fd      	bne.n	1000266a <clocks_init+0x1e6>
1000266e:	22e0      	movs	r2, #224	; 0xe0
10002670:	492f      	ldr	r1, [pc, #188]	; (10002730 <clocks_init+0x2ac>)
10002672:	680b      	ldr	r3, [r1, #0]
10002674:	401a      	ands	r2, r3
10002676:	2380      	movs	r3, #128	; 0x80
10002678:	015b      	lsls	r3, r3, #5
1000267a:	432b      	orrs	r3, r5
1000267c:	601a      	str	r2, [r3, #0]
1000267e:	2380      	movs	r3, #128	; 0x80
10002680:	2280      	movs	r2, #128	; 0x80
10002682:	019b      	lsls	r3, r3, #6
10002684:	432b      	orrs	r3, r5
10002686:	0112      	lsls	r2, r2, #4
10002688:	601a      	str	r2, [r3, #0]
1000268a:	2380      	movs	r3, #128	; 0x80
1000268c:	02db      	lsls	r3, r3, #11
1000268e:	604b      	str	r3, [r1, #4]
10002690:	4b17      	ldr	r3, [pc, #92]	; (100026f0 <clocks_init+0x26c>)
10002692:	6263      	str	r3, [r4, #36]	; 0x24
10002694:	4b28      	ldr	r3, [pc, #160]	; (10002738 <clocks_init+0x2b4>)
10002696:	685a      	ldr	r2, [r3, #4]
10002698:	2aff      	cmp	r2, #255	; 0xff
1000269a:	d802      	bhi.n	100026a2 <clocks_init+0x21e>
1000269c:	2280      	movs	r2, #128	; 0x80
1000269e:	0052      	lsls	r2, r2, #1
100026a0:	605a      	str	r2, [r3, #4]
100026a2:	2280      	movs	r2, #128	; 0x80
100026a4:	4b25      	ldr	r3, [pc, #148]	; (1000273c <clocks_init+0x2b8>)
100026a6:	69a1      	ldr	r1, [r4, #24]
100026a8:	0112      	lsls	r2, r2, #4
100026aa:	4d23      	ldr	r5, [pc, #140]	; (10002738 <clocks_init+0x2b4>)
100026ac:	601a      	str	r2, [r3, #0]
100026ae:	2900      	cmp	r1, #0
100026b0:	d005      	beq.n	100026be <clocks_init+0x23a>
100026b2:	6960      	ldr	r0, [r4, #20]
100026b4:	f001 fcea 	bl	1000408c <__wrap___aeabi_uidiv>
100026b8:	3001      	adds	r0, #1
100026ba:	3801      	subs	r0, #1
100026bc:	d1fd      	bne.n	100026ba <clocks_init+0x236>
100026be:	22e0      	movs	r2, #224	; 0xe0
100026c0:	491d      	ldr	r1, [pc, #116]	; (10002738 <clocks_init+0x2b4>)
100026c2:	680b      	ldr	r3, [r1, #0]
100026c4:	401a      	ands	r2, r3
100026c6:	2380      	movs	r3, #128	; 0x80
100026c8:	015b      	lsls	r3, r3, #5
100026ca:	432b      	orrs	r3, r5
100026cc:	601a      	str	r2, [r3, #0]
100026ce:	2380      	movs	r3, #128	; 0x80
100026d0:	2280      	movs	r2, #128	; 0x80
100026d2:	019b      	lsls	r3, r3, #6
100026d4:	432b      	orrs	r3, r5
100026d6:	0112      	lsls	r2, r2, #4
100026d8:	601a      	str	r2, [r3, #0]
100026da:	2380      	movs	r3, #128	; 0x80
100026dc:	005b      	lsls	r3, r3, #1
100026de:	604b      	str	r3, [r1, #4]
100026e0:	4b0e      	ldr	r3, [pc, #56]	; (1000271c <clocks_init+0x298>)
100026e2:	61a3      	str	r3, [r4, #24]
100026e4:	e6e4      	b.n	100024b0 <clocks_init+0x2c>
100026e6:	46c0      	nop			; (mov r8, r8)
100026e8:	20001bf4 	.word	0x20001bf4
100026ec:	02dc6c00 	.word	0x02dc6c00
100026f0:	0000b71b 	.word	0x0000b71b
100026f4:	40008000 	.word	0x40008000
100026f8:	4000b03c 	.word	0x4000b03c
100026fc:	4000b030 	.word	0x4000b030
10002700:	59682f00 	.word	0x59682f00
10002704:	40028000 	.word	0x40028000
10002708:	47868c00 	.word	0x47868c00
1000270c:	4002c000 	.word	0x4002c000
10002710:	40008030 	.word	0x40008030
10002714:	00b71b00 	.word	0x00b71b00
10002718:	4000803c 	.word	0x4000803c
1000271c:	07735940 	.word	0x07735940
10002720:	40008054 	.word	0x40008054
10002724:	4000b054 	.word	0x4000b054
10002728:	40008060 	.word	0x40008060
1000272c:	4000b060 	.word	0x4000b060
10002730:	4000806c 	.word	0x4000806c
10002734:	4000b06c 	.word	0x4000b06c
10002738:	40008048 	.word	0x40008048
1000273c:	4000b048 	.word	0x4000b048

10002740 <clock_get_hz>:
10002740:	4b01      	ldr	r3, [pc, #4]	; (10002748 <clock_get_hz+0x8>)
10002742:	0080      	lsls	r0, r0, #2
10002744:	58c0      	ldr	r0, [r0, r3]
10002746:	4770      	bx	lr
10002748:	20001bf4 	.word	0x20001bf4

1000274c <pll_init>:
1000274c:	b5f0      	push	{r4, r5, r6, r7, lr}
1000274e:	46c6      	mov	lr, r8
10002750:	0004      	movs	r4, r0
10002752:	b500      	push	{lr}
10002754:	200c      	movs	r0, #12
10002756:	4690      	mov	r8, r2
10002758:	001f      	movs	r7, r3
1000275a:	000e      	movs	r6, r1
1000275c:	f001 fc96 	bl	1000408c <__wrap___aeabi_uidiv>
10002760:	0141      	lsls	r1, r0, #5
10002762:	1a09      	subs	r1, r1, r0
10002764:	018d      	lsls	r5, r1, #6
10002766:	1a69      	subs	r1, r5, r1
10002768:	00c9      	lsls	r1, r1, #3
1000276a:	1809      	adds	r1, r1, r0
1000276c:	0189      	lsls	r1, r1, #6
1000276e:	4640      	mov	r0, r8
10002770:	f001 fc8c 	bl	1000408c <__wrap___aeabi_uidiv>
10002774:	9b06      	ldr	r3, [sp, #24]
10002776:	043f      	lsls	r7, r7, #16
10002778:	031a      	lsls	r2, r3, #12
1000277a:	6823      	ldr	r3, [r4, #0]
1000277c:	4317      	orrs	r7, r2
1000277e:	2b00      	cmp	r3, #0
10002780:	db22      	blt.n	100027c8 <pll_init+0x7c>
10002782:	4b1a      	ldr	r3, [pc, #104]	; (100027ec <pll_init+0xa0>)
10002784:	4d1a      	ldr	r5, [pc, #104]	; (100027f0 <pll_init+0xa4>)
10002786:	18e2      	adds	r2, r4, r3
10002788:	4253      	negs	r3, r2
1000278a:	415a      	adcs	r2, r3
1000278c:	2380      	movs	r3, #128	; 0x80
1000278e:	015b      	lsls	r3, r3, #5
10002790:	469c      	mov	ip, r3
10002792:	0312      	lsls	r2, r2, #12
10002794:	4b17      	ldr	r3, [pc, #92]	; (100027f4 <pll_init+0xa8>)
10002796:	4462      	add	r2, ip
10002798:	601a      	str	r2, [r3, #0]
1000279a:	4b17      	ldr	r3, [pc, #92]	; (100027f8 <pll_init+0xac>)
1000279c:	601a      	str	r2, [r3, #0]
1000279e:	0011      	movs	r1, r2
100027a0:	68ab      	ldr	r3, [r5, #8]
100027a2:	4399      	bics	r1, r3
100027a4:	d1fb      	bne.n	1000279e <pll_init+0x52>
100027a6:	22c0      	movs	r2, #192	; 0xc0
100027a8:	1d23      	adds	r3, r4, #4
100027aa:	0192      	lsls	r2, r2, #6
100027ac:	431a      	orrs	r2, r3
100027ae:	2321      	movs	r3, #33	; 0x21
100027b0:	6026      	str	r6, [r4, #0]
100027b2:	60a0      	str	r0, [r4, #8]
100027b4:	6013      	str	r3, [r2, #0]
100027b6:	6823      	ldr	r3, [r4, #0]
100027b8:	2b00      	cmp	r3, #0
100027ba:	dafc      	bge.n	100027b6 <pll_init+0x6a>
100027bc:	2308      	movs	r3, #8
100027be:	60e7      	str	r7, [r4, #12]
100027c0:	6013      	str	r3, [r2, #0]
100027c2:	bc80      	pop	{r7}
100027c4:	46b8      	mov	r8, r7
100027c6:	bdf0      	pop	{r4, r5, r6, r7, pc}
100027c8:	233f      	movs	r3, #63	; 0x3f
100027ca:	6822      	ldr	r2, [r4, #0]
100027cc:	4013      	ands	r3, r2
100027ce:	42b3      	cmp	r3, r6
100027d0:	d1d7      	bne.n	10002782 <pll_init+0x36>
100027d2:	68a3      	ldr	r3, [r4, #8]
100027d4:	051b      	lsls	r3, r3, #20
100027d6:	0d1b      	lsrs	r3, r3, #20
100027d8:	4283      	cmp	r3, r0
100027da:	d1d2      	bne.n	10002782 <pll_init+0x36>
100027dc:	22ee      	movs	r2, #238	; 0xee
100027de:	68e3      	ldr	r3, [r4, #12]
100027e0:	02d2      	lsls	r2, r2, #11
100027e2:	4013      	ands	r3, r2
100027e4:	42bb      	cmp	r3, r7
100027e6:	d1cc      	bne.n	10002782 <pll_init+0x36>
100027e8:	e7eb      	b.n	100027c2 <pll_init+0x76>
100027ea:	46c0      	nop			; (mov r8, r8)
100027ec:	bffd4000 	.word	0xbffd4000
100027f0:	4000c000 	.word	0x4000c000
100027f4:	4000e000 	.word	0x4000e000
100027f8:	4000f000 	.word	0x4000f000

100027fc <watchdog_start_tick>:
100027fc:	2380      	movs	r3, #128	; 0x80
100027fe:	4a02      	ldr	r2, [pc, #8]	; (10002808 <watchdog_start_tick+0xc>)
10002800:	009b      	lsls	r3, r3, #2
10002802:	4303      	orrs	r3, r0
10002804:	62d3      	str	r3, [r2, #44]	; 0x2c
10002806:	4770      	bx	lr
10002808:	40058000 	.word	0x40058000

1000280c <watchdog_reboot>:
1000280c:	b510      	push	{r4, lr}
1000280e:	0014      	movs	r4, r2
10002810:	2280      	movs	r2, #128	; 0x80
10002812:	4b1b      	ldr	r3, [pc, #108]	; (10002880 <watchdog_reboot+0x74>)
10002814:	05d2      	lsls	r2, r2, #23
10002816:	601a      	str	r2, [r3, #0]
10002818:	2800      	cmp	r0, #0
1000281a:	d01a      	beq.n	10002852 <watchdog_reboot+0x46>
1000281c:	2301      	movs	r3, #1
1000281e:	4a19      	ldr	r2, [pc, #100]	; (10002884 <watchdog_reboot+0x78>)
10002820:	4318      	orrs	r0, r3
10002822:	4b19      	ldr	r3, [pc, #100]	; (10002888 <watchdog_reboot+0x7c>)
10002824:	61da      	str	r2, [r3, #28]
10002826:	4a19      	ldr	r2, [pc, #100]	; (1000288c <watchdog_reboot+0x80>)
10002828:	4042      	eors	r2, r0
1000282a:	621a      	str	r2, [r3, #32]
1000282c:	6259      	str	r1, [r3, #36]	; 0x24
1000282e:	6298      	str	r0, [r3, #40]	; 0x28
10002830:	2280      	movs	r2, #128	; 0x80
10002832:	4b13      	ldr	r3, [pc, #76]	; (10002880 <watchdog_reboot+0x74>)
10002834:	05d2      	lsls	r2, r2, #23
10002836:	601a      	str	r2, [r3, #0]
10002838:	4915      	ldr	r1, [pc, #84]	; (10002890 <watchdog_reboot+0x84>)
1000283a:	4a16      	ldr	r2, [pc, #88]	; (10002894 <watchdog_reboot+0x88>)
1000283c:	6011      	str	r1, [r2, #0]
1000283e:	22e0      	movs	r2, #224	; 0xe0
10002840:	04d2      	lsls	r2, r2, #19
10002842:	601a      	str	r2, [r3, #0]
10002844:	2c00      	cmp	r4, #0
10002846:	d107      	bne.n	10002858 <watchdog_reboot+0x4c>
10002848:	2280      	movs	r2, #128	; 0x80
1000284a:	4b13      	ldr	r3, [pc, #76]	; (10002898 <watchdog_reboot+0x8c>)
1000284c:	0612      	lsls	r2, r2, #24
1000284e:	601a      	str	r2, [r3, #0]
10002850:	bd10      	pop	{r4, pc}
10002852:	4b0d      	ldr	r3, [pc, #52]	; (10002888 <watchdog_reboot+0x7c>)
10002854:	61d8      	str	r0, [r3, #28]
10002856:	e7eb      	b.n	10002830 <watchdog_reboot+0x24>
10002858:	0163      	lsls	r3, r4, #5
1000285a:	1b1b      	subs	r3, r3, r4
1000285c:	009a      	lsls	r2, r3, #2
1000285e:	2380      	movs	r3, #128	; 0x80
10002860:	1912      	adds	r2, r2, r4
10002862:	0112      	lsls	r2, r2, #4
10002864:	045b      	lsls	r3, r3, #17
10002866:	429a      	cmp	r2, r3
10002868:	d300      	bcc.n	1000286c <watchdog_reboot+0x60>
1000286a:	4a0c      	ldr	r2, [pc, #48]	; (1000289c <watchdog_reboot+0x90>)
1000286c:	4b0c      	ldr	r3, [pc, #48]	; (100028a0 <watchdog_reboot+0x94>)
1000286e:	601a      	str	r2, [r3, #0]
10002870:	4b05      	ldr	r3, [pc, #20]	; (10002888 <watchdog_reboot+0x7c>)
10002872:	605a      	str	r2, [r3, #4]
10002874:	2280      	movs	r2, #128	; 0x80
10002876:	4b08      	ldr	r3, [pc, #32]	; (10002898 <watchdog_reboot+0x8c>)
10002878:	05d2      	lsls	r2, r2, #23
1000287a:	601a      	str	r2, [r3, #0]
1000287c:	e7e8      	b.n	10002850 <watchdog_reboot+0x44>
1000287e:	46c0      	nop			; (mov r8, r8)
10002880:	4005b000 	.word	0x4005b000
10002884:	b007c0d3 	.word	0xb007c0d3
10002888:	40058000 	.word	0x40058000
1000288c:	4ff83f2d 	.word	0x4ff83f2d
10002890:	0001fffc 	.word	0x0001fffc
10002894:	40012008 	.word	0x40012008
10002898:	4005a000 	.word	0x4005a000
1000289c:	00ffffff 	.word	0x00ffffff
100028a0:	200020b8 	.word	0x200020b8

100028a4 <xosc_init>:
100028a4:	23aa      	movs	r3, #170	; 0xaa
100028a6:	4a06      	ldr	r2, [pc, #24]	; (100028c0 <xosc_init+0x1c>)
100028a8:	011b      	lsls	r3, r3, #4
100028aa:	6013      	str	r3, [r2, #0]
100028ac:	232f      	movs	r3, #47	; 0x2f
100028ae:	4905      	ldr	r1, [pc, #20]	; (100028c4 <xosc_init+0x20>)
100028b0:	60d3      	str	r3, [r2, #12]
100028b2:	4b05      	ldr	r3, [pc, #20]	; (100028c8 <xosc_init+0x24>)
100028b4:	6019      	str	r1, [r3, #0]
100028b6:	6853      	ldr	r3, [r2, #4]
100028b8:	2b00      	cmp	r3, #0
100028ba:	dafc      	bge.n	100028b6 <xosc_init+0x12>
100028bc:	4770      	bx	lr
100028be:	46c0      	nop			; (mov r8, r8)
100028c0:	40024000 	.word	0x40024000
100028c4:	00fab000 	.word	0x00fab000
100028c8:	40026000 	.word	0x40026000

100028cc <runtime_init>:
100028cc:	4b2c      	ldr	r3, [pc, #176]	; (10002980 <runtime_init+0xb4>)
100028ce:	4a2d      	ldr	r2, [pc, #180]	; (10002984 <runtime_init+0xb8>)
100028d0:	b570      	push	{r4, r5, r6, lr}
100028d2:	601a      	str	r2, [r3, #0]
100028d4:	4a2c      	ldr	r2, [pc, #176]	; (10002988 <runtime_init+0xbc>)
100028d6:	4b2d      	ldr	r3, [pc, #180]	; (1000298c <runtime_init+0xc0>)
100028d8:	492d      	ldr	r1, [pc, #180]	; (10002990 <runtime_init+0xc4>)
100028da:	601a      	str	r2, [r3, #0]
100028dc:	0014      	movs	r4, r2
100028de:	688b      	ldr	r3, [r1, #8]
100028e0:	439c      	bics	r4, r3
100028e2:	d1fb      	bne.n	100028dc <runtime_init+0x10>
100028e4:	4d2b      	ldr	r5, [pc, #172]	; (10002994 <runtime_init+0xc8>)
100028e6:	4e2c      	ldr	r6, [pc, #176]	; (10002998 <runtime_init+0xcc>)
100028e8:	42b5      	cmp	r5, r6
100028ea:	d208      	bcs.n	100028fe <runtime_init+0x32>
100028ec:	3e01      	subs	r6, #1
100028ee:	1b76      	subs	r6, r6, r5
100028f0:	08b6      	lsrs	r6, r6, #2
100028f2:	cd08      	ldmia	r5!, {r3}
100028f4:	4798      	blx	r3
100028f6:	0023      	movs	r3, r4
100028f8:	3401      	adds	r4, #1
100028fa:	42b3      	cmp	r3, r6
100028fc:	d1f9      	bne.n	100028f2 <runtime_init+0x26>
100028fe:	f7ff fdc1 	bl	10002484 <clocks_init>
10002902:	4a26      	ldr	r2, [pc, #152]	; (1000299c <runtime_init+0xd0>)
10002904:	4b21      	ldr	r3, [pc, #132]	; (1000298c <runtime_init+0xc0>)
10002906:	601a      	str	r2, [r3, #0]
10002908:	4a21      	ldr	r2, [pc, #132]	; (10002990 <runtime_init+0xc4>)
1000290a:	6893      	ldr	r3, [r2, #8]
1000290c:	43db      	mvns	r3, r3
1000290e:	01db      	lsls	r3, r3, #7
10002910:	09dd      	lsrs	r5, r3, #7
10002912:	2b00      	cmp	r3, #0
10002914:	d1f9      	bne.n	1000290a <runtime_init+0x3e>
10002916:	2240      	movs	r2, #64	; 0x40
10002918:	4b21      	ldr	r3, [pc, #132]	; (100029a0 <runtime_init+0xd4>)
1000291a:	4c22      	ldr	r4, [pc, #136]	; (100029a4 <runtime_init+0xd8>)
1000291c:	4e22      	ldr	r6, [pc, #136]	; (100029a8 <runtime_init+0xdc>)
1000291e:	679a      	str	r2, [r3, #120]	; 0x78
10002920:	675a      	str	r2, [r3, #116]	; 0x74
10002922:	671a      	str	r2, [r3, #112]	; 0x70
10002924:	66da      	str	r2, [r3, #108]	; 0x6c
10002926:	42b4      	cmp	r4, r6
10002928:	d208      	bcs.n	1000293c <runtime_init+0x70>
1000292a:	6823      	ldr	r3, [r4, #0]
1000292c:	0020      	movs	r0, r4
1000292e:	2b00      	cmp	r3, #0
10002930:	d020      	beq.n	10002974 <runtime_init+0xa8>
10002932:	3408      	adds	r4, #8
10002934:	f7fe fe48 	bl	100015c8 <recursive_mutex_init>
10002938:	42b4      	cmp	r4, r6
1000293a:	d3f6      	bcc.n	1000292a <runtime_init+0x5e>
1000293c:	4e1b      	ldr	r6, [pc, #108]	; (100029ac <runtime_init+0xe0>)
1000293e:	4c1c      	ldr	r4, [pc, #112]	; (100029b0 <runtime_init+0xe4>)
10002940:	22c0      	movs	r2, #192	; 0xc0
10002942:	68a1      	ldr	r1, [r4, #8]
10002944:	0030      	movs	r0, r6
10002946:	f002 fa81 	bl	10004e4c <__wrap___aeabi_memcpy>
1000294a:	60a6      	str	r6, [r4, #8]
1000294c:	f7fe fb4e 	bl	10000fec <spin_locks_reset>
10002950:	f7fe fdfe 	bl	10001550 <irq_init_priorities>
10002954:	f7fe ffee 	bl	10001934 <alarm_pool_init_default>
10002958:	4c16      	ldr	r4, [pc, #88]	; (100029b4 <runtime_init+0xe8>)
1000295a:	4e17      	ldr	r6, [pc, #92]	; (100029b8 <runtime_init+0xec>)
1000295c:	42b4      	cmp	r4, r6
1000295e:	d208      	bcs.n	10002972 <runtime_init+0xa6>
10002960:	3e01      	subs	r6, #1
10002962:	1b36      	subs	r6, r6, r4
10002964:	08b6      	lsrs	r6, r6, #2
10002966:	cc08      	ldmia	r4!, {r3}
10002968:	4798      	blx	r3
1000296a:	002b      	movs	r3, r5
1000296c:	3501      	adds	r5, #1
1000296e:	429e      	cmp	r6, r3
10002970:	d1f9      	bne.n	10002966 <runtime_init+0x9a>
10002972:	bd70      	pop	{r4, r5, r6, pc}
10002974:	3408      	adds	r4, #8
10002976:	f7fe fe19 	bl	100015ac <mutex_init>
1000297a:	42b4      	cmp	r4, r6
1000297c:	d3d5      	bcc.n	1000292a <runtime_init+0x5e>
1000297e:	e7dd      	b.n	1000293c <runtime_init+0x70>
10002980:	4000e000 	.word	0x4000e000
10002984:	fefbcdbf 	.word	0xfefbcdbf
10002988:	003c7ffe 	.word	0x003c7ffe
1000298c:	4000f000 	.word	0x4000f000
10002990:	4000c000 	.word	0x4000c000
10002994:	20001350 	.word	0x20001350
10002998:	20001360 	.word	0x20001360
1000299c:	01ffffff 	.word	0x01ffffff
100029a0:	4001f000 	.word	0x4001f000
100029a4:	20001348 	.word	0x20001348
100029a8:	20001350 	.word	0x20001350
100029ac:	20000000 	.word	0x20000000
100029b0:	e000ed00 	.word	0xe000ed00
100029b4:	20001360 	.word	0x20001360
100029b8:	20001368 	.word	0x20001368

100029bc <_exit>:
100029bc:	be00      	bkpt	0x0000
100029be:	e7fd      	b.n	100029bc <_exit>

100029c0 <exit>:
100029c0:	b510      	push	{r4, lr}
100029c2:	f7ff fffb 	bl	100029bc <_exit>
100029c6:	46c0      	nop			; (mov r8, r8)

100029c8 <panic>:
100029c8:	b40f      	push	{r0, r1, r2, r3}
100029ca:	b500      	push	{lr}
100029cc:	4808      	ldr	r0, [pc, #32]	; (100029f0 <panic+0x28>)
100029ce:	b083      	sub	sp, #12
100029d0:	f002 fba0 	bl	10005114 <__wrap_puts>
100029d4:	9b04      	ldr	r3, [sp, #16]
100029d6:	2b00      	cmp	r3, #0
100029d8:	d007      	beq.n	100029ea <panic+0x22>
100029da:	a905      	add	r1, sp, #20
100029dc:	0018      	movs	r0, r3
100029de:	9101      	str	r1, [sp, #4]
100029e0:	f001 fada 	bl	10003f98 <weak_raw_vprintf>
100029e4:	4803      	ldr	r0, [pc, #12]	; (100029f4 <panic+0x2c>)
100029e6:	f002 fb95 	bl	10005114 <__wrap_puts>
100029ea:	2001      	movs	r0, #1
100029ec:	f7ff ffe6 	bl	100029bc <_exit>
100029f0:	10007d5c 	.word	0x10007d5c
100029f4:	10007d6c 	.word	0x10007d6c

100029f8 <hard_assertion_failure>:
100029f8:	b510      	push	{r4, lr}
100029fa:	4801      	ldr	r0, [pc, #4]	; (10002a00 <hard_assertion_failure+0x8>)
100029fc:	f7ff ffe4 	bl	100029c8 <panic>
10002a00:	10007d70 	.word	0x10007d70

10002a04 <_out_null>:
10002a04:	4770      	bx	lr
10002a06:	46c0      	nop			; (mov r8, r8)

10002a08 <_out_rev>:
10002a08:	b5f8      	push	{r3, r4, r5, r6, r7, lr}
10002a0a:	4657      	mov	r7, sl
10002a0c:	464e      	mov	r6, r9
10002a0e:	4645      	mov	r5, r8
10002a10:	46de      	mov	lr, fp
10002a12:	b5e0      	push	{r5, r6, r7, lr}
10002a14:	4699      	mov	r9, r3
10002a16:	9b0a      	ldr	r3, [sp, #40]	; 0x28
10002a18:	0007      	movs	r7, r0
10002a1a:	469a      	mov	sl, r3
10002a1c:	9b0d      	ldr	r3, [sp, #52]	; 0x34
10002a1e:	4688      	mov	r8, r1
10002a20:	4693      	mov	fp, r2
10002a22:	0015      	movs	r5, r2
10002a24:	9e0b      	ldr	r6, [sp, #44]	; 0x2c
10002a26:	079b      	lsls	r3, r3, #30
10002a28:	d110      	bne.n	10002a4c <_out_rev+0x44>
10002a2a:	9b0c      	ldr	r3, [sp, #48]	; 0x30
10002a2c:	429e      	cmp	r6, r3
10002a2e:	d20d      	bcs.n	10002a4c <_out_rev+0x44>
10002a30:	1b9d      	subs	r5, r3, r6
10002a32:	0014      	movs	r4, r2
10002a34:	000e      	movs	r6, r1
10002a36:	445d      	add	r5, fp
10002a38:	0022      	movs	r2, r4
10002a3a:	464b      	mov	r3, r9
10002a3c:	3401      	adds	r4, #1
10002a3e:	0031      	movs	r1, r6
10002a40:	2020      	movs	r0, #32
10002a42:	47b8      	blx	r7
10002a44:	42a5      	cmp	r5, r4
10002a46:	d1f7      	bne.n	10002a38 <_out_rev+0x30>
10002a48:	46b0      	mov	r8, r6
10002a4a:	9e0b      	ldr	r6, [sp, #44]	; 0x2c
10002a4c:	2e00      	cmp	r6, #0
10002a4e:	d027      	beq.n	10002aa0 <_out_rev+0x98>
10002a50:	4644      	mov	r4, r8
10002a52:	1975      	adds	r5, r6, r5
10002a54:	4653      	mov	r3, sl
10002a56:	1baa      	subs	r2, r5, r6
10002a58:	3e01      	subs	r6, #1
10002a5a:	5d98      	ldrb	r0, [r3, r6]
10002a5c:	0021      	movs	r1, r4
10002a5e:	464b      	mov	r3, r9
10002a60:	47b8      	blx	r7
10002a62:	2e00      	cmp	r6, #0
10002a64:	d1f6      	bne.n	10002a54 <_out_rev+0x4c>
10002a66:	0023      	movs	r3, r4
10002a68:	002c      	movs	r4, r5
10002a6a:	4698      	mov	r8, r3
10002a6c:	9b0d      	ldr	r3, [sp, #52]	; 0x34
10002a6e:	079b      	lsls	r3, r3, #30
10002a70:	d50f      	bpl.n	10002a92 <_out_rev+0x8a>
10002a72:	465b      	mov	r3, fp
10002a74:	1ae5      	subs	r5, r4, r3
10002a76:	9b0c      	ldr	r3, [sp, #48]	; 0x30
10002a78:	42ab      	cmp	r3, r5
10002a7a:	d90a      	bls.n	10002a92 <_out_rev+0x8a>
10002a7c:	4646      	mov	r6, r8
10002a7e:	4698      	mov	r8, r3
10002a80:	0022      	movs	r2, r4
10002a82:	464b      	mov	r3, r9
10002a84:	0031      	movs	r1, r6
10002a86:	2020      	movs	r0, #32
10002a88:	3501      	adds	r5, #1
10002a8a:	47b8      	blx	r7
10002a8c:	3401      	adds	r4, #1
10002a8e:	45a8      	cmp	r8, r5
10002a90:	d8f6      	bhi.n	10002a80 <_out_rev+0x78>
10002a92:	0020      	movs	r0, r4
10002a94:	bcf0      	pop	{r4, r5, r6, r7}
10002a96:	46bb      	mov	fp, r7
10002a98:	46b2      	mov	sl, r6
10002a9a:	46a9      	mov	r9, r5
10002a9c:	46a0      	mov	r8, r4
10002a9e:	bdf8      	pop	{r3, r4, r5, r6, r7, pc}
10002aa0:	002c      	movs	r4, r5
10002aa2:	e7e3      	b.n	10002a6c <_out_rev+0x64>

10002aa4 <_ntoa_format>:
10002aa4:	b5f0      	push	{r4, r5, r6, r7, lr}
10002aa6:	464f      	mov	r7, r9
10002aa8:	4646      	mov	r6, r8
10002aaa:	46d6      	mov	lr, sl
10002aac:	b5c0      	push	{r6, r7, lr}
10002aae:	b084      	sub	sp, #16
10002ab0:	4698      	mov	r8, r3
10002ab2:	ab0e      	add	r3, sp, #56	; 0x38
10002ab4:	781b      	ldrb	r3, [r3, #0]
10002ab6:	9f12      	ldr	r7, [sp, #72]	; 0x48
10002ab8:	4699      	mov	r9, r3
10002aba:	4694      	mov	ip, r2
10002abc:	9c0d      	ldr	r4, [sp, #52]	; 0x34
10002abe:	9b10      	ldr	r3, [sp, #64]	; 0x40
10002ac0:	9e11      	ldr	r6, [sp, #68]	; 0x44
10002ac2:	07ba      	lsls	r2, r7, #30
10002ac4:	d425      	bmi.n	10002b12 <_ntoa_format+0x6e>
10002ac6:	2e00      	cmp	r6, #0
10002ac8:	d14b      	bne.n	10002b62 <_ntoa_format+0xbe>
10002aca:	429c      	cmp	r4, r3
10002acc:	d300      	bcc.n	10002ad0 <_ntoa_format+0x2c>
10002ace:	e0bf      	b.n	10002c50 <_ntoa_format+0x1ac>
10002ad0:	2201      	movs	r2, #1
10002ad2:	403a      	ands	r2, r7
10002ad4:	4692      	mov	sl, r2
10002ad6:	2c1f      	cmp	r4, #31
10002ad8:	d900      	bls.n	10002adc <_ntoa_format+0x38>
10002ada:	e0b8      	b.n	10002c4e <_ntoa_format+0x1aa>
10002adc:	9a0c      	ldr	r2, [sp, #48]	; 0x30
10002ade:	1e55      	subs	r5, r2, #1
10002ae0:	2230      	movs	r2, #48	; 0x30
10002ae2:	e001      	b.n	10002ae8 <_ntoa_format+0x44>
10002ae4:	2c20      	cmp	r4, #32
10002ae6:	d003      	beq.n	10002af0 <_ntoa_format+0x4c>
10002ae8:	3401      	adds	r4, #1
10002aea:	552a      	strb	r2, [r5, r4]
10002aec:	42a3      	cmp	r3, r4
10002aee:	d8f9      	bhi.n	10002ae4 <_ntoa_format+0x40>
10002af0:	4652      	mov	r2, sl
10002af2:	2a00      	cmp	r2, #0
10002af4:	d00d      	beq.n	10002b12 <_ntoa_format+0x6e>
10002af6:	42a6      	cmp	r6, r4
10002af8:	d90b      	bls.n	10002b12 <_ntoa_format+0x6e>
10002afa:	2c20      	cmp	r4, #32
10002afc:	d044      	beq.n	10002b88 <_ntoa_format+0xe4>
10002afe:	9a0c      	ldr	r2, [sp, #48]	; 0x30
10002b00:	1e55      	subs	r5, r2, #1
10002b02:	2230      	movs	r2, #48	; 0x30
10002b04:	e001      	b.n	10002b0a <_ntoa_format+0x66>
10002b06:	2c20      	cmp	r4, #32
10002b08:	d03e      	beq.n	10002b88 <_ntoa_format+0xe4>
10002b0a:	3401      	adds	r4, #1
10002b0c:	552a      	strb	r2, [r5, r4]
10002b0e:	42b4      	cmp	r4, r6
10002b10:	d1f9      	bne.n	10002b06 <_ntoa_format+0x62>
10002b12:	06fa      	lsls	r2, r7, #27
10002b14:	d54d      	bpl.n	10002bb2 <_ntoa_format+0x10e>
10002b16:	057a      	lsls	r2, r7, #21
10002b18:	d43f      	bmi.n	10002b9a <_ntoa_format+0xf6>
10002b1a:	2c00      	cmp	r4, #0
10002b1c:	d139      	bne.n	10002b92 <_ntoa_format+0xee>
10002b1e:	9b0f      	ldr	r3, [sp, #60]	; 0x3c
10002b20:	2b10      	cmp	r3, #16
10002b22:	d100      	bne.n	10002b26 <_ntoa_format+0x82>
10002b24:	e079      	b.n	10002c1a <_ntoa_format+0x176>
10002b26:	9b0f      	ldr	r3, [sp, #60]	; 0x3c
10002b28:	2b02      	cmp	r3, #2
10002b2a:	d100      	bne.n	10002b2e <_ntoa_format+0x8a>
10002b2c:	e08a      	b.n	10002c44 <_ntoa_format+0x1a0>
10002b2e:	2330      	movs	r3, #48	; 0x30
10002b30:	9a0c      	ldr	r2, [sp, #48]	; 0x30
10002b32:	2401      	movs	r4, #1
10002b34:	7013      	strb	r3, [r2, #0]
10002b36:	464b      	mov	r3, r9
10002b38:	2b00      	cmp	r3, #0
10002b3a:	d03f      	beq.n	10002bbc <_ntoa_format+0x118>
10002b3c:	232d      	movs	r3, #45	; 0x2d
10002b3e:	9a0c      	ldr	r2, [sp, #48]	; 0x30
10002b40:	5513      	strb	r3, [r2, r4]
10002b42:	3401      	adds	r4, #1
10002b44:	9b0c      	ldr	r3, [sp, #48]	; 0x30
10002b46:	4662      	mov	r2, ip
10002b48:	9300      	str	r3, [sp, #0]
10002b4a:	9703      	str	r7, [sp, #12]
10002b4c:	4643      	mov	r3, r8
10002b4e:	9602      	str	r6, [sp, #8]
10002b50:	9401      	str	r4, [sp, #4]
10002b52:	f7ff ff59 	bl	10002a08 <_out_rev>
10002b56:	b004      	add	sp, #16
10002b58:	bce0      	pop	{r5, r6, r7}
10002b5a:	46ba      	mov	sl, r7
10002b5c:	46b1      	mov	r9, r6
10002b5e:	46a8      	mov	r8, r5
10002b60:	bdf0      	pop	{r4, r5, r6, r7, pc}
10002b62:	2201      	movs	r2, #1
10002b64:	0015      	movs	r5, r2
10002b66:	403d      	ands	r5, r7
10002b68:	46aa      	mov	sl, r5
10002b6a:	423a      	tst	r2, r7
10002b6c:	d02f      	beq.n	10002bce <_ntoa_format+0x12a>
10002b6e:	464a      	mov	r2, r9
10002b70:	2a00      	cmp	r2, #0
10002b72:	d102      	bne.n	10002b7a <_ntoa_format+0xd6>
10002b74:	320c      	adds	r2, #12
10002b76:	423a      	tst	r2, r7
10002b78:	d000      	beq.n	10002b7c <_ntoa_format+0xd8>
10002b7a:	3e01      	subs	r6, #1
10002b7c:	429c      	cmp	r4, r3
10002b7e:	d2ba      	bcs.n	10002af6 <_ntoa_format+0x52>
10002b80:	2c1f      	cmp	r4, #31
10002b82:	d9ab      	bls.n	10002adc <_ntoa_format+0x38>
10002b84:	2e20      	cmp	r6, #32
10002b86:	d927      	bls.n	10002bd8 <_ntoa_format+0x134>
10002b88:	2420      	movs	r4, #32
10002b8a:	06fa      	lsls	r2, r7, #27
10002b8c:	d5da      	bpl.n	10002b44 <_ntoa_format+0xa0>
10002b8e:	057a      	lsls	r2, r7, #21
10002b90:	d403      	bmi.n	10002b9a <_ntoa_format+0xf6>
10002b92:	42a3      	cmp	r3, r4
10002b94:	d02d      	beq.n	10002bf2 <_ntoa_format+0x14e>
10002b96:	42a6      	cmp	r6, r4
10002b98:	d02b      	beq.n	10002bf2 <_ntoa_format+0x14e>
10002b9a:	9b0f      	ldr	r3, [sp, #60]	; 0x3c
10002b9c:	2b10      	cmp	r3, #16
10002b9e:	d032      	beq.n	10002c06 <_ntoa_format+0x162>
10002ba0:	2b02      	cmp	r3, #2
10002ba2:	d020      	beq.n	10002be6 <_ntoa_format+0x142>
10002ba4:	2c20      	cmp	r4, #32
10002ba6:	d0cd      	beq.n	10002b44 <_ntoa_format+0xa0>
10002ba8:	2230      	movs	r2, #48	; 0x30
10002baa:	9b0c      	ldr	r3, [sp, #48]	; 0x30
10002bac:	191b      	adds	r3, r3, r4
10002bae:	701a      	strb	r2, [r3, #0]
10002bb0:	3401      	adds	r4, #1
10002bb2:	2c20      	cmp	r4, #32
10002bb4:	d0c6      	beq.n	10002b44 <_ntoa_format+0xa0>
10002bb6:	464b      	mov	r3, r9
10002bb8:	2b00      	cmp	r3, #0
10002bba:	d1bf      	bne.n	10002b3c <_ntoa_format+0x98>
10002bbc:	077b      	lsls	r3, r7, #29
10002bbe:	d40d      	bmi.n	10002bdc <_ntoa_format+0x138>
10002bc0:	073b      	lsls	r3, r7, #28
10002bc2:	d5bf      	bpl.n	10002b44 <_ntoa_format+0xa0>
10002bc4:	2320      	movs	r3, #32
10002bc6:	9a0c      	ldr	r2, [sp, #48]	; 0x30
10002bc8:	5513      	strb	r3, [r2, r4]
10002bca:	3401      	adds	r4, #1
10002bcc:	e7ba      	b.n	10002b44 <_ntoa_format+0xa0>
10002bce:	429c      	cmp	r4, r3
10002bd0:	d29f      	bcs.n	10002b12 <_ntoa_format+0x6e>
10002bd2:	2c1f      	cmp	r4, #31
10002bd4:	d800      	bhi.n	10002bd8 <_ntoa_format+0x134>
10002bd6:	e781      	b.n	10002adc <_ntoa_format+0x38>
10002bd8:	2420      	movs	r4, #32
10002bda:	e79a      	b.n	10002b12 <_ntoa_format+0x6e>
10002bdc:	232b      	movs	r3, #43	; 0x2b
10002bde:	9a0c      	ldr	r2, [sp, #48]	; 0x30
10002be0:	5513      	strb	r3, [r2, r4]
10002be2:	3401      	adds	r4, #1
10002be4:	e7ae      	b.n	10002b44 <_ntoa_format+0xa0>
10002be6:	2c20      	cmp	r4, #32
10002be8:	d0ac      	beq.n	10002b44 <_ntoa_format+0xa0>
10002bea:	9b0c      	ldr	r3, [sp, #48]	; 0x30
10002bec:	191b      	adds	r3, r3, r4
10002bee:	3401      	adds	r4, #1
10002bf0:	e03a      	b.n	10002c68 <_ntoa_format+0x1c4>
10002bf2:	1e63      	subs	r3, r4, #1
10002bf4:	2c01      	cmp	r4, #1
10002bf6:	d092      	beq.n	10002b1e <_ntoa_format+0x7a>
10002bf8:	9a0f      	ldr	r2, [sp, #60]	; 0x3c
10002bfa:	2a10      	cmp	r2, #16
10002bfc:	d02a      	beq.n	10002c54 <_ntoa_format+0x1b0>
10002bfe:	2a02      	cmp	r2, #2
10002c00:	d02f      	beq.n	10002c62 <_ntoa_format+0x1be>
10002c02:	001c      	movs	r4, r3
10002c04:	e7d0      	b.n	10002ba8 <_ntoa_format+0x104>
10002c06:	06bb      	lsls	r3, r7, #26
10002c08:	d40e      	bmi.n	10002c28 <_ntoa_format+0x184>
10002c0a:	2c20      	cmp	r4, #32
10002c0c:	d09a      	beq.n	10002b44 <_ntoa_format+0xa0>
10002c0e:	9b0c      	ldr	r3, [sp, #48]	; 0x30
10002c10:	191a      	adds	r2, r3, r4
10002c12:	3401      	adds	r4, #1
10002c14:	2378      	movs	r3, #120	; 0x78
10002c16:	7013      	strb	r3, [r2, #0]
10002c18:	e7c4      	b.n	10002ba4 <_ntoa_format+0x100>
10002c1a:	06bb      	lsls	r3, r7, #26
10002c1c:	d40d      	bmi.n	10002c3a <_ntoa_format+0x196>
10002c1e:	2378      	movs	r3, #120	; 0x78
10002c20:	9a0c      	ldr	r2, [sp, #48]	; 0x30
10002c22:	2401      	movs	r4, #1
10002c24:	7013      	strb	r3, [r2, #0]
10002c26:	e7bf      	b.n	10002ba8 <_ntoa_format+0x104>
10002c28:	2c20      	cmp	r4, #32
10002c2a:	d100      	bne.n	10002c2e <_ntoa_format+0x18a>
10002c2c:	e78a      	b.n	10002b44 <_ntoa_format+0xa0>
10002c2e:	2258      	movs	r2, #88	; 0x58
10002c30:	9b0c      	ldr	r3, [sp, #48]	; 0x30
10002c32:	191b      	adds	r3, r3, r4
10002c34:	701a      	strb	r2, [r3, #0]
10002c36:	3401      	adds	r4, #1
10002c38:	e7b4      	b.n	10002ba4 <_ntoa_format+0x100>
10002c3a:	2358      	movs	r3, #88	; 0x58
10002c3c:	9a0c      	ldr	r2, [sp, #48]	; 0x30
10002c3e:	2401      	movs	r4, #1
10002c40:	7013      	strb	r3, [r2, #0]
10002c42:	e7b1      	b.n	10002ba8 <_ntoa_format+0x104>
10002c44:	9a0c      	ldr	r2, [sp, #48]	; 0x30
10002c46:	3360      	adds	r3, #96	; 0x60
10002c48:	2401      	movs	r4, #1
10002c4a:	7013      	strb	r3, [r2, #0]
10002c4c:	e7ac      	b.n	10002ba8 <_ntoa_format+0x104>
10002c4e:	2420      	movs	r4, #32
10002c50:	2600      	movs	r6, #0
10002c52:	e75e      	b.n	10002b12 <_ntoa_format+0x6e>
10002c54:	3c02      	subs	r4, #2
10002c56:	06ba      	lsls	r2, r7, #26
10002c58:	d4e9      	bmi.n	10002c2e <_ntoa_format+0x18a>
10002c5a:	9a0c      	ldr	r2, [sp, #48]	; 0x30
10002c5c:	1912      	adds	r2, r2, r4
10002c5e:	001c      	movs	r4, r3
10002c60:	e7d8      	b.n	10002c14 <_ntoa_format+0x170>
10002c62:	9a0c      	ldr	r2, [sp, #48]	; 0x30
10002c64:	4692      	mov	sl, r2
10002c66:	4453      	add	r3, sl
10002c68:	2262      	movs	r2, #98	; 0x62
10002c6a:	701a      	strb	r2, [r3, #0]
10002c6c:	e79a      	b.n	10002ba4 <_ntoa_format+0x100>
10002c6e:	46c0      	nop			; (mov r8, r8)

10002c70 <_out_char>:
10002c70:	b510      	push	{r4, lr}
10002c72:	2800      	cmp	r0, #0
10002c74:	d100      	bne.n	10002c78 <_out_char+0x8>
10002c76:	bd10      	pop	{r4, pc}
10002c78:	f002 fa00 	bl	1000507c <__wrap_putchar>
10002c7c:	e7fb      	b.n	10002c76 <_out_char+0x6>
10002c7e:	46c0      	nop			; (mov r8, r8)

10002c80 <_out_fct>:
10002c80:	000b      	movs	r3, r1
10002c82:	b510      	push	{r4, lr}
10002c84:	2800      	cmp	r0, #0
10002c86:	d002      	beq.n	10002c8e <_out_fct+0xe>
10002c88:	6849      	ldr	r1, [r1, #4]
10002c8a:	681b      	ldr	r3, [r3, #0]
10002c8c:	4798      	blx	r3
10002c8e:	bd10      	pop	{r4, pc}

10002c90 <_etoa>:
10002c90:	b5f0      	push	{r4, r5, r6, r7, lr}
10002c92:	46de      	mov	lr, fp
10002c94:	4657      	mov	r7, sl
10002c96:	464e      	mov	r6, r9
10002c98:	4645      	mov	r5, r8
10002c9a:	b5e0      	push	{r5, r6, r7, lr}
10002c9c:	b09b      	sub	sp, #108	; 0x6c
10002c9e:	469b      	mov	fp, r3
10002ca0:	9b24      	ldr	r3, [sp, #144]	; 0x90
10002ca2:	4689      	mov	r9, r1
10002ca4:	4698      	mov	r8, r3
10002ca6:	9b25      	ldr	r3, [sp, #148]	; 0x94
10002ca8:	900b      	str	r0, [sp, #44]	; 0x2c
10002caa:	920c      	str	r2, [sp, #48]	; 0x30
10002cac:	4640      	mov	r0, r8
10002cae:	4642      	mov	r2, r8
10002cb0:	0019      	movs	r1, r3
10002cb2:	469a      	mov	sl, r3
10002cb4:	f001 fcb3 	bl	1000461e <__wrap___aeabi_dcmpun>
10002cb8:	2800      	cmp	r0, #0
10002cba:	d000      	beq.n	10002cbe <_etoa+0x2e>
10002cbc:	e0d8      	b.n	10002e70 <_etoa+0x1e0>
10002cbe:	2201      	movs	r2, #1
10002cc0:	4640      	mov	r0, r8
10002cc2:	4651      	mov	r1, sl
10002cc4:	4b77      	ldr	r3, [pc, #476]	; (10002ea4 <_etoa+0x214>)
10002cc6:	4252      	negs	r2, r2
10002cc8:	f001 fca4 	bl	10004614 <__wrap___aeabi_dcmpgt>
10002ccc:	2800      	cmp	r0, #0
10002cce:	d000      	beq.n	10002cd2 <_etoa+0x42>
10002cd0:	e0ce      	b.n	10002e70 <_etoa+0x1e0>
10002cd2:	2201      	movs	r2, #1
10002cd4:	4640      	mov	r0, r8
10002cd6:	4651      	mov	r1, sl
10002cd8:	4b73      	ldr	r3, [pc, #460]	; (10002ea8 <_etoa+0x218>)
10002cda:	4252      	negs	r2, r2
10002cdc:	f001 fc84 	bl	100045e8 <__wrap___aeabi_dcmplt>
10002ce0:	2800      	cmp	r0, #0
10002ce2:	d000      	beq.n	10002ce6 <_etoa+0x56>
10002ce4:	e0c4      	b.n	10002e70 <_etoa+0x1e0>
10002ce6:	2200      	movs	r2, #0
10002ce8:	2300      	movs	r3, #0
10002cea:	4640      	mov	r0, r8
10002cec:	4651      	mov	r1, sl
10002cee:	f001 fc7b 	bl	100045e8 <__wrap___aeabi_dcmplt>
10002cf2:	2800      	cmp	r0, #0
10002cf4:	d000      	beq.n	10002cf8 <_etoa+0x68>
10002cf6:	e1b9      	b.n	1000306c <_etoa+0x3dc>
10002cf8:	4642      	mov	r2, r8
10002cfa:	4653      	mov	r3, sl
10002cfc:	920a      	str	r2, [sp, #40]	; 0x28
10002cfe:	9309      	str	r3, [sp, #36]	; 0x24
10002d00:	2380      	movs	r3, #128	; 0x80
10002d02:	9a28      	ldr	r2, [sp, #160]	; 0xa0
10002d04:	00db      	lsls	r3, r3, #3
10002d06:	401a      	ands	r2, r3
10002d08:	920e      	str	r2, [sp, #56]	; 0x38
10002d0a:	9a28      	ldr	r2, [sp, #160]	; 0xa0
10002d0c:	421a      	tst	r2, r3
10002d0e:	d101      	bne.n	10002d14 <_etoa+0x84>
10002d10:	2306      	movs	r3, #6
10002d12:	9326      	str	r3, [sp, #152]	; 0x98
10002d14:	9a0a      	ldr	r2, [sp, #40]	; 0x28
10002d16:	9b09      	ldr	r3, [sp, #36]	; 0x24
10002d18:	0016      	movs	r6, r2
10002d1a:	4313      	orrs	r3, r2
10002d1c:	d000      	beq.n	10002d20 <_etoa+0x90>
10002d1e:	e0c7      	b.n	10002eb0 <_etoa+0x220>
10002d20:	9b28      	ldr	r3, [sp, #160]	; 0xa0
10002d22:	2500      	movs	r5, #0
10002d24:	2600      	movs	r6, #0
10002d26:	051b      	lsls	r3, r3, #20
10002d28:	d400      	bmi.n	10002d2c <_etoa+0x9c>
10002d2a:	e19b      	b.n	10003064 <_etoa+0x3d4>
10002d2c:	2300      	movs	r3, #0
10002d2e:	930d      	str	r3, [sp, #52]	; 0x34
10002d30:	9a26      	ldr	r2, [sp, #152]	; 0x98
10002d32:	9b0d      	ldr	r3, [sp, #52]	; 0x34
10002d34:	429a      	cmp	r2, r3
10002d36:	dc00      	bgt.n	10002d3a <_etoa+0xaa>
10002d38:	e19f      	b.n	1000307a <_etoa+0x3ea>
10002d3a:	1ad0      	subs	r0, r2, r3
10002d3c:	1e43      	subs	r3, r0, #1
10002d3e:	9326      	str	r3, [sp, #152]	; 0x98
10002d40:	2380      	movs	r3, #128	; 0x80
10002d42:	9a28      	ldr	r2, [sp, #160]	; 0xa0
10002d44:	00db      	lsls	r3, r3, #3
10002d46:	431a      	orrs	r2, r3
10002d48:	2300      	movs	r3, #0
10002d4a:	2700      	movs	r7, #0
10002d4c:	9228      	str	r2, [sp, #160]	; 0xa0
10002d4e:	930d      	str	r3, [sp, #52]	; 0x34
10002d50:	9b27      	ldr	r3, [sp, #156]	; 0x9c
10002d52:	2400      	movs	r4, #0
10002d54:	42bb      	cmp	r3, r7
10002d56:	d900      	bls.n	10002d5a <_etoa+0xca>
10002d58:	1bdc      	subs	r4, r3, r7
10002d5a:	2302      	movs	r3, #2
10002d5c:	9a28      	ldr	r2, [sp, #160]	; 0xa0
10002d5e:	401a      	ands	r2, r3
10002d60:	920e      	str	r2, [sp, #56]	; 0x38
10002d62:	9a28      	ldr	r2, [sp, #160]	; 0xa0
10002d64:	4213      	tst	r3, r2
10002d66:	d003      	beq.n	10002d70 <_etoa+0xe0>
10002d68:	427b      	negs	r3, r7
10002d6a:	417b      	adcs	r3, r7
10002d6c:	425b      	negs	r3, r3
10002d6e:	401c      	ands	r4, r3
10002d70:	9b0d      	ldr	r3, [sp, #52]	; 0x34
10002d72:	2b00      	cmp	r3, #0
10002d74:	d007      	beq.n	10002d86 <_etoa+0xf6>
10002d76:	980a      	ldr	r0, [sp, #40]	; 0x28
10002d78:	9909      	ldr	r1, [sp, #36]	; 0x24
10002d7a:	002a      	movs	r2, r5
10002d7c:	0033      	movs	r3, r6
10002d7e:	f001 fbd2 	bl	10004526 <__wrap___aeabi_ddiv>
10002d82:	900a      	str	r0, [sp, #40]	; 0x28
10002d84:	9109      	str	r1, [sp, #36]	; 0x24
10002d86:	2200      	movs	r2, #0
10002d88:	2300      	movs	r3, #0
10002d8a:	4640      	mov	r0, r8
10002d8c:	4651      	mov	r1, sl
10002d8e:	f001 fc2b 	bl	100045e8 <__wrap___aeabi_dcmplt>
10002d92:	2800      	cmp	r0, #0
10002d94:	d005      	beq.n	10002da2 <_etoa+0x112>
10002d96:	2080      	movs	r0, #128	; 0x80
10002d98:	0600      	lsls	r0, r0, #24
10002d9a:	4684      	mov	ip, r0
10002d9c:	9909      	ldr	r1, [sp, #36]	; 0x24
10002d9e:	4461      	add	r1, ip
10002da0:	9109      	str	r1, [sp, #36]	; 0x24
10002da2:	9a28      	ldr	r2, [sp, #160]	; 0xa0
10002da4:	4b41      	ldr	r3, [pc, #260]	; (10002eac <_etoa+0x21c>)
10002da6:	9d0b      	ldr	r5, [sp, #44]	; 0x2c
10002da8:	4013      	ands	r3, r2
10002daa:	9304      	str	r3, [sp, #16]
10002dac:	9b26      	ldr	r3, [sp, #152]	; 0x98
10002dae:	9a0a      	ldr	r2, [sp, #40]	; 0x28
10002db0:	9302      	str	r3, [sp, #8]
10002db2:	9b09      	ldr	r3, [sp, #36]	; 0x24
10002db4:	9403      	str	r4, [sp, #12]
10002db6:	9200      	str	r2, [sp, #0]
10002db8:	9301      	str	r3, [sp, #4]
10002dba:	4649      	mov	r1, r9
10002dbc:	465b      	mov	r3, fp
10002dbe:	0028      	movs	r0, r5
10002dc0:	9a0c      	ldr	r2, [sp, #48]	; 0x30
10002dc2:	f000 f98b 	bl	100030dc <_ftoa>
10002dc6:	0004      	movs	r4, r0
10002dc8:	2f00      	cmp	r7, #0
10002dca:	d062      	beq.n	10002e92 <_etoa+0x202>
10002dcc:	9b28      	ldr	r3, [sp, #160]	; 0xa0
10002dce:	0022      	movs	r2, r4
10002dd0:	0698      	lsls	r0, r3, #26
10002dd2:	231f      	movs	r3, #31
10002dd4:	17c0      	asrs	r0, r0, #31
10002dd6:	4398      	bics	r0, r3
10002dd8:	1c63      	adds	r3, r4, #1
10002dda:	4698      	mov	r8, r3
10002ddc:	4649      	mov	r1, r9
10002dde:	465b      	mov	r3, fp
10002de0:	3065      	adds	r0, #101	; 0x65
10002de2:	47a8      	blx	r5
10002de4:	9b0d      	ldr	r3, [sp, #52]	; 0x34
10002de6:	2500      	movs	r5, #0
10002de8:	17da      	asrs	r2, r3, #31
10002dea:	189c      	adds	r4, r3, r2
10002dec:	0fdb      	lsrs	r3, r3, #31
10002dee:	469a      	mov	sl, r3
10002df0:	4054      	eors	r4, r2
10002df2:	3f01      	subs	r7, #1
10002df4:	e001      	b.n	10002dfa <_etoa+0x16a>
10002df6:	2d20      	cmp	r5, #32
10002df8:	d013      	beq.n	10002e22 <_etoa+0x192>
10002dfa:	aa0a      	add	r2, sp, #40	; 0x28
10002dfc:	4694      	mov	ip, r2
10002dfe:	231f      	movs	r3, #31
10002e00:	0020      	movs	r0, r4
10002e02:	4463      	add	r3, ip
10002e04:	210a      	movs	r1, #10
10002e06:	3501      	adds	r5, #1
10002e08:	195e      	adds	r6, r3, r5
10002e0a:	f001 f93f 	bl	1000408c <__wrap___aeabi_uidiv>
10002e0e:	3130      	adds	r1, #48	; 0x30
10002e10:	7031      	strb	r1, [r6, #0]
10002e12:	0020      	movs	r0, r4
10002e14:	210a      	movs	r1, #10
10002e16:	f001 f939 	bl	1000408c <__wrap___aeabi_uidiv>
10002e1a:	0026      	movs	r6, r4
10002e1c:	0004      	movs	r4, r0
10002e1e:	2e09      	cmp	r6, #9
10002e20:	d8e9      	bhi.n	10002df6 <_etoa+0x166>
10002e22:	2305      	movs	r3, #5
10002e24:	9306      	str	r3, [sp, #24]
10002e26:	2300      	movs	r3, #0
10002e28:	9304      	str	r3, [sp, #16]
10002e2a:	330a      	adds	r3, #10
10002e2c:	9303      	str	r3, [sp, #12]
10002e2e:	4653      	mov	r3, sl
10002e30:	9705      	str	r7, [sp, #20]
10002e32:	9f0b      	ldr	r7, [sp, #44]	; 0x2c
10002e34:	9302      	str	r3, [sp, #8]
10002e36:	ab12      	add	r3, sp, #72	; 0x48
10002e38:	9300      	str	r3, [sp, #0]
10002e3a:	4642      	mov	r2, r8
10002e3c:	465b      	mov	r3, fp
10002e3e:	4649      	mov	r1, r9
10002e40:	0038      	movs	r0, r7
10002e42:	9501      	str	r5, [sp, #4]
10002e44:	f7ff fe2e 	bl	10002aa4 <_ntoa_format>
10002e48:	9b0e      	ldr	r3, [sp, #56]	; 0x38
10002e4a:	0004      	movs	r4, r0
10002e4c:	2b00      	cmp	r3, #0
10002e4e:	d020      	beq.n	10002e92 <_etoa+0x202>
10002e50:	9b0c      	ldr	r3, [sp, #48]	; 0x30
10002e52:	1ac5      	subs	r5, r0, r3
10002e54:	9b27      	ldr	r3, [sp, #156]	; 0x9c
10002e56:	42ab      	cmp	r3, r5
10002e58:	d91b      	bls.n	10002e92 <_etoa+0x202>
10002e5a:	001e      	movs	r6, r3
10002e5c:	0022      	movs	r2, r4
10002e5e:	465b      	mov	r3, fp
10002e60:	4649      	mov	r1, r9
10002e62:	2020      	movs	r0, #32
10002e64:	3501      	adds	r5, #1
10002e66:	47b8      	blx	r7
10002e68:	3401      	adds	r4, #1
10002e6a:	42ae      	cmp	r6, r5
10002e6c:	d8f6      	bhi.n	10002e5c <_etoa+0x1cc>
10002e6e:	e010      	b.n	10002e92 <_etoa+0x202>
10002e70:	9b28      	ldr	r3, [sp, #160]	; 0xa0
10002e72:	4642      	mov	r2, r8
10002e74:	9304      	str	r3, [sp, #16]
10002e76:	9b27      	ldr	r3, [sp, #156]	; 0x9c
10002e78:	4649      	mov	r1, r9
10002e7a:	9303      	str	r3, [sp, #12]
10002e7c:	9b26      	ldr	r3, [sp, #152]	; 0x98
10002e7e:	980b      	ldr	r0, [sp, #44]	; 0x2c
10002e80:	9302      	str	r3, [sp, #8]
10002e82:	4653      	mov	r3, sl
10002e84:	9200      	str	r2, [sp, #0]
10002e86:	9301      	str	r3, [sp, #4]
10002e88:	465b      	mov	r3, fp
10002e8a:	9a0c      	ldr	r2, [sp, #48]	; 0x30
10002e8c:	f000 f926 	bl	100030dc <_ftoa>
10002e90:	0004      	movs	r4, r0
10002e92:	0020      	movs	r0, r4
10002e94:	b01b      	add	sp, #108	; 0x6c
10002e96:	bcf0      	pop	{r4, r5, r6, r7}
10002e98:	46bb      	mov	fp, r7
10002e9a:	46b2      	mov	sl, r6
10002e9c:	46a9      	mov	r9, r5
10002e9e:	46a0      	mov	r8, r4
10002ea0:	bdf0      	pop	{r4, r5, r6, r7, pc}
10002ea2:	46c0      	nop			; (mov r8, r8)
10002ea4:	7fefffff 	.word	0x7fefffff
10002ea8:	ffefffff 	.word	0xffefffff
10002eac:	fffff7ff 	.word	0xfffff7ff
10002eb0:	4b73      	ldr	r3, [pc, #460]	; (10003080 <_etoa+0x3f0>)
10002eb2:	9f09      	ldr	r7, [sp, #36]	; 0x24
10002eb4:	469c      	mov	ip, r3
10002eb6:	0078      	lsls	r0, r7, #1
10002eb8:	0d40      	lsrs	r0, r0, #21
10002eba:	4460      	add	r0, ip
10002ebc:	f001 fbc2 	bl	10004644 <__wrap___aeabi_i2d>
10002ec0:	4a70      	ldr	r2, [pc, #448]	; (10003084 <_etoa+0x3f4>)
10002ec2:	4b71      	ldr	r3, [pc, #452]	; (10003088 <_etoa+0x3f8>)
10002ec4:	f001 fb4d 	bl	10004562 <__wrap___aeabi_dmul>
10002ec8:	4a70      	ldr	r2, [pc, #448]	; (1000308c <_etoa+0x3fc>)
10002eca:	4b71      	ldr	r3, [pc, #452]	; (10003090 <_etoa+0x400>)
10002ecc:	f001 fb22 	bl	10004514 <__wrap___aeabi_dadd>
10002ed0:	033b      	lsls	r3, r7, #12
10002ed2:	4a70      	ldr	r2, [pc, #448]	; (10003094 <_etoa+0x404>)
10002ed4:	0b1b      	lsrs	r3, r3, #12
10002ed6:	431a      	orrs	r2, r3
10002ed8:	0004      	movs	r4, r0
10002eda:	000d      	movs	r5, r1
10002edc:	0030      	movs	r0, r6
10002ede:	0011      	movs	r1, r2
10002ee0:	4b6d      	ldr	r3, [pc, #436]	; (10003098 <_etoa+0x408>)
10002ee2:	2200      	movs	r2, #0
10002ee4:	f001 fb0d 	bl	10004502 <__wrap___aeabi_dsub>
10002ee8:	4a6c      	ldr	r2, [pc, #432]	; (1000309c <_etoa+0x40c>)
10002eea:	4b6d      	ldr	r3, [pc, #436]	; (100030a0 <_etoa+0x410>)
10002eec:	f001 fb39 	bl	10004562 <__wrap___aeabi_dmul>
10002ef0:	0002      	movs	r2, r0
10002ef2:	000b      	movs	r3, r1
10002ef4:	0020      	movs	r0, r4
10002ef6:	0029      	movs	r1, r5
10002ef8:	f001 fb0c 	bl	10004514 <__wrap___aeabi_dadd>
10002efc:	f001 fbba 	bl	10004674 <__wrap___aeabi_d2iz>
10002f00:	900d      	str	r0, [sp, #52]	; 0x34
10002f02:	f001 fb9f 	bl	10004644 <__wrap___aeabi_i2d>
10002f06:	4a67      	ldr	r2, [pc, #412]	; (100030a4 <_etoa+0x414>)
10002f08:	4b67      	ldr	r3, [pc, #412]	; (100030a8 <_etoa+0x418>)
10002f0a:	0004      	movs	r4, r0
10002f0c:	000d      	movs	r5, r1
10002f0e:	f001 fb28 	bl	10004562 <__wrap___aeabi_dmul>
10002f12:	2200      	movs	r2, #0
10002f14:	4b65      	ldr	r3, [pc, #404]	; (100030ac <_etoa+0x41c>)
10002f16:	f001 fafd 	bl	10004514 <__wrap___aeabi_dadd>
10002f1a:	f001 fbab 	bl	10004674 <__wrap___aeabi_d2iz>
10002f1e:	4a64      	ldr	r2, [pc, #400]	; (100030b0 <_etoa+0x420>)
10002f20:	0006      	movs	r6, r0
10002f22:	4b64      	ldr	r3, [pc, #400]	; (100030b4 <_etoa+0x424>)
10002f24:	0020      	movs	r0, r4
10002f26:	0029      	movs	r1, r5
10002f28:	f001 fb1b 	bl	10004562 <__wrap___aeabi_dmul>
10002f2c:	0004      	movs	r4, r0
10002f2e:	0030      	movs	r0, r6
10002f30:	000d      	movs	r5, r1
10002f32:	960f      	str	r6, [sp, #60]	; 0x3c
10002f34:	f001 fb86 	bl	10004644 <__wrap___aeabi_i2d>
10002f38:	4a5f      	ldr	r2, [pc, #380]	; (100030b8 <_etoa+0x428>)
10002f3a:	4b60      	ldr	r3, [pc, #384]	; (100030bc <_etoa+0x42c>)
10002f3c:	f001 fb11 	bl	10004562 <__wrap___aeabi_dmul>
10002f40:	0002      	movs	r2, r0
10002f42:	000b      	movs	r3, r1
10002f44:	0020      	movs	r0, r4
10002f46:	0029      	movs	r1, r5
10002f48:	f001 fadb 	bl	10004502 <__wrap___aeabi_dsub>
10002f4c:	0002      	movs	r2, r0
10002f4e:	000b      	movs	r3, r1
10002f50:	0006      	movs	r6, r0
10002f52:	000f      	movs	r7, r1
10002f54:	f001 fb05 	bl	10004562 <__wrap___aeabi_dmul>
10002f58:	0032      	movs	r2, r6
10002f5a:	0004      	movs	r4, r0
10002f5c:	000d      	movs	r5, r1
10002f5e:	003b      	movs	r3, r7
10002f60:	0030      	movs	r0, r6
10002f62:	0039      	movs	r1, r7
10002f64:	f001 fad6 	bl	10004514 <__wrap___aeabi_dadd>
10002f68:	2200      	movs	r2, #0
10002f6a:	9010      	str	r0, [sp, #64]	; 0x40
10002f6c:	9111      	str	r1, [sp, #68]	; 0x44
10002f6e:	4b54      	ldr	r3, [pc, #336]	; (100030c0 <_etoa+0x430>)
10002f70:	0020      	movs	r0, r4
10002f72:	0029      	movs	r1, r5
10002f74:	f001 fad7 	bl	10004526 <__wrap___aeabi_ddiv>
10002f78:	2200      	movs	r2, #0
10002f7a:	4b52      	ldr	r3, [pc, #328]	; (100030c4 <_etoa+0x434>)
10002f7c:	f001 faca 	bl	10004514 <__wrap___aeabi_dadd>
10002f80:	0002      	movs	r2, r0
10002f82:	000b      	movs	r3, r1
10002f84:	0020      	movs	r0, r4
10002f86:	0029      	movs	r1, r5
10002f88:	f001 facd 	bl	10004526 <__wrap___aeabi_ddiv>
10002f8c:	2200      	movs	r2, #0
10002f8e:	4b4e      	ldr	r3, [pc, #312]	; (100030c8 <_etoa+0x438>)
10002f90:	f001 fac0 	bl	10004514 <__wrap___aeabi_dadd>
10002f94:	0002      	movs	r2, r0
10002f96:	000b      	movs	r3, r1
10002f98:	0020      	movs	r0, r4
10002f9a:	0029      	movs	r1, r5
10002f9c:	f001 fac3 	bl	10004526 <__wrap___aeabi_ddiv>
10002fa0:	000d      	movs	r5, r1
10002fa2:	2180      	movs	r1, #128	; 0x80
10002fa4:	0004      	movs	r4, r0
10002fa6:	0032      	movs	r2, r6
10002fa8:	003b      	movs	r3, r7
10002faa:	2000      	movs	r0, #0
10002fac:	05c9      	lsls	r1, r1, #23
10002fae:	f001 faa8 	bl	10004502 <__wrap___aeabi_dsub>
10002fb2:	0002      	movs	r2, r0
10002fb4:	000b      	movs	r3, r1
10002fb6:	0020      	movs	r0, r4
10002fb8:	0029      	movs	r1, r5
10002fba:	f001 faab 	bl	10004514 <__wrap___aeabi_dadd>
10002fbe:	0002      	movs	r2, r0
10002fc0:	000b      	movs	r3, r1
10002fc2:	9810      	ldr	r0, [sp, #64]	; 0x40
10002fc4:	9911      	ldr	r1, [sp, #68]	; 0x44
10002fc6:	f001 faae 	bl	10004526 <__wrap___aeabi_ddiv>
10002fca:	2200      	movs	r2, #0
10002fcc:	4b31      	ldr	r3, [pc, #196]	; (10003094 <_etoa+0x404>)
10002fce:	f001 faa1 	bl	10004514 <__wrap___aeabi_dadd>
10002fd2:	4b3e      	ldr	r3, [pc, #248]	; (100030cc <_etoa+0x43c>)
10002fd4:	9c0f      	ldr	r4, [sp, #60]	; 0x3c
10002fd6:	469c      	mov	ip, r3
10002fd8:	4464      	add	r4, ip
10002fda:	2200      	movs	r2, #0
10002fdc:	0523      	lsls	r3, r4, #20
10002fde:	f001 fac0 	bl	10004562 <__wrap___aeabi_dmul>
10002fe2:	0005      	movs	r5, r0
10002fe4:	000e      	movs	r6, r1
10002fe6:	0002      	movs	r2, r0
10002fe8:	000b      	movs	r3, r1
10002fea:	980a      	ldr	r0, [sp, #40]	; 0x28
10002fec:	9909      	ldr	r1, [sp, #36]	; 0x24
10002fee:	f001 fafb 	bl	100045e8 <__wrap___aeabi_dcmplt>
10002ff2:	2800      	cmp	r0, #0
10002ff4:	d00a      	beq.n	1000300c <_etoa+0x37c>
10002ff6:	9b0d      	ldr	r3, [sp, #52]	; 0x34
10002ff8:	0028      	movs	r0, r5
10002ffa:	3b01      	subs	r3, #1
10002ffc:	0031      	movs	r1, r6
10002ffe:	930d      	str	r3, [sp, #52]	; 0x34
10003000:	2200      	movs	r2, #0
10003002:	4b30      	ldr	r3, [pc, #192]	; (100030c4 <_etoa+0x434>)
10003004:	f001 fa8f 	bl	10004526 <__wrap___aeabi_ddiv>
10003008:	0005      	movs	r5, r0
1000300a:	000e      	movs	r6, r1
1000300c:	27c6      	movs	r7, #198	; 0xc6
1000300e:	990d      	ldr	r1, [sp, #52]	; 0x34
10003010:	002b      	movs	r3, r5
10003012:	3163      	adds	r1, #99	; 0x63
10003014:	428f      	cmp	r7, r1
10003016:	41bf      	sbcs	r7, r7
10003018:	9928      	ldr	r1, [sp, #160]	; 0xa0
1000301a:	427f      	negs	r7, r7
1000301c:	3704      	adds	r7, #4
1000301e:	0509      	lsls	r1, r1, #20
10003020:	d400      	bmi.n	10003024 <_etoa+0x394>
10003022:	e695      	b.n	10002d50 <_etoa+0xc0>
10003024:	4333      	orrs	r3, r6
10003026:	d100      	bne.n	1000302a <_etoa+0x39a>
10003028:	e682      	b.n	10002d30 <_etoa+0xa0>
1000302a:	9c09      	ldr	r4, [sp, #36]	; 0x24
1000302c:	4a28      	ldr	r2, [pc, #160]	; (100030d0 <_etoa+0x440>)
1000302e:	0021      	movs	r1, r4
10003030:	4b28      	ldr	r3, [pc, #160]	; (100030d4 <_etoa+0x444>)
10003032:	980a      	ldr	r0, [sp, #40]	; 0x28
10003034:	f001 fae6 	bl	10004604 <__wrap___aeabi_dcmpge>
10003038:	2800      	cmp	r0, #0
1000303a:	d008      	beq.n	1000304e <_etoa+0x3be>
1000303c:	2200      	movs	r2, #0
1000303e:	0021      	movs	r1, r4
10003040:	4b25      	ldr	r3, [pc, #148]	; (100030d8 <_etoa+0x448>)
10003042:	980a      	ldr	r0, [sp, #40]	; 0x28
10003044:	f001 fad0 	bl	100045e8 <__wrap___aeabi_dcmplt>
10003048:	2800      	cmp	r0, #0
1000304a:	d000      	beq.n	1000304e <_etoa+0x3be>
1000304c:	e670      	b.n	10002d30 <_etoa+0xa0>
1000304e:	9b26      	ldr	r3, [sp, #152]	; 0x98
10003050:	2b00      	cmp	r3, #0
10003052:	d100      	bne.n	10003056 <_etoa+0x3c6>
10003054:	e67c      	b.n	10002d50 <_etoa+0xc0>
10003056:	9b0e      	ldr	r3, [sp, #56]	; 0x38
10003058:	1e5a      	subs	r2, r3, #1
1000305a:	4193      	sbcs	r3, r2
1000305c:	9a26      	ldr	r2, [sp, #152]	; 0x98
1000305e:	1ad3      	subs	r3, r2, r3
10003060:	9326      	str	r3, [sp, #152]	; 0x98
10003062:	e675      	b.n	10002d50 <_etoa+0xc0>
10003064:	2300      	movs	r3, #0
10003066:	2704      	movs	r7, #4
10003068:	930d      	str	r3, [sp, #52]	; 0x34
1000306a:	e671      	b.n	10002d50 <_etoa+0xc0>
1000306c:	4643      	mov	r3, r8
1000306e:	930a      	str	r3, [sp, #40]	; 0x28
10003070:	2380      	movs	r3, #128	; 0x80
10003072:	061b      	lsls	r3, r3, #24
10003074:	4453      	add	r3, sl
10003076:	9309      	str	r3, [sp, #36]	; 0x24
10003078:	e642      	b.n	10002d00 <_etoa+0x70>
1000307a:	2300      	movs	r3, #0
1000307c:	9326      	str	r3, [sp, #152]	; 0x98
1000307e:	e65f      	b.n	10002d40 <_etoa+0xb0>
10003080:	fffffc01 	.word	0xfffffc01
10003084:	509f79fb 	.word	0x509f79fb
10003088:	3fd34413 	.word	0x3fd34413
1000308c:	8b60c8b3 	.word	0x8b60c8b3
10003090:	3fc68a28 	.word	0x3fc68a28
10003094:	3ff00000 	.word	0x3ff00000
10003098:	3ff80000 	.word	0x3ff80000
1000309c:	636f4361 	.word	0x636f4361
100030a0:	3fd287a7 	.word	0x3fd287a7
100030a4:	0979a371 	.word	0x0979a371
100030a8:	400a934f 	.word	0x400a934f
100030ac:	3fe00000 	.word	0x3fe00000
100030b0:	bbb55516 	.word	0xbbb55516
100030b4:	40026bb1 	.word	0x40026bb1
100030b8:	fefa39ef 	.word	0xfefa39ef
100030bc:	3fe62e42 	.word	0x3fe62e42
100030c0:	402c0000 	.word	0x402c0000
100030c4:	40240000 	.word	0x40240000
100030c8:	40180000 	.word	0x40180000
100030cc:	000003ff 	.word	0x000003ff
100030d0:	eb1c432d 	.word	0xeb1c432d
100030d4:	3f1a36e2 	.word	0x3f1a36e2
100030d8:	412e8480 	.word	0x412e8480

100030dc <_ftoa>:
100030dc:	b5f0      	push	{r4, r5, r6, r7, lr}
100030de:	464e      	mov	r6, r9
100030e0:	46de      	mov	lr, fp
100030e2:	4657      	mov	r7, sl
100030e4:	4645      	mov	r5, r8
100030e6:	b5e0      	push	{r5, r6, r7, lr}
100030e8:	b097      	sub	sp, #92	; 0x5c
100030ea:	4699      	mov	r9, r3
100030ec:	9e20      	ldr	r6, [sp, #128]	; 0x80
100030ee:	9f21      	ldr	r7, [sp, #132]	; 0x84
100030f0:	9b22      	ldr	r3, [sp, #136]	; 0x88
100030f2:	4683      	mov	fp, r0
100030f4:	4698      	mov	r8, r3
100030f6:	9107      	str	r1, [sp, #28]
100030f8:	920c      	str	r2, [sp, #48]	; 0x30
100030fa:	003b      	movs	r3, r7
100030fc:	0032      	movs	r2, r6
100030fe:	0030      	movs	r0, r6
10003100:	0039      	movs	r1, r7
10003102:	f001 fa8c 	bl	1000461e <__wrap___aeabi_dcmpun>
10003106:	2800      	cmp	r0, #0
10003108:	d000      	beq.n	1000310c <_ftoa+0x30>
1000310a:	e1a9      	b.n	10003460 <_ftoa+0x384>
1000310c:	2201      	movs	r2, #1
1000310e:	0030      	movs	r0, r6
10003110:	0039      	movs	r1, r7
10003112:	4bca      	ldr	r3, [pc, #808]	; (1000343c <_ftoa+0x360>)
10003114:	4252      	negs	r2, r2
10003116:	f001 fa67 	bl	100045e8 <__wrap___aeabi_dcmplt>
1000311a:	2800      	cmp	r0, #0
1000311c:	d000      	beq.n	10003120 <_ftoa+0x44>
1000311e:	e0e1      	b.n	100032e4 <_ftoa+0x208>
10003120:	2201      	movs	r2, #1
10003122:	0030      	movs	r0, r6
10003124:	0039      	movs	r1, r7
10003126:	4bc6      	ldr	r3, [pc, #792]	; (10003440 <_ftoa+0x364>)
10003128:	4252      	negs	r2, r2
1000312a:	f001 fa73 	bl	10004614 <__wrap___aeabi_dcmpgt>
1000312e:	2800      	cmp	r0, #0
10003130:	d000      	beq.n	10003134 <_ftoa+0x58>
10003132:	e0b7      	b.n	100032a4 <_ftoa+0x1c8>
10003134:	2200      	movs	r2, #0
10003136:	0030      	movs	r0, r6
10003138:	0039      	movs	r1, r7
1000313a:	4bc2      	ldr	r3, [pc, #776]	; (10003444 <_ftoa+0x368>)
1000313c:	f001 fa6a 	bl	10004614 <__wrap___aeabi_dcmpgt>
10003140:	2800      	cmp	r0, #0
10003142:	d000      	beq.n	10003146 <_ftoa+0x6a>
10003144:	e099      	b.n	1000327a <_ftoa+0x19e>
10003146:	2200      	movs	r2, #0
10003148:	0030      	movs	r0, r6
1000314a:	0039      	movs	r1, r7
1000314c:	4bbe      	ldr	r3, [pc, #760]	; (10003448 <_ftoa+0x36c>)
1000314e:	f001 fa4b 	bl	100045e8 <__wrap___aeabi_dcmplt>
10003152:	2800      	cmp	r0, #0
10003154:	d000      	beq.n	10003158 <_ftoa+0x7c>
10003156:	e090      	b.n	1000327a <_ftoa+0x19e>
10003158:	2200      	movs	r2, #0
1000315a:	2300      	movs	r3, #0
1000315c:	0030      	movs	r0, r6
1000315e:	0039      	movs	r1, r7
10003160:	f001 fa42 	bl	100045e8 <__wrap___aeabi_dcmplt>
10003164:	2800      	cmp	r0, #0
10003166:	d000      	beq.n	1000316a <_ftoa+0x8e>
10003168:	e0b1      	b.n	100032ce <_ftoa+0x1f2>
1000316a:	2300      	movs	r3, #0
1000316c:	930d      	str	r3, [sp, #52]	; 0x34
1000316e:	9b24      	ldr	r3, [sp, #144]	; 0x90
10003170:	055b      	lsls	r3, r3, #21
10003172:	d401      	bmi.n	10003178 <_ftoa+0x9c>
10003174:	2306      	movs	r3, #6
10003176:	4698      	mov	r8, r3
10003178:	ab08      	add	r3, sp, #32
1000317a:	469c      	mov	ip, r3
1000317c:	2217      	movs	r2, #23
1000317e:	2400      	movs	r4, #0
10003180:	2330      	movs	r3, #48	; 0x30
10003182:	4641      	mov	r1, r8
10003184:	4462      	add	r2, ip
10003186:	e004      	b.n	10003192 <_ftoa+0xb6>
10003188:	3401      	adds	r4, #1
1000318a:	5513      	strb	r3, [r2, r4]
1000318c:	3901      	subs	r1, #1
1000318e:	2c20      	cmp	r4, #32
10003190:	d001      	beq.n	10003196 <_ftoa+0xba>
10003192:	2909      	cmp	r1, #9
10003194:	d8f8      	bhi.n	10003188 <_ftoa+0xac>
10003196:	4688      	mov	r8, r1
10003198:	0030      	movs	r0, r6
1000319a:	0039      	movs	r1, r7
1000319c:	f001 fa6a 	bl	10004674 <__wrap___aeabi_d2iz>
100031a0:	4643      	mov	r3, r8
100031a2:	00da      	lsls	r2, r3, #3
100031a4:	4ba9      	ldr	r3, [pc, #676]	; (1000344c <_ftoa+0x370>)
100031a6:	0005      	movs	r5, r0
100031a8:	189b      	adds	r3, r3, r2
100031aa:	681a      	ldr	r2, [r3, #0]
100031ac:	685b      	ldr	r3, [r3, #4]
100031ae:	9208      	str	r2, [sp, #32]
100031b0:	9309      	str	r3, [sp, #36]	; 0x24
100031b2:	f001 fa47 	bl	10004644 <__wrap___aeabi_i2d>
100031b6:	0002      	movs	r2, r0
100031b8:	000b      	movs	r3, r1
100031ba:	0030      	movs	r0, r6
100031bc:	0039      	movs	r1, r7
100031be:	f001 f9a0 	bl	10004502 <__wrap___aeabi_dsub>
100031c2:	9a08      	ldr	r2, [sp, #32]
100031c4:	9b09      	ldr	r3, [sp, #36]	; 0x24
100031c6:	f001 f9cc 	bl	10004562 <__wrap___aeabi_dmul>
100031ca:	900a      	str	r0, [sp, #40]	; 0x28
100031cc:	910b      	str	r1, [sp, #44]	; 0x2c
100031ce:	f001 fa75 	bl	100046bc <__wrap___aeabi_d2uiz>
100031d2:	4682      	mov	sl, r0
100031d4:	f001 fa32 	bl	1000463c <__wrap___aeabi_ui2d>
100031d8:	0002      	movs	r2, r0
100031da:	000b      	movs	r3, r1
100031dc:	980a      	ldr	r0, [sp, #40]	; 0x28
100031de:	990b      	ldr	r1, [sp, #44]	; 0x2c
100031e0:	f001 f98f 	bl	10004502 <__wrap___aeabi_dsub>
100031e4:	2200      	movs	r2, #0
100031e6:	4b9a      	ldr	r3, [pc, #616]	; (10003450 <_ftoa+0x374>)
100031e8:	900a      	str	r0, [sp, #40]	; 0x28
100031ea:	910b      	str	r1, [sp, #44]	; 0x2c
100031ec:	f001 fa12 	bl	10004614 <__wrap___aeabi_dcmpgt>
100031f0:	2800      	cmp	r0, #0
100031f2:	d100      	bne.n	100031f6 <_ftoa+0x11a>
100031f4:	e0c0      	b.n	10003378 <_ftoa+0x29c>
100031f6:	2301      	movs	r3, #1
100031f8:	469c      	mov	ip, r3
100031fa:	44e2      	add	sl, ip
100031fc:	4650      	mov	r0, sl
100031fe:	f001 fa1d 	bl	1000463c <__wrap___aeabi_ui2d>
10003202:	0002      	movs	r2, r0
10003204:	000b      	movs	r3, r1
10003206:	9808      	ldr	r0, [sp, #32]
10003208:	9909      	ldr	r1, [sp, #36]	; 0x24
1000320a:	f001 f9f3 	bl	100045f4 <__wrap___aeabi_dcmple>
1000320e:	2800      	cmp	r0, #0
10003210:	d002      	beq.n	10003218 <_ftoa+0x13c>
10003212:	2300      	movs	r3, #0
10003214:	469a      	mov	sl, r3
10003216:	3501      	adds	r5, #1
10003218:	4643      	mov	r3, r8
1000321a:	2b00      	cmp	r3, #0
1000321c:	d06a      	beq.n	100032f4 <_ftoa+0x218>
1000321e:	ab08      	add	r3, sp, #32
10003220:	2617      	movs	r6, #23
10003222:	469c      	mov	ip, r3
10003224:	9508      	str	r5, [sp, #32]
10003226:	4466      	add	r6, ip
10003228:	4655      	mov	r5, sl
1000322a:	e014      	b.n	10003256 <_ftoa+0x17a>
1000322c:	2301      	movs	r3, #1
1000322e:	425b      	negs	r3, r3
10003230:	4443      	add	r3, r8
10003232:	210a      	movs	r1, #10
10003234:	0028      	movs	r0, r5
10003236:	469a      	mov	sl, r3
10003238:	f000 ff28 	bl	1000408c <__wrap___aeabi_uidiv>
1000323c:	3401      	adds	r4, #1
1000323e:	3130      	adds	r1, #48	; 0x30
10003240:	1937      	adds	r7, r6, r4
10003242:	7039      	strb	r1, [r7, #0]
10003244:	0028      	movs	r0, r5
10003246:	210a      	movs	r1, #10
10003248:	f000 ff20 	bl	1000408c <__wrap___aeabi_uidiv>
1000324c:	2d09      	cmp	r5, #9
1000324e:	d800      	bhi.n	10003252 <_ftoa+0x176>
10003250:	e0d0      	b.n	100033f4 <_ftoa+0x318>
10003252:	46d0      	mov	r8, sl
10003254:	0005      	movs	r5, r0
10003256:	2c20      	cmp	r4, #32
10003258:	d1e8      	bne.n	1000322c <_ftoa+0x150>
1000325a:	ab0e      	add	r3, sp, #56	; 0x38
1000325c:	4698      	mov	r8, r3
1000325e:	2303      	movs	r3, #3
10003260:	9a24      	ldr	r2, [sp, #144]	; 0x90
10003262:	4013      	ands	r3, r2
10003264:	2b01      	cmp	r3, #1
10003266:	d100      	bne.n	1000326a <_ftoa+0x18e>
10003268:	e096      	b.n	10003398 <_ftoa+0x2bc>
1000326a:	2320      	movs	r3, #32
1000326c:	9a24      	ldr	r2, [sp, #144]	; 0x90
1000326e:	9301      	str	r3, [sp, #4]
10003270:	9203      	str	r2, [sp, #12]
10003272:	9a23      	ldr	r2, [sp, #140]	; 0x8c
10003274:	4643      	mov	r3, r8
10003276:	9202      	str	r2, [sp, #8]
10003278:	e01e      	b.n	100032b8 <_ftoa+0x1dc>
1000327a:	9b24      	ldr	r3, [sp, #144]	; 0x90
1000327c:	4658      	mov	r0, fp
1000327e:	9304      	str	r3, [sp, #16]
10003280:	9b23      	ldr	r3, [sp, #140]	; 0x8c
10003282:	9600      	str	r6, [sp, #0]
10003284:	9701      	str	r7, [sp, #4]
10003286:	9303      	str	r3, [sp, #12]
10003288:	4643      	mov	r3, r8
1000328a:	9a0c      	ldr	r2, [sp, #48]	; 0x30
1000328c:	9302      	str	r3, [sp, #8]
1000328e:	9907      	ldr	r1, [sp, #28]
10003290:	464b      	mov	r3, r9
10003292:	f7ff fcfd 	bl	10002c90 <_etoa>
10003296:	b017      	add	sp, #92	; 0x5c
10003298:	bcf0      	pop	{r4, r5, r6, r7}
1000329a:	46bb      	mov	fp, r7
1000329c:	46b2      	mov	sl, r6
1000329e:	46a9      	mov	r9, r5
100032a0:	46a0      	mov	r8, r4
100032a2:	bdf0      	pop	{r4, r5, r6, r7, pc}
100032a4:	9b24      	ldr	r3, [sp, #144]	; 0x90
100032a6:	075b      	lsls	r3, r3, #29
100032a8:	d40e      	bmi.n	100032c8 <_ftoa+0x1ec>
100032aa:	2203      	movs	r2, #3
100032ac:	4b69      	ldr	r3, [pc, #420]	; (10003454 <_ftoa+0x378>)
100032ae:	9924      	ldr	r1, [sp, #144]	; 0x90
100032b0:	9201      	str	r2, [sp, #4]
100032b2:	9103      	str	r1, [sp, #12]
100032b4:	9923      	ldr	r1, [sp, #140]	; 0x8c
100032b6:	9102      	str	r1, [sp, #8]
100032b8:	9300      	str	r3, [sp, #0]
100032ba:	4658      	mov	r0, fp
100032bc:	464b      	mov	r3, r9
100032be:	9a0c      	ldr	r2, [sp, #48]	; 0x30
100032c0:	9907      	ldr	r1, [sp, #28]
100032c2:	f7ff fba1 	bl	10002a08 <_out_rev>
100032c6:	e7e6      	b.n	10003296 <_ftoa+0x1ba>
100032c8:	2204      	movs	r2, #4
100032ca:	4b63      	ldr	r3, [pc, #396]	; (10003458 <_ftoa+0x37c>)
100032cc:	e7ef      	b.n	100032ae <_ftoa+0x1d2>
100032ce:	003b      	movs	r3, r7
100032d0:	0032      	movs	r2, r6
100032d2:	2000      	movs	r0, #0
100032d4:	2100      	movs	r1, #0
100032d6:	f001 f914 	bl	10004502 <__wrap___aeabi_dsub>
100032da:	2301      	movs	r3, #1
100032dc:	0006      	movs	r6, r0
100032de:	000f      	movs	r7, r1
100032e0:	930d      	str	r3, [sp, #52]	; 0x34
100032e2:	e744      	b.n	1000316e <_ftoa+0x92>
100032e4:	9b24      	ldr	r3, [sp, #144]	; 0x90
100032e6:	9303      	str	r3, [sp, #12]
100032e8:	9b23      	ldr	r3, [sp, #140]	; 0x8c
100032ea:	9302      	str	r3, [sp, #8]
100032ec:	2304      	movs	r3, #4
100032ee:	9301      	str	r3, [sp, #4]
100032f0:	4b5a      	ldr	r3, [pc, #360]	; (1000345c <_ftoa+0x380>)
100032f2:	e7e1      	b.n	100032b8 <_ftoa+0x1dc>
100032f4:	0028      	movs	r0, r5
100032f6:	f001 f9a5 	bl	10004644 <__wrap___aeabi_i2d>
100032fa:	0002      	movs	r2, r0
100032fc:	000b      	movs	r3, r1
100032fe:	0030      	movs	r0, r6
10003300:	0039      	movs	r1, r7
10003302:	f001 f8fe 	bl	10004502 <__wrap___aeabi_dsub>
10003306:	4b52      	ldr	r3, [pc, #328]	; (10003450 <_ftoa+0x374>)
10003308:	2200      	movs	r2, #0
1000330a:	0006      	movs	r6, r0
1000330c:	000f      	movs	r7, r1
1000330e:	f001 f96b 	bl	100045e8 <__wrap___aeabi_dcmplt>
10003312:	ab0e      	add	r3, sp, #56	; 0x38
10003314:	4698      	mov	r8, r3
10003316:	2800      	cmp	r0, #0
10003318:	d10a      	bne.n	10003330 <_ftoa+0x254>
1000331a:	2200      	movs	r2, #0
1000331c:	0030      	movs	r0, r6
1000331e:	0039      	movs	r1, r7
10003320:	4b4b      	ldr	r3, [pc, #300]	; (10003450 <_ftoa+0x374>)
10003322:	f001 f977 	bl	10004614 <__wrap___aeabi_dcmpgt>
10003326:	2800      	cmp	r0, #0
10003328:	d102      	bne.n	10003330 <_ftoa+0x254>
1000332a:	07eb      	lsls	r3, r5, #31
1000332c:	d500      	bpl.n	10003330 <_ftoa+0x254>
1000332e:	3501      	adds	r5, #1
10003330:	2c20      	cmp	r4, #32
10003332:	d094      	beq.n	1000325e <_ftoa+0x182>
10003334:	aa08      	add	r2, sp, #32
10003336:	4694      	mov	ip, r2
10003338:	2317      	movs	r3, #23
1000333a:	0028      	movs	r0, r5
1000333c:	4463      	add	r3, ip
1000333e:	210a      	movs	r1, #10
10003340:	3401      	adds	r4, #1
10003342:	191e      	adds	r6, r3, r4
10003344:	f000 fe7a 	bl	1000403c <__wrap___aeabi_idiv>
10003348:	3130      	adds	r1, #48	; 0x30
1000334a:	0028      	movs	r0, r5
1000334c:	7031      	strb	r1, [r6, #0]
1000334e:	210a      	movs	r1, #10
10003350:	f000 fe74 	bl	1000403c <__wrap___aeabi_idiv>
10003354:	1e05      	subs	r5, r0, #0
10003356:	d1eb      	bne.n	10003330 <_ftoa+0x254>
10003358:	2303      	movs	r3, #3
1000335a:	9a24      	ldr	r2, [sp, #144]	; 0x90
1000335c:	4013      	ands	r3, r2
1000335e:	2b01      	cmp	r3, #1
10003360:	d01b      	beq.n	1000339a <_ftoa+0x2be>
10003362:	2c20      	cmp	r4, #32
10003364:	d100      	bne.n	10003368 <_ftoa+0x28c>
10003366:	e780      	b.n	1000326a <_ftoa+0x18e>
10003368:	9b0d      	ldr	r3, [sp, #52]	; 0x34
1000336a:	2b00      	cmp	r3, #0
1000336c:	d035      	beq.n	100033da <_ftoa+0x2fe>
1000336e:	222d      	movs	r2, #45	; 0x2d
10003370:	4641      	mov	r1, r8
10003372:	1c63      	adds	r3, r4, #1
10003374:	550a      	strb	r2, [r1, r4]
10003376:	e779      	b.n	1000326c <_ftoa+0x190>
10003378:	2200      	movs	r2, #0
1000337a:	980a      	ldr	r0, [sp, #40]	; 0x28
1000337c:	990b      	ldr	r1, [sp, #44]	; 0x2c
1000337e:	4b34      	ldr	r3, [pc, #208]	; (10003450 <_ftoa+0x374>)
10003380:	f001 f932 	bl	100045e8 <__wrap___aeabi_dcmplt>
10003384:	2800      	cmp	r0, #0
10003386:	d000      	beq.n	1000338a <_ftoa+0x2ae>
10003388:	e746      	b.n	10003218 <_ftoa+0x13c>
1000338a:	4653      	mov	r3, sl
1000338c:	2b00      	cmp	r3, #0
1000338e:	d151      	bne.n	10003434 <_ftoa+0x358>
10003390:	2301      	movs	r3, #1
10003392:	469c      	mov	ip, r3
10003394:	44e2      	add	sl, ip
10003396:	e73f      	b.n	10003218 <_ftoa+0x13c>
10003398:	2420      	movs	r4, #32
1000339a:	9b23      	ldr	r3, [sp, #140]	; 0x8c
1000339c:	2b00      	cmp	r3, #0
1000339e:	d0e0      	beq.n	10003362 <_ftoa+0x286>
100033a0:	9b0d      	ldr	r3, [sp, #52]	; 0x34
100033a2:	2b00      	cmp	r3, #0
100033a4:	d103      	bne.n	100033ae <_ftoa+0x2d2>
100033a6:	9a24      	ldr	r2, [sp, #144]	; 0x90
100033a8:	330c      	adds	r3, #12
100033aa:	4213      	tst	r3, r2
100033ac:	d002      	beq.n	100033b4 <_ftoa+0x2d8>
100033ae:	9b23      	ldr	r3, [sp, #140]	; 0x8c
100033b0:	3b01      	subs	r3, #1
100033b2:	9323      	str	r3, [sp, #140]	; 0x8c
100033b4:	9b23      	ldr	r3, [sp, #140]	; 0x8c
100033b6:	42a3      	cmp	r3, r4
100033b8:	d9d3      	bls.n	10003362 <_ftoa+0x286>
100033ba:	ab08      	add	r3, sp, #32
100033bc:	469c      	mov	ip, r3
100033be:	2217      	movs	r2, #23
100033c0:	2330      	movs	r3, #48	; 0x30
100033c2:	4462      	add	r2, ip
100033c4:	2c20      	cmp	r4, #32
100033c6:	d100      	bne.n	100033ca <_ftoa+0x2ee>
100033c8:	e74f      	b.n	1000326a <_ftoa+0x18e>
100033ca:	9923      	ldr	r1, [sp, #140]	; 0x8c
100033cc:	3401      	adds	r4, #1
100033ce:	5513      	strb	r3, [r2, r4]
100033d0:	428c      	cmp	r4, r1
100033d2:	d0c6      	beq.n	10003362 <_ftoa+0x286>
100033d4:	2c20      	cmp	r4, #32
100033d6:	d1f8      	bne.n	100033ca <_ftoa+0x2ee>
100033d8:	e747      	b.n	1000326a <_ftoa+0x18e>
100033da:	9b24      	ldr	r3, [sp, #144]	; 0x90
100033dc:	075b      	lsls	r3, r3, #29
100033de:	d424      	bmi.n	1000342a <_ftoa+0x34e>
100033e0:	9a24      	ldr	r2, [sp, #144]	; 0x90
100033e2:	0023      	movs	r3, r4
100033e4:	0712      	lsls	r2, r2, #28
100033e6:	d400      	bmi.n	100033ea <_ftoa+0x30e>
100033e8:	e740      	b.n	1000326c <_ftoa+0x190>
100033ea:	2220      	movs	r2, #32
100033ec:	4641      	mov	r1, r8
100033ee:	3301      	adds	r3, #1
100033f0:	550a      	strb	r2, [r1, r4]
100033f2:	e73b      	b.n	1000326c <_ftoa+0x190>
100033f4:	4657      	mov	r7, sl
100033f6:	9d08      	ldr	r5, [sp, #32]
100033f8:	2c20      	cmp	r4, #32
100033fa:	d100      	bne.n	100033fe <_ftoa+0x322>
100033fc:	e72d      	b.n	1000325a <_ftoa+0x17e>
100033fe:	0022      	movs	r2, r4
10003400:	2130      	movs	r1, #48	; 0x30
10003402:	4640      	mov	r0, r8
10003404:	2f00      	cmp	r7, #0
10003406:	d009      	beq.n	1000341c <_ftoa+0x340>
10003408:	3201      	adds	r2, #1
1000340a:	54b1      	strb	r1, [r6, r2]
1000340c:	2a20      	cmp	r2, #32
1000340e:	d100      	bne.n	10003412 <_ftoa+0x336>
10003410:	e723      	b.n	1000325a <_ftoa+0x17e>
10003412:	43d3      	mvns	r3, r2
10003414:	191b      	adds	r3, r3, r4
10003416:	181b      	adds	r3, r3, r0
10003418:	2b00      	cmp	r3, #0
1000341a:	d1f5      	bne.n	10003408 <_ftoa+0x32c>
1000341c:	ab0e      	add	r3, sp, #56	; 0x38
1000341e:	4698      	mov	r8, r3
10003420:	232e      	movs	r3, #46	; 0x2e
10003422:	4641      	mov	r1, r8
10003424:	1c54      	adds	r4, r2, #1
10003426:	548b      	strb	r3, [r1, r2]
10003428:	e782      	b.n	10003330 <_ftoa+0x254>
1000342a:	222b      	movs	r2, #43	; 0x2b
1000342c:	4641      	mov	r1, r8
1000342e:	1c63      	adds	r3, r4, #1
10003430:	550a      	strb	r2, [r1, r4]
10003432:	e71b      	b.n	1000326c <_ftoa+0x190>
10003434:	07db      	lsls	r3, r3, #31
10003436:	d400      	bmi.n	1000343a <_ftoa+0x35e>
10003438:	e6ee      	b.n	10003218 <_ftoa+0x13c>
1000343a:	e7a9      	b.n	10003390 <_ftoa+0x2b4>
1000343c:	ffefffff 	.word	0xffefffff
10003440:	7fefffff 	.word	0x7fefffff
10003444:	41cdcd65 	.word	0x41cdcd65
10003448:	c1cdcd65 	.word	0xc1cdcd65
1000344c:	10007f78 	.word	0x10007f78
10003450:	3fe00000 	.word	0x3fe00000
10003454:	10007d7c 	.word	0x10007d7c
10003458:	10007d80 	.word	0x10007d80
1000345c:	10007d8c 	.word	0x10007d8c
10003460:	9b24      	ldr	r3, [sp, #144]	; 0x90
10003462:	9303      	str	r3, [sp, #12]
10003464:	9b23      	ldr	r3, [sp, #140]	; 0x8c
10003466:	9302      	str	r3, [sp, #8]
10003468:	2303      	movs	r3, #3
1000346a:	9301      	str	r3, [sp, #4]
1000346c:	4b00      	ldr	r3, [pc, #0]	; (10003470 <_ftoa+0x394>)
1000346e:	e723      	b.n	100032b8 <_ftoa+0x1dc>
10003470:	10007d88 	.word	0x10007d88

10003474 <_vsnprintf>:
10003474:	b5f0      	push	{r4, r5, r6, r7, lr}
10003476:	46de      	mov	lr, fp
10003478:	464e      	mov	r6, r9
1000347a:	4657      	mov	r7, sl
1000347c:	4645      	mov	r5, r8
1000347e:	b5e0      	push	{r5, r6, r7, lr}
10003480:	b09f      	sub	sp, #124	; 0x7c
10003482:	001c      	movs	r4, r3
10003484:	9b28      	ldr	r3, [sp, #160]	; 0xa0
10003486:	4691      	mov	r9, r2
10003488:	9309      	str	r3, [sp, #36]	; 0x24
1000348a:	4ac9      	ldr	r2, [pc, #804]	; (100037b0 <_vsnprintf+0x33c>)
1000348c:	4bc9      	ldr	r3, [pc, #804]	; (100037b4 <_vsnprintf+0x340>)
1000348e:	468b      	mov	fp, r1
10003490:	9008      	str	r0, [sp, #32]
10003492:	601a      	str	r2, [r3, #0]
10003494:	2900      	cmp	r1, #0
10003496:	d100      	bne.n	1000349a <_vsnprintf+0x26>
10003498:	e218      	b.n	100038cc <_vsnprintf+0x458>
1000349a:	2300      	movs	r3, #0
1000349c:	7820      	ldrb	r0, [r4, #0]
1000349e:	469a      	mov	sl, r3
100034a0:	2800      	cmp	r0, #0
100034a2:	d100      	bne.n	100034a6 <_vsnprintf+0x32>
100034a4:	e21a      	b.n	100038dc <_vsnprintf+0x468>
100034a6:	0026      	movs	r6, r4
100034a8:	001d      	movs	r5, r3
100034aa:	465c      	mov	r4, fp
100034ac:	e00a      	b.n	100034c4 <_vsnprintf+0x50>
100034ae:	002a      	movs	r2, r5
100034b0:	1c6f      	adds	r7, r5, #1
100034b2:	464b      	mov	r3, r9
100034b4:	9d08      	ldr	r5, [sp, #32]
100034b6:	0021      	movs	r1, r4
100034b8:	47a8      	blx	r5
100034ba:	003d      	movs	r5, r7
100034bc:	3601      	adds	r6, #1
100034be:	7830      	ldrb	r0, [r6, #0]
100034c0:	2800      	cmp	r0, #0
100034c2:	d070      	beq.n	100035a6 <_vsnprintf+0x132>
100034c4:	2825      	cmp	r0, #37	; 0x25
100034c6:	d1f2      	bne.n	100034ae <_vsnprintf+0x3a>
100034c8:	2310      	movs	r3, #16
100034ca:	469b      	mov	fp, r3
100034cc:	3b08      	subs	r3, #8
100034ce:	469a      	mov	sl, r3
100034d0:	3b04      	subs	r3, #4
100034d2:	4698      	mov	r8, r3
100034d4:	3b02      	subs	r3, #2
100034d6:	2100      	movs	r1, #0
100034d8:	469c      	mov	ip, r3
100034da:	1c72      	adds	r2, r6, #1
100034dc:	7810      	ldrb	r0, [r2, #0]
100034de:	0016      	movs	r6, r2
100034e0:	0003      	movs	r3, r0
100034e2:	3b20      	subs	r3, #32
100034e4:	b2db      	uxtb	r3, r3
100034e6:	2b10      	cmp	r3, #16
100034e8:	d803      	bhi.n	100034f2 <_vsnprintf+0x7e>
100034ea:	4fb3      	ldr	r7, [pc, #716]	; (100037b8 <_vsnprintf+0x344>)
100034ec:	009b      	lsls	r3, r3, #2
100034ee:	58fb      	ldr	r3, [r7, r3]
100034f0:	469f      	mov	pc, r3
100034f2:	0003      	movs	r3, r0
100034f4:	3b30      	subs	r3, #48	; 0x30
100034f6:	2b09      	cmp	r3, #9
100034f8:	d932      	bls.n	10003560 <_vsnprintf+0xec>
100034fa:	2300      	movs	r3, #0
100034fc:	930a      	str	r3, [sp, #40]	; 0x28
100034fe:	282a      	cmp	r0, #42	; 0x2a
10003500:	d068      	beq.n	100035d4 <_vsnprintf+0x160>
10003502:	2300      	movs	r3, #0
10003504:	4698      	mov	r8, r3
10003506:	282e      	cmp	r0, #46	; 0x2e
10003508:	d03e      	beq.n	10003588 <_vsnprintf+0x114>
1000350a:	0003      	movs	r3, r0
1000350c:	3b68      	subs	r3, #104	; 0x68
1000350e:	b2db      	uxtb	r3, r3
10003510:	2b12      	cmp	r3, #18
10003512:	d81c      	bhi.n	1000354e <_vsnprintf+0xda>
10003514:	4aa9      	ldr	r2, [pc, #676]	; (100037bc <_vsnprintf+0x348>)
10003516:	009b      	lsls	r3, r3, #2
10003518:	58d3      	ldr	r3, [r2, r3]
1000351a:	469f      	mov	pc, r3
1000351c:	2301      	movs	r3, #1
1000351e:	3201      	adds	r2, #1
10003520:	4319      	orrs	r1, r3
10003522:	e7db      	b.n	100034dc <_vsnprintf+0x68>
10003524:	4663      	mov	r3, ip
10003526:	3201      	adds	r2, #1
10003528:	4319      	orrs	r1, r3
1000352a:	e7d7      	b.n	100034dc <_vsnprintf+0x68>
1000352c:	4643      	mov	r3, r8
1000352e:	3201      	adds	r2, #1
10003530:	4319      	orrs	r1, r3
10003532:	e7d3      	b.n	100034dc <_vsnprintf+0x68>
10003534:	465b      	mov	r3, fp
10003536:	3201      	adds	r2, #1
10003538:	4319      	orrs	r1, r3
1000353a:	e7cf      	b.n	100034dc <_vsnprintf+0x68>
1000353c:	4653      	mov	r3, sl
1000353e:	3201      	adds	r2, #1
10003540:	4319      	orrs	r1, r3
10003542:	e7cb      	b.n	100034dc <_vsnprintf+0x68>
10003544:	2380      	movs	r3, #128	; 0x80
10003546:	005b      	lsls	r3, r3, #1
10003548:	7870      	ldrb	r0, [r6, #1]
1000354a:	4319      	orrs	r1, r3
1000354c:	3601      	adds	r6, #1
1000354e:	0003      	movs	r3, r0
10003550:	3b25      	subs	r3, #37	; 0x25
10003552:	b2db      	uxtb	r3, r3
10003554:	2b53      	cmp	r3, #83	; 0x53
10003556:	d8aa      	bhi.n	100034ae <_vsnprintf+0x3a>
10003558:	4a99      	ldr	r2, [pc, #612]	; (100037c0 <_vsnprintf+0x34c>)
1000355a:	009b      	lsls	r3, r3, #2
1000355c:	58d3      	ldr	r3, [r2, r3]
1000355e:	469f      	mov	pc, r3
10003560:	2700      	movs	r7, #0
10003562:	0003      	movs	r3, r0
10003564:	00b8      	lsls	r0, r7, #2
10003566:	19c0      	adds	r0, r0, r7
10003568:	3601      	adds	r6, #1
1000356a:	0040      	lsls	r0, r0, #1
1000356c:	18c0      	adds	r0, r0, r3
1000356e:	7833      	ldrb	r3, [r6, #0]
10003570:	3830      	subs	r0, #48	; 0x30
10003572:	001a      	movs	r2, r3
10003574:	3a30      	subs	r2, #48	; 0x30
10003576:	0007      	movs	r7, r0
10003578:	2a09      	cmp	r2, #9
1000357a:	d9f3      	bls.n	10003564 <_vsnprintf+0xf0>
1000357c:	900a      	str	r0, [sp, #40]	; 0x28
1000357e:	0018      	movs	r0, r3
10003580:	2300      	movs	r3, #0
10003582:	4698      	mov	r8, r3
10003584:	282e      	cmp	r0, #46	; 0x2e
10003586:	d1c0      	bne.n	1000350a <_vsnprintf+0x96>
10003588:	2380      	movs	r3, #128	; 0x80
1000358a:	7870      	ldrb	r0, [r6, #1]
1000358c:	00db      	lsls	r3, r3, #3
1000358e:	4319      	orrs	r1, r3
10003590:	0003      	movs	r3, r0
10003592:	3b30      	subs	r3, #48	; 0x30
10003594:	1c72      	adds	r2, r6, #1
10003596:	2b09      	cmp	r3, #9
10003598:	d800      	bhi.n	1000359c <_vsnprintf+0x128>
1000359a:	e1a1      	b.n	100038e0 <_vsnprintf+0x46c>
1000359c:	282a      	cmp	r0, #42	; 0x2a
1000359e:	d100      	bne.n	100035a2 <_vsnprintf+0x12e>
100035a0:	e1b2      	b.n	10003908 <_vsnprintf+0x494>
100035a2:	0016      	movs	r6, r2
100035a4:	e7b1      	b.n	1000350a <_vsnprintf+0x96>
100035a6:	46a3      	mov	fp, r4
100035a8:	46aa      	mov	sl, r5
100035aa:	002c      	movs	r4, r5
100035ac:	45d1      	cmp	r9, sl
100035ae:	d803      	bhi.n	100035b8 <_vsnprintf+0x144>
100035b0:	2301      	movs	r3, #1
100035b2:	425b      	negs	r3, r3
100035b4:	444b      	add	r3, r9
100035b6:	469a      	mov	sl, r3
100035b8:	464b      	mov	r3, r9
100035ba:	4652      	mov	r2, sl
100035bc:	4659      	mov	r1, fp
100035be:	2000      	movs	r0, #0
100035c0:	9d08      	ldr	r5, [sp, #32]
100035c2:	47a8      	blx	r5
100035c4:	0020      	movs	r0, r4
100035c6:	b01f      	add	sp, #124	; 0x7c
100035c8:	bcf0      	pop	{r4, r5, r6, r7}
100035ca:	46bb      	mov	fp, r7
100035cc:	46b2      	mov	sl, r6
100035ce:	46a9      	mov	r9, r5
100035d0:	46a0      	mov	r8, r4
100035d2:	bdf0      	pop	{r4, r5, r6, r7, pc}
100035d4:	9b09      	ldr	r3, [sp, #36]	; 0x24
100035d6:	cb40      	ldmia	r3!, {r6}
100035d8:	960a      	str	r6, [sp, #40]	; 0x28
100035da:	2e00      	cmp	r6, #0
100035dc:	db03      	blt.n	100035e6 <_vsnprintf+0x172>
100035de:	7850      	ldrb	r0, [r2, #1]
100035e0:	9309      	str	r3, [sp, #36]	; 0x24
100035e2:	1c56      	adds	r6, r2, #1
100035e4:	e78d      	b.n	10003502 <_vsnprintf+0x8e>
100035e6:	3828      	subs	r0, #40	; 0x28
100035e8:	4301      	orrs	r1, r0
100035ea:	4270      	negs	r0, r6
100035ec:	900a      	str	r0, [sp, #40]	; 0x28
100035ee:	9309      	str	r3, [sp, #36]	; 0x24
100035f0:	7850      	ldrb	r0, [r2, #1]
100035f2:	1c56      	adds	r6, r2, #1
100035f4:	e785      	b.n	10003502 <_vsnprintf+0x8e>
100035f6:	2878      	cmp	r0, #120	; 0x78
100035f8:	d100      	bne.n	100035fc <_vsnprintf+0x188>
100035fa:	e1df      	b.n	100039bc <_vsnprintf+0x548>
100035fc:	2858      	cmp	r0, #88	; 0x58
100035fe:	d100      	bne.n	10003602 <_vsnprintf+0x18e>
10003600:	e24c      	b.n	10003a9c <_vsnprintf+0x628>
10003602:	286f      	cmp	r0, #111	; 0x6f
10003604:	d100      	bne.n	10003608 <_vsnprintf+0x194>
10003606:	e34f      	b.n	10003ca8 <_vsnprintf+0x834>
10003608:	2862      	cmp	r0, #98	; 0x62
1000360a:	d101      	bne.n	10003610 <_vsnprintf+0x19c>
1000360c:	f000 fc30 	bl	10003e70 <_vsnprintf+0x9fc>
10003610:	2310      	movs	r3, #16
10003612:	000a      	movs	r2, r1
10003614:	439a      	bics	r2, r3
10003616:	920b      	str	r2, [sp, #44]	; 0x2c
10003618:	2869      	cmp	r0, #105	; 0x69
1000361a:	d001      	beq.n	10003620 <_vsnprintf+0x1ac>
1000361c:	f000 fca9 	bl	10003f72 <_vsnprintf+0xafe>
10003620:	230a      	movs	r3, #10
10003622:	930c      	str	r3, [sp, #48]	; 0x30
10003624:	054b      	lsls	r3, r1, #21
10003626:	d500      	bpl.n	1000362a <_vsnprintf+0x1b6>
10003628:	e1d0      	b.n	100039cc <_vsnprintf+0x558>
1000362a:	9a0b      	ldr	r2, [sp, #44]	; 0x2c
1000362c:	2380      	movs	r3, #128	; 0x80
1000362e:	0011      	movs	r1, r2
10003630:	009b      	lsls	r3, r3, #2
10003632:	4019      	ands	r1, r3
10003634:	468b      	mov	fp, r1
10003636:	421a      	tst	r2, r3
10003638:	d000      	beq.n	1000363c <_vsnprintf+0x1c8>
1000363a:	e2a1      	b.n	10003b80 <_vsnprintf+0x70c>
1000363c:	2380      	movs	r3, #128	; 0x80
1000363e:	0011      	movs	r1, r2
10003640:	005b      	lsls	r3, r3, #1
10003642:	4019      	ands	r1, r3
10003644:	468a      	mov	sl, r1
10003646:	421a      	tst	r2, r3
10003648:	d000      	beq.n	1000364c <_vsnprintf+0x1d8>
1000364a:	e3b6      	b.n	10003dba <_vsnprintf+0x946>
1000364c:	0013      	movs	r3, r2
1000364e:	065b      	lsls	r3, r3, #25
10003650:	d500      	bpl.n	10003654 <_vsnprintf+0x1e0>
10003652:	e2ed      	b.n	10003c30 <_vsnprintf+0x7bc>
10003654:	0013      	movs	r3, r2
10003656:	9909      	ldr	r1, [sp, #36]	; 0x24
10003658:	061b      	lsls	r3, r3, #24
1000365a:	d401      	bmi.n	10003660 <_vsnprintf+0x1ec>
1000365c:	f000 fc76 	bl	10003f4c <_vsnprintf+0xad8>
10003660:	c908      	ldmia	r1!, {r3}
10003662:	b21b      	sxth	r3, r3
10003664:	17d8      	asrs	r0, r3, #31
10003666:	181a      	adds	r2, r3, r0
10003668:	4042      	eors	r2, r0
1000366a:	b292      	uxth	r2, r2
1000366c:	9109      	str	r1, [sp, #36]	; 0x24
1000366e:	4693      	mov	fp, r2
10003670:	0fda      	lsrs	r2, r3, #31
10003672:	9212      	str	r2, [sp, #72]	; 0x48
10003674:	2b00      	cmp	r3, #0
10003676:	d109      	bne.n	1000368c <_vsnprintf+0x218>
10003678:	2380      	movs	r3, #128	; 0x80
1000367a:	2210      	movs	r2, #16
1000367c:	990b      	ldr	r1, [sp, #44]	; 0x2c
1000367e:	00db      	lsls	r3, r3, #3
10003680:	400b      	ands	r3, r1
10003682:	4391      	bics	r1, r2
10003684:	910b      	str	r1, [sp, #44]	; 0x2c
10003686:	2b00      	cmp	r3, #0
10003688:	d000      	beq.n	1000368c <_vsnprintf+0x218>
1000368a:	e2e4      	b.n	10003c56 <_vsnprintf+0x7e2>
1000368c:	9a0b      	ldr	r2, [sp, #44]	; 0x2c
1000368e:	2361      	movs	r3, #97	; 0x61
10003690:	0692      	lsls	r2, r2, #26
10003692:	d500      	bpl.n	10003696 <_vsnprintf+0x222>
10003694:	2341      	movs	r3, #65	; 0x41
10003696:	a90e      	add	r1, sp, #56	; 0x38
10003698:	221f      	movs	r2, #31
1000369a:	468c      	mov	ip, r1
1000369c:	b2db      	uxtb	r3, r3
1000369e:	4462      	add	r2, ip
100036a0:	3b0a      	subs	r3, #10
100036a2:	465f      	mov	r7, fp
100036a4:	9513      	str	r5, [sp, #76]	; 0x4c
100036a6:	46a3      	mov	fp, r4
100036a8:	4655      	mov	r5, sl
100036aa:	9c0c      	ldr	r4, [sp, #48]	; 0x30
100036ac:	46b2      	mov	sl, r6
100036ae:	930d      	str	r3, [sp, #52]	; 0x34
100036b0:	0016      	movs	r6, r2
100036b2:	e00a      	b.n	100036ca <_vsnprintf+0x256>
100036b4:	3330      	adds	r3, #48	; 0x30
100036b6:	b2db      	uxtb	r3, r3
100036b8:	3501      	adds	r5, #1
100036ba:	5573      	strb	r3, [r6, r5]
100036bc:	42a7      	cmp	r7, r4
100036be:	d200      	bcs.n	100036c2 <_vsnprintf+0x24e>
100036c0:	e2ed      	b.n	10003c9e <_vsnprintf+0x82a>
100036c2:	2d20      	cmp	r5, #32
100036c4:	d100      	bne.n	100036c8 <_vsnprintf+0x254>
100036c6:	e2ea      	b.n	10003c9e <_vsnprintf+0x82a>
100036c8:	0007      	movs	r7, r0
100036ca:	0021      	movs	r1, r4
100036cc:	0038      	movs	r0, r7
100036ce:	f000 fcdd 	bl	1000408c <__wrap___aeabi_uidiv>
100036d2:	b2cb      	uxtb	r3, r1
100036d4:	2909      	cmp	r1, #9
100036d6:	d9ed      	bls.n	100036b4 <_vsnprintf+0x240>
100036d8:	9a0d      	ldr	r2, [sp, #52]	; 0x34
100036da:	4694      	mov	ip, r2
100036dc:	4463      	add	r3, ip
100036de:	b2db      	uxtb	r3, r3
100036e0:	e7ea      	b.n	100036b8 <_vsnprintf+0x244>
100036e2:	2380      	movs	r3, #128	; 0x80
100036e4:	009b      	lsls	r3, r3, #2
100036e6:	7870      	ldrb	r0, [r6, #1]
100036e8:	4319      	orrs	r1, r3
100036ea:	3601      	adds	r6, #1
100036ec:	e72f      	b.n	1000354e <_vsnprintf+0xda>
100036ee:	7870      	ldrb	r0, [r6, #1]
100036f0:	2868      	cmp	r0, #104	; 0x68
100036f2:	d100      	bne.n	100036f6 <_vsnprintf+0x282>
100036f4:	e1cd      	b.n	10003a92 <_vsnprintf+0x61e>
100036f6:	2380      	movs	r3, #128	; 0x80
100036f8:	3601      	adds	r6, #1
100036fa:	4319      	orrs	r1, r3
100036fc:	e727      	b.n	1000354e <_vsnprintf+0xda>
100036fe:	7870      	ldrb	r0, [r6, #1]
10003700:	286c      	cmp	r0, #108	; 0x6c
10003702:	d100      	bne.n	10003706 <_vsnprintf+0x292>
10003704:	e1bf      	b.n	10003a86 <_vsnprintf+0x612>
10003706:	2380      	movs	r3, #128	; 0x80
10003708:	005b      	lsls	r3, r3, #1
1000370a:	4319      	orrs	r1, r3
1000370c:	3601      	adds	r6, #1
1000370e:	e71e      	b.n	1000354e <_vsnprintf+0xda>
10003710:	2846      	cmp	r0, #70	; 0x46
10003712:	d100      	bne.n	10003716 <_vsnprintf+0x2a2>
10003714:	e19b      	b.n	10003a4e <_vsnprintf+0x5da>
10003716:	2207      	movs	r2, #7
10003718:	9b09      	ldr	r3, [sp, #36]	; 0x24
1000371a:	9104      	str	r1, [sp, #16]
1000371c:	3307      	adds	r3, #7
1000371e:	4393      	bics	r3, r2
10003720:	9a0a      	ldr	r2, [sp, #40]	; 0x28
10003722:	0019      	movs	r1, r3
10003724:	9203      	str	r2, [sp, #12]
10003726:	4642      	mov	r2, r8
10003728:	9202      	str	r2, [sp, #8]
1000372a:	c90c      	ldmia	r1!, {r2, r3}
1000372c:	9808      	ldr	r0, [sp, #32]
1000372e:	9200      	str	r2, [sp, #0]
10003730:	9301      	str	r3, [sp, #4]
10003732:	9109      	str	r1, [sp, #36]	; 0x24
10003734:	002a      	movs	r2, r5
10003736:	464b      	mov	r3, r9
10003738:	0021      	movs	r1, r4
1000373a:	f7ff fccf 	bl	100030dc <_ftoa>
1000373e:	3601      	adds	r6, #1
10003740:	0005      	movs	r5, r0
10003742:	e6bc      	b.n	100034be <_vsnprintf+0x4a>
10003744:	002a      	movs	r2, r5
10003746:	1c6f      	adds	r7, r5, #1
10003748:	464b      	mov	r3, r9
1000374a:	9d08      	ldr	r5, [sp, #32]
1000374c:	0021      	movs	r1, r4
1000374e:	2025      	movs	r0, #37	; 0x25
10003750:	47a8      	blx	r5
10003752:	3601      	adds	r6, #1
10003754:	003d      	movs	r5, r7
10003756:	e6b2      	b.n	100034be <_vsnprintf+0x4a>
10003758:	078b      	lsls	r3, r1, #30
1000375a:	d400      	bmi.n	1000375e <_vsnprintf+0x2ea>
1000375c:	e1ad      	b.n	10003aba <_vsnprintf+0x646>
1000375e:	9b09      	ldr	r3, [sp, #36]	; 0x24
10003760:	002a      	movs	r2, r5
10003762:	469a      	mov	sl, r3
10003764:	1c6b      	adds	r3, r5, #1
10003766:	4698      	mov	r8, r3
10003768:	4653      	mov	r3, sl
1000376a:	cb01      	ldmia	r3!, {r0}
1000376c:	0021      	movs	r1, r4
1000376e:	469a      	mov	sl, r3
10003770:	9f08      	ldr	r7, [sp, #32]
10003772:	464b      	mov	r3, r9
10003774:	b2c0      	uxtb	r0, r0
10003776:	47b8      	blx	r7
10003778:	9b0a      	ldr	r3, [sp, #40]	; 0x28
1000377a:	469c      	mov	ip, r3
1000377c:	4465      	add	r5, ip
1000377e:	2b01      	cmp	r3, #1
10003780:	d800      	bhi.n	10003784 <_vsnprintf+0x310>
10003782:	e286      	b.n	10003c92 <_vsnprintf+0x81e>
10003784:	9b08      	ldr	r3, [sp, #32]
10003786:	4647      	mov	r7, r8
10003788:	46b0      	mov	r8, r6
1000378a:	0026      	movs	r6, r4
1000378c:	464c      	mov	r4, r9
1000378e:	4699      	mov	r9, r3
10003790:	003a      	movs	r2, r7
10003792:	0023      	movs	r3, r4
10003794:	3701      	adds	r7, #1
10003796:	0031      	movs	r1, r6
10003798:	2020      	movs	r0, #32
1000379a:	47c8      	blx	r9
1000379c:	42af      	cmp	r7, r5
1000379e:	d1f7      	bne.n	10003790 <_vsnprintf+0x31c>
100037a0:	46a1      	mov	r9, r4
100037a2:	4653      	mov	r3, sl
100037a4:	0034      	movs	r4, r6
100037a6:	4646      	mov	r6, r8
100037a8:	9309      	str	r3, [sp, #36]	; 0x24
100037aa:	3601      	adds	r6, #1
100037ac:	e687      	b.n	100034be <_vsnprintf+0x4a>
100037ae:	46c0      	nop			; (mov r8, r8)
100037b0:	10003475 	.word	0x10003475
100037b4:	200020b4 	.word	0x200020b4
100037b8:	10007d94 	.word	0x10007d94
100037bc:	10007dd8 	.word	0x10007dd8
100037c0:	10007e24 	.word	0x10007e24
100037c4:	9b09      	ldr	r3, [sp, #36]	; 0x24
100037c6:	cb04      	ldmia	r3!, {r2}
100037c8:	469b      	mov	fp, r3
100037ca:	4643      	mov	r3, r8
100037cc:	9209      	str	r2, [sp, #36]	; 0x24
100037ce:	2b00      	cmp	r3, #0
100037d0:	d100      	bne.n	100037d4 <_vsnprintf+0x360>
100037d2:	e0c6      	b.n	10003962 <_vsnprintf+0x4ee>
100037d4:	7813      	ldrb	r3, [r2, #0]
100037d6:	469c      	mov	ip, r3
100037d8:	2b00      	cmp	r3, #0
100037da:	d100      	bne.n	100037de <_vsnprintf+0x36a>
100037dc:	e3bd      	b.n	10003f5a <_vsnprintf+0xae6>
100037de:	4643      	mov	r3, r8
100037e0:	3b01      	subs	r3, #1
100037e2:	9a09      	ldr	r2, [sp, #36]	; 0x24
100037e4:	3301      	adds	r3, #1
100037e6:	18d0      	adds	r0, r2, r3
100037e8:	9f0a      	ldr	r7, [sp, #40]	; 0x28
100037ea:	0013      	movs	r3, r2
100037ec:	e001      	b.n	100037f2 <_vsnprintf+0x37e>
100037ee:	4283      	cmp	r3, r0
100037f0:	d003      	beq.n	100037fa <_vsnprintf+0x386>
100037f2:	785a      	ldrb	r2, [r3, #1]
100037f4:	3301      	adds	r3, #1
100037f6:	2a00      	cmp	r2, #0
100037f8:	d1f9      	bne.n	100037ee <_vsnprintf+0x37a>
100037fa:	9a09      	ldr	r2, [sp, #36]	; 0x24
100037fc:	970a      	str	r7, [sp, #40]	; 0x28
100037fe:	1a9b      	subs	r3, r3, r2
10003800:	930b      	str	r3, [sp, #44]	; 0x2c
10003802:	2380      	movs	r3, #128	; 0x80
10003804:	000a      	movs	r2, r1
10003806:	00db      	lsls	r3, r3, #3
10003808:	401a      	ands	r2, r3
1000380a:	920c      	str	r2, [sp, #48]	; 0x30
1000380c:	4219      	tst	r1, r3
1000380e:	d004      	beq.n	1000381a <_vsnprintf+0x3a6>
10003810:	9b0b      	ldr	r3, [sp, #44]	; 0x2c
10003812:	4543      	cmp	r3, r8
10003814:	d901      	bls.n	1000381a <_vsnprintf+0x3a6>
10003816:	4643      	mov	r3, r8
10003818:	930b      	str	r3, [sp, #44]	; 0x2c
1000381a:	2302      	movs	r3, #2
1000381c:	001a      	movs	r2, r3
1000381e:	400a      	ands	r2, r1
10003820:	920d      	str	r2, [sp, #52]	; 0x34
10003822:	420b      	tst	r3, r1
10003824:	d100      	bne.n	10003828 <_vsnprintf+0x3b4>
10003826:	e187      	b.n	10003b38 <_vsnprintf+0x6c4>
10003828:	4660      	mov	r0, ip
1000382a:	2800      	cmp	r0, #0
1000382c:	d100      	bne.n	10003830 <_vsnprintf+0x3bc>
1000382e:	e168      	b.n	10003b02 <_vsnprintf+0x68e>
10003830:	9b0c      	ldr	r3, [sp, #48]	; 0x30
10003832:	2b00      	cmp	r3, #0
10003834:	d100      	bne.n	10003838 <_vsnprintf+0x3c4>
10003836:	e10d      	b.n	10003a54 <_vsnprintf+0x5e0>
10003838:	44a8      	add	r8, r5
1000383a:	46c2      	mov	sl, r8
1000383c:	9b09      	ldr	r3, [sp, #36]	; 0x24
1000383e:	4657      	mov	r7, sl
10003840:	1b5b      	subs	r3, r3, r5
10003842:	4698      	mov	r8, r3
10003844:	9b08      	ldr	r3, [sp, #32]
10003846:	46b2      	mov	sl, r6
10003848:	002a      	movs	r2, r5
1000384a:	0026      	movs	r6, r4
1000384c:	464c      	mov	r4, r9
1000384e:	4699      	mov	r9, r3
10003850:	e009      	b.n	10003866 <_vsnprintf+0x3f2>
10003852:	0023      	movs	r3, r4
10003854:	0031      	movs	r1, r6
10003856:	1c55      	adds	r5, r2, #1
10003858:	47c8      	blx	r9
1000385a:	4643      	mov	r3, r8
1000385c:	5d58      	ldrb	r0, [r3, r5]
1000385e:	2800      	cmp	r0, #0
10003860:	d100      	bne.n	10003864 <_vsnprintf+0x3f0>
10003862:	e126      	b.n	10003ab2 <_vsnprintf+0x63e>
10003864:	002a      	movs	r2, r5
10003866:	4297      	cmp	r7, r2
10003868:	d1f3      	bne.n	10003852 <_vsnprintf+0x3de>
1000386a:	46a1      	mov	r9, r4
1000386c:	003d      	movs	r5, r7
1000386e:	0034      	movs	r4, r6
10003870:	4656      	mov	r6, sl
10003872:	9b0d      	ldr	r3, [sp, #52]	; 0x34
10003874:	2b00      	cmp	r3, #0
10003876:	d000      	beq.n	1000387a <_vsnprintf+0x406>
10003878:	e143      	b.n	10003b02 <_vsnprintf+0x68e>
1000387a:	465b      	mov	r3, fp
1000387c:	3601      	adds	r6, #1
1000387e:	9309      	str	r3, [sp, #36]	; 0x24
10003880:	e61d      	b.n	100034be <_vsnprintf+0x4a>
10003882:	9b09      	ldr	r3, [sp, #36]	; 0x24
10003884:	001a      	movs	r2, r3
10003886:	ca08      	ldmia	r2!, {r3}
10003888:	4692      	mov	sl, r2
1000388a:	2b00      	cmp	r3, #0
1000388c:	d048      	beq.n	10003920 <_vsnprintf+0x4ac>
1000388e:	2221      	movs	r2, #33	; 0x21
10003890:	4311      	orrs	r1, r2
10003892:	468b      	mov	fp, r1
10003894:	a80e      	add	r0, sp, #56	; 0x38
10003896:	4684      	mov	ip, r0
10003898:	211f      	movs	r1, #31
1000389a:	4461      	add	r1, ip
1000389c:	9509      	str	r5, [sp, #36]	; 0x24
1000389e:	2200      	movs	r2, #0
100038a0:	270f      	movs	r7, #15
100038a2:	46a4      	mov	ip, r4
100038a4:	000d      	movs	r5, r1
100038a6:	e002      	b.n	100038ae <_vsnprintf+0x43a>
100038a8:	2a20      	cmp	r2, #32
100038aa:	d00c      	beq.n	100038c6 <_vsnprintf+0x452>
100038ac:	000b      	movs	r3, r1
100038ae:	003c      	movs	r4, r7
100038b0:	401c      	ands	r4, r3
100038b2:	0020      	movs	r0, r4
100038b4:	3037      	adds	r0, #55	; 0x37
100038b6:	2c09      	cmp	r4, #9
100038b8:	d800      	bhi.n	100038bc <_vsnprintf+0x448>
100038ba:	3807      	subs	r0, #7
100038bc:	3201      	adds	r2, #1
100038be:	54a8      	strb	r0, [r5, r2]
100038c0:	0919      	lsrs	r1, r3, #4
100038c2:	2b0f      	cmp	r3, #15
100038c4:	d8f0      	bhi.n	100038a8 <_vsnprintf+0x434>
100038c6:	4664      	mov	r4, ip
100038c8:	9d09      	ldr	r5, [sp, #36]	; 0x24
100038ca:	e032      	b.n	10003932 <_vsnprintf+0x4be>
100038cc:	4bdc      	ldr	r3, [pc, #880]	; (10003c40 <_vsnprintf+0x7cc>)
100038ce:	7820      	ldrb	r0, [r4, #0]
100038d0:	9308      	str	r3, [sp, #32]
100038d2:	2300      	movs	r3, #0
100038d4:	469a      	mov	sl, r3
100038d6:	2800      	cmp	r0, #0
100038d8:	d000      	beq.n	100038dc <_vsnprintf+0x468>
100038da:	e5e4      	b.n	100034a6 <_vsnprintf+0x32>
100038dc:	2400      	movs	r4, #0
100038de:	e665      	b.n	100035ac <_vsnprintf+0x138>
100038e0:	4643      	mov	r3, r8
100038e2:	0006      	movs	r6, r0
100038e4:	9f0a      	ldr	r7, [sp, #40]	; 0x28
100038e6:	0098      	lsls	r0, r3, #2
100038e8:	18c0      	adds	r0, r0, r3
100038ea:	3201      	adds	r2, #1
100038ec:	0040      	lsls	r0, r0, #1
100038ee:	1980      	adds	r0, r0, r6
100038f0:	7816      	ldrb	r6, [r2, #0]
100038f2:	0003      	movs	r3, r0
100038f4:	0030      	movs	r0, r6
100038f6:	3830      	subs	r0, #48	; 0x30
100038f8:	3b30      	subs	r3, #48	; 0x30
100038fa:	2809      	cmp	r0, #9
100038fc:	d9f3      	bls.n	100038e6 <_vsnprintf+0x472>
100038fe:	0030      	movs	r0, r6
10003900:	4698      	mov	r8, r3
10003902:	0016      	movs	r6, r2
10003904:	970a      	str	r7, [sp, #40]	; 0x28
10003906:	e600      	b.n	1000350a <_vsnprintf+0x96>
10003908:	9b09      	ldr	r3, [sp, #36]	; 0x24
1000390a:	3602      	adds	r6, #2
1000390c:	cb04      	ldmia	r3!, {r2}
1000390e:	4690      	mov	r8, r2
10003910:	43d2      	mvns	r2, r2
10003912:	4640      	mov	r0, r8
10003914:	17d2      	asrs	r2, r2, #31
10003916:	4010      	ands	r0, r2
10003918:	4680      	mov	r8, r0
1000391a:	9309      	str	r3, [sp, #36]	; 0x24
1000391c:	7830      	ldrb	r0, [r6, #0]
1000391e:	e5f4      	b.n	1000350a <_vsnprintf+0x96>
10003920:	2210      	movs	r2, #16
10003922:	0008      	movs	r0, r1
10003924:	4390      	bics	r0, r2
10003926:	3211      	adds	r2, #17
10003928:	4310      	orrs	r0, r2
1000392a:	4683      	mov	fp, r0
1000392c:	2200      	movs	r2, #0
1000392e:	0549      	lsls	r1, r1, #21
10003930:	d5b0      	bpl.n	10003894 <_vsnprintf+0x420>
10003932:	465b      	mov	r3, fp
10003934:	9306      	str	r3, [sp, #24]
10003936:	2308      	movs	r3, #8
10003938:	9305      	str	r3, [sp, #20]
1000393a:	4643      	mov	r3, r8
1000393c:	9304      	str	r3, [sp, #16]
1000393e:	2310      	movs	r3, #16
10003940:	9303      	str	r3, [sp, #12]
10003942:	2300      	movs	r3, #0
10003944:	9302      	str	r3, [sp, #8]
10003946:	ab16      	add	r3, sp, #88	; 0x58
10003948:	9201      	str	r2, [sp, #4]
1000394a:	9300      	str	r3, [sp, #0]
1000394c:	002a      	movs	r2, r5
1000394e:	464b      	mov	r3, r9
10003950:	0021      	movs	r1, r4
10003952:	9808      	ldr	r0, [sp, #32]
10003954:	f7ff f8a6 	bl	10002aa4 <_ntoa_format>
10003958:	4653      	mov	r3, sl
1000395a:	0005      	movs	r5, r0
1000395c:	3601      	adds	r6, #1
1000395e:	9309      	str	r3, [sp, #36]	; 0x24
10003960:	e5ad      	b.n	100034be <_vsnprintf+0x4a>
10003962:	7813      	ldrb	r3, [r2, #0]
10003964:	469c      	mov	ip, r3
10003966:	2b00      	cmp	r3, #0
10003968:	d100      	bne.n	1000396c <_vsnprintf+0x4f8>
1000396a:	e2f7      	b.n	10003f5c <_vsnprintf+0xae8>
1000396c:	2302      	movs	r3, #2
1000396e:	425b      	negs	r3, r3
10003970:	e737      	b.n	100037e2 <_vsnprintf+0x36e>
10003972:	2320      	movs	r3, #32
10003974:	0002      	movs	r2, r0
10003976:	439a      	bics	r2, r3
10003978:	2a47      	cmp	r2, #71	; 0x47
1000397a:	d104      	bne.n	10003986 <_vsnprintf+0x512>
1000397c:	2380      	movs	r3, #128	; 0x80
1000397e:	011b      	lsls	r3, r3, #4
10003980:	4319      	orrs	r1, r3
10003982:	2302      	movs	r3, #2
10003984:	4398      	bics	r0, r3
10003986:	2845      	cmp	r0, #69	; 0x45
10003988:	d101      	bne.n	1000398e <_vsnprintf+0x51a>
1000398a:	2320      	movs	r3, #32
1000398c:	4319      	orrs	r1, r3
1000398e:	2207      	movs	r2, #7
10003990:	9b09      	ldr	r3, [sp, #36]	; 0x24
10003992:	9104      	str	r1, [sp, #16]
10003994:	3307      	adds	r3, #7
10003996:	4393      	bics	r3, r2
10003998:	9a0a      	ldr	r2, [sp, #40]	; 0x28
1000399a:	0019      	movs	r1, r3
1000399c:	9203      	str	r2, [sp, #12]
1000399e:	4642      	mov	r2, r8
100039a0:	9202      	str	r2, [sp, #8]
100039a2:	c90c      	ldmia	r1!, {r2, r3}
100039a4:	9808      	ldr	r0, [sp, #32]
100039a6:	9200      	str	r2, [sp, #0]
100039a8:	9301      	str	r3, [sp, #4]
100039aa:	9109      	str	r1, [sp, #36]	; 0x24
100039ac:	002a      	movs	r2, r5
100039ae:	464b      	mov	r3, r9
100039b0:	0021      	movs	r1, r4
100039b2:	f7ff f96d 	bl	10002c90 <_etoa>
100039b6:	3601      	adds	r6, #1
100039b8:	0005      	movs	r5, r0
100039ba:	e580      	b.n	100034be <_vsnprintf+0x4a>
100039bc:	2310      	movs	r3, #16
100039be:	930c      	str	r3, [sp, #48]	; 0x30
100039c0:	230c      	movs	r3, #12
100039c2:	000a      	movs	r2, r1
100039c4:	439a      	bics	r2, r3
100039c6:	920b      	str	r2, [sp, #44]	; 0x2c
100039c8:	054b      	lsls	r3, r1, #21
100039ca:	d503      	bpl.n	100039d4 <_vsnprintf+0x560>
100039cc:	2301      	movs	r3, #1
100039ce:	9a0b      	ldr	r2, [sp, #44]	; 0x2c
100039d0:	439a      	bics	r2, r3
100039d2:	920b      	str	r2, [sp, #44]	; 0x2c
100039d4:	2869      	cmp	r0, #105	; 0x69
100039d6:	d100      	bne.n	100039da <_vsnprintf+0x566>
100039d8:	e627      	b.n	1000362a <_vsnprintf+0x1b6>
100039da:	2864      	cmp	r0, #100	; 0x64
100039dc:	d100      	bne.n	100039e0 <_vsnprintf+0x56c>
100039de:	e624      	b.n	1000362a <_vsnprintf+0x1b6>
100039e0:	9a0b      	ldr	r2, [sp, #44]	; 0x2c
100039e2:	2380      	movs	r3, #128	; 0x80
100039e4:	0011      	movs	r1, r2
100039e6:	009b      	lsls	r3, r3, #2
100039e8:	4019      	ands	r1, r3
100039ea:	468b      	mov	fp, r1
100039ec:	421a      	tst	r2, r3
100039ee:	d000      	beq.n	100039f2 <_vsnprintf+0x57e>
100039f0:	e166      	b.n	10003cc0 <_vsnprintf+0x84c>
100039f2:	2380      	movs	r3, #128	; 0x80
100039f4:	0011      	movs	r1, r2
100039f6:	005b      	lsls	r3, r3, #1
100039f8:	4019      	ands	r1, r3
100039fa:	468a      	mov	sl, r1
100039fc:	421a      	tst	r2, r3
100039fe:	d000      	beq.n	10003a02 <_vsnprintf+0x58e>
10003a00:	e239      	b.n	10003e76 <_vsnprintf+0xa02>
10003a02:	0013      	movs	r3, r2
10003a04:	065b      	lsls	r3, r3, #25
10003a06:	d500      	bpl.n	10003a0a <_vsnprintf+0x596>
10003a08:	e13c      	b.n	10003c84 <_vsnprintf+0x810>
10003a0a:	0013      	movs	r3, r2
10003a0c:	061b      	lsls	r3, r3, #24
10003a0e:	d400      	bmi.n	10003a12 <_vsnprintf+0x59e>
10003a10:	e2a6      	b.n	10003f60 <_vsnprintf+0xaec>
10003a12:	9b09      	ldr	r3, [sp, #36]	; 0x24
10003a14:	cb04      	ldmia	r3!, {r2}
10003a16:	0412      	lsls	r2, r2, #16
10003a18:	0c12      	lsrs	r2, r2, #16
10003a1a:	4693      	mov	fp, r2
10003a1c:	9309      	str	r3, [sp, #36]	; 0x24
10003a1e:	465b      	mov	r3, fp
10003a20:	2b00      	cmp	r3, #0
10003a22:	d000      	beq.n	10003a26 <_vsnprintf+0x5b2>
10003a24:	e19a      	b.n	10003d5c <_vsnprintf+0x8e8>
10003a26:	9a0b      	ldr	r2, [sp, #44]	; 0x2c
10003a28:	3310      	adds	r3, #16
10003a2a:	0011      	movs	r1, r2
10003a2c:	4399      	bics	r1, r3
10003a2e:	910b      	str	r1, [sp, #44]	; 0x2c
10003a30:	0552      	lsls	r2, r2, #21
10003a32:	d400      	bmi.n	10003a36 <_vsnprintf+0x5c2>
10003a34:	e192      	b.n	10003d5c <_vsnprintf+0x8e8>
10003a36:	2300      	movs	r3, #0
10003a38:	469a      	mov	sl, r3
10003a3a:	9b0b      	ldr	r3, [sp, #44]	; 0x2c
10003a3c:	9306      	str	r3, [sp, #24]
10003a3e:	9b0a      	ldr	r3, [sp, #40]	; 0x28
10003a40:	9305      	str	r3, [sp, #20]
10003a42:	4643      	mov	r3, r8
10003a44:	9304      	str	r3, [sp, #16]
10003a46:	9b0c      	ldr	r3, [sp, #48]	; 0x30
10003a48:	9303      	str	r3, [sp, #12]
10003a4a:	2300      	movs	r3, #0
10003a4c:	e10c      	b.n	10003c68 <_vsnprintf+0x7f4>
10003a4e:	2320      	movs	r3, #32
10003a50:	4319      	orrs	r1, r3
10003a52:	e660      	b.n	10003716 <_vsnprintf+0x2a2>
10003a54:	9b09      	ldr	r3, [sp, #36]	; 0x24
10003a56:	9a0a      	ldr	r2, [sp, #40]	; 0x28
10003a58:	1b5b      	subs	r3, r3, r5
10003a5a:	4698      	mov	r8, r3
10003a5c:	464b      	mov	r3, r9
10003a5e:	4691      	mov	r9, r2
10003a60:	001f      	movs	r7, r3
10003a62:	46b2      	mov	sl, r6
10003a64:	0026      	movs	r6, r4
10003a66:	9c08      	ldr	r4, [sp, #32]
10003a68:	002a      	movs	r2, r5
10003a6a:	003b      	movs	r3, r7
10003a6c:	0031      	movs	r1, r6
10003a6e:	47a0      	blx	r4
10003a70:	4643      	mov	r3, r8
10003a72:	3501      	adds	r5, #1
10003a74:	5d58      	ldrb	r0, [r3, r5]
10003a76:	2800      	cmp	r0, #0
10003a78:	d1f6      	bne.n	10003a68 <_vsnprintf+0x5f4>
10003a7a:	464a      	mov	r2, r9
10003a7c:	0034      	movs	r4, r6
10003a7e:	46b9      	mov	r9, r7
10003a80:	4656      	mov	r6, sl
10003a82:	920a      	str	r2, [sp, #40]	; 0x28
10003a84:	e6f5      	b.n	10003872 <_vsnprintf+0x3fe>
10003a86:	23c0      	movs	r3, #192	; 0xc0
10003a88:	009b      	lsls	r3, r3, #2
10003a8a:	78b0      	ldrb	r0, [r6, #2]
10003a8c:	4319      	orrs	r1, r3
10003a8e:	3602      	adds	r6, #2
10003a90:	e55d      	b.n	1000354e <_vsnprintf+0xda>
10003a92:	23c0      	movs	r3, #192	; 0xc0
10003a94:	78b0      	ldrb	r0, [r6, #2]
10003a96:	4319      	orrs	r1, r3
10003a98:	3602      	adds	r6, #2
10003a9a:	e558      	b.n	1000354e <_vsnprintf+0xda>
10003a9c:	230c      	movs	r3, #12
10003a9e:	000a      	movs	r2, r1
10003aa0:	439a      	bics	r2, r3
10003aa2:	3314      	adds	r3, #20
10003aa4:	431a      	orrs	r2, r3
10003aa6:	3b10      	subs	r3, #16
10003aa8:	920b      	str	r2, [sp, #44]	; 0x2c
10003aaa:	930c      	str	r3, [sp, #48]	; 0x30
10003aac:	054b      	lsls	r3, r1, #21
10003aae:	d48d      	bmi.n	100039cc <_vsnprintf+0x558>
10003ab0:	e796      	b.n	100039e0 <_vsnprintf+0x56c>
10003ab2:	46a1      	mov	r9, r4
10003ab4:	0034      	movs	r4, r6
10003ab6:	4656      	mov	r6, sl
10003ab8:	e6db      	b.n	10003872 <_vsnprintf+0x3fe>
10003aba:	9a0a      	ldr	r2, [sp, #40]	; 0x28
10003abc:	2a01      	cmp	r2, #1
10003abe:	d800      	bhi.n	10003ac2 <_vsnprintf+0x64e>
10003ac0:	e253      	b.n	10003f6a <_vsnprintf+0xaf6>
10003ac2:	1e6b      	subs	r3, r5, #1
10003ac4:	189f      	adds	r7, r3, r2
10003ac6:	9b08      	ldr	r3, [sp, #32]
10003ac8:	46b0      	mov	r8, r6
10003aca:	0026      	movs	r6, r4
10003acc:	464c      	mov	r4, r9
10003ace:	4699      	mov	r9, r3
10003ad0:	002a      	movs	r2, r5
10003ad2:	0023      	movs	r3, r4
10003ad4:	3501      	adds	r5, #1
10003ad6:	0031      	movs	r1, r6
10003ad8:	2020      	movs	r0, #32
10003ada:	47c8      	blx	r9
10003adc:	42bd      	cmp	r5, r7
10003ade:	d1f7      	bne.n	10003ad0 <_vsnprintf+0x65c>
10003ae0:	46a1      	mov	r9, r4
10003ae2:	0034      	movs	r4, r6
10003ae4:	4646      	mov	r6, r8
10003ae6:	9b09      	ldr	r3, [sp, #36]	; 0x24
10003ae8:	003a      	movs	r2, r7
10003aea:	cb01      	ldmia	r3!, {r0}
10003aec:	0021      	movs	r1, r4
10003aee:	4698      	mov	r8, r3
10003af0:	1c7d      	adds	r5, r7, #1
10003af2:	464b      	mov	r3, r9
10003af4:	9f08      	ldr	r7, [sp, #32]
10003af6:	b2c0      	uxtb	r0, r0
10003af8:	47b8      	blx	r7
10003afa:	4643      	mov	r3, r8
10003afc:	3601      	adds	r6, #1
10003afe:	9309      	str	r3, [sp, #36]	; 0x24
10003b00:	e4dd      	b.n	100034be <_vsnprintf+0x4a>
10003b02:	9b0b      	ldr	r3, [sp, #44]	; 0x2c
10003b04:	9a0a      	ldr	r2, [sp, #40]	; 0x28
10003b06:	46a8      	mov	r8, r5
10003b08:	429a      	cmp	r2, r3
10003b0a:	d800      	bhi.n	10003b0e <_vsnprintf+0x69a>
10003b0c:	e6b5      	b.n	1000387a <_vsnprintf+0x406>
10003b0e:	4694      	mov	ip, r2
10003b10:	4465      	add	r5, ip
10003b12:	1aed      	subs	r5, r5, r3
10003b14:	9b08      	ldr	r3, [sp, #32]
10003b16:	4647      	mov	r7, r8
10003b18:	46b0      	mov	r8, r6
10003b1a:	0026      	movs	r6, r4
10003b1c:	464c      	mov	r4, r9
10003b1e:	4699      	mov	r9, r3
10003b20:	003a      	movs	r2, r7
10003b22:	0023      	movs	r3, r4
10003b24:	3701      	adds	r7, #1
10003b26:	0031      	movs	r1, r6
10003b28:	2020      	movs	r0, #32
10003b2a:	47c8      	blx	r9
10003b2c:	42af      	cmp	r7, r5
10003b2e:	d1f7      	bne.n	10003b20 <_vsnprintf+0x6ac>
10003b30:	46a1      	mov	r9, r4
10003b32:	0034      	movs	r4, r6
10003b34:	4646      	mov	r6, r8
10003b36:	e6a0      	b.n	1000387a <_vsnprintf+0x406>
10003b38:	9a0b      	ldr	r2, [sp, #44]	; 0x2c
10003b3a:	990a      	ldr	r1, [sp, #40]	; 0x28
10003b3c:	1c53      	adds	r3, r2, #1
10003b3e:	4291      	cmp	r1, r2
10003b40:	d800      	bhi.n	10003b44 <_vsnprintf+0x6d0>
10003b42:	e214      	b.n	10003f6e <_vsnprintf+0xafa>
10003b44:	194b      	adds	r3, r1, r5
10003b46:	1a9b      	subs	r3, r3, r2
10003b48:	001f      	movs	r7, r3
10003b4a:	9b08      	ldr	r3, [sp, #32]
10003b4c:	46b2      	mov	sl, r6
10003b4e:	0026      	movs	r6, r4
10003b50:	464c      	mov	r4, r9
10003b52:	4699      	mov	r9, r3
10003b54:	002a      	movs	r2, r5
10003b56:	0023      	movs	r3, r4
10003b58:	3501      	adds	r5, #1
10003b5a:	0031      	movs	r1, r6
10003b5c:	2020      	movs	r0, #32
10003b5e:	47c8      	blx	r9
10003b60:	42bd      	cmp	r5, r7
10003b62:	d1f7      	bne.n	10003b54 <_vsnprintf+0x6e0>
10003b64:	9b0a      	ldr	r3, [sp, #40]	; 0x28
10003b66:	46a1      	mov	r9, r4
10003b68:	3301      	adds	r3, #1
10003b6a:	930b      	str	r3, [sp, #44]	; 0x2c
10003b6c:	9b09      	ldr	r3, [sp, #36]	; 0x24
10003b6e:	0034      	movs	r4, r6
10003b70:	781b      	ldrb	r3, [r3, #0]
10003b72:	4656      	mov	r6, sl
10003b74:	469c      	mov	ip, r3
10003b76:	4660      	mov	r0, ip
10003b78:	2800      	cmp	r0, #0
10003b7a:	d000      	beq.n	10003b7e <_vsnprintf+0x70a>
10003b7c:	e658      	b.n	10003830 <_vsnprintf+0x3bc>
10003b7e:	e67c      	b.n	1000387a <_vsnprintf+0x406>
10003b80:	2207      	movs	r2, #7
10003b82:	9b09      	ldr	r3, [sp, #36]	; 0x24
10003b84:	3307      	adds	r3, #7
10003b86:	4393      	bics	r3, r2
10003b88:	3201      	adds	r2, #1
10003b8a:	4694      	mov	ip, r2
10003b8c:	449c      	add	ip, r3
10003b8e:	4662      	mov	r2, ip
10003b90:	685f      	ldr	r7, [r3, #4]
10003b92:	9209      	str	r2, [sp, #36]	; 0x24
10003b94:	681a      	ldr	r2, [r3, #0]
10003b96:	17fb      	asrs	r3, r7, #31
10003b98:	9310      	str	r3, [sp, #64]	; 0x40
10003b9a:	9311      	str	r3, [sp, #68]	; 0x44
10003b9c:	9810      	ldr	r0, [sp, #64]	; 0x40
10003b9e:	9911      	ldr	r1, [sp, #68]	; 0x44
10003ba0:	0003      	movs	r3, r0
10003ba2:	4053      	eors	r3, r2
10003ba4:	930e      	str	r3, [sp, #56]	; 0x38
10003ba6:	000b      	movs	r3, r1
10003ba8:	407b      	eors	r3, r7
10003baa:	930f      	str	r3, [sp, #60]	; 0x3c
10003bac:	4694      	mov	ip, r2
10003bae:	9a0e      	ldr	r2, [sp, #56]	; 0x38
10003bb0:	9b0f      	ldr	r3, [sp, #60]	; 0x3c
10003bb2:	1a12      	subs	r2, r2, r0
10003bb4:	418b      	sbcs	r3, r1
10003bb6:	920e      	str	r2, [sp, #56]	; 0x38
10003bb8:	930f      	str	r3, [sp, #60]	; 0x3c
10003bba:	0ffb      	lsrs	r3, r7, #31
10003bbc:	4662      	mov	r2, ip
10003bbe:	9312      	str	r3, [sp, #72]	; 0x48
10003bc0:	2300      	movs	r3, #0
10003bc2:	433a      	orrs	r2, r7
10003bc4:	469b      	mov	fp, r3
10003bc6:	d03d      	beq.n	10003c44 <_vsnprintf+0x7d0>
10003bc8:	9a0b      	ldr	r2, [sp, #44]	; 0x2c
10003bca:	2361      	movs	r3, #97	; 0x61
10003bcc:	0692      	lsls	r2, r2, #26
10003bce:	d500      	bpl.n	10003bd2 <_vsnprintf+0x75e>
10003bd0:	2341      	movs	r3, #65	; 0x41
10003bd2:	2200      	movs	r2, #0
10003bd4:	b2db      	uxtb	r3, r3
10003bd6:	a90e      	add	r1, sp, #56	; 0x38
10003bd8:	3b0a      	subs	r3, #10
10003bda:	468c      	mov	ip, r1
10003bdc:	4692      	mov	sl, r2
10003bde:	930d      	str	r3, [sp, #52]	; 0x34
10003be0:	4643      	mov	r3, r8
10003be2:	321f      	adds	r2, #31
10003be4:	4462      	add	r2, ip
10003be6:	9513      	str	r5, [sp, #76]	; 0x4c
10003be8:	9615      	str	r6, [sp, #84]	; 0x54
10003bea:	4655      	mov	r5, sl
10003bec:	9e0e      	ldr	r6, [sp, #56]	; 0x38
10003bee:	9f0f      	ldr	r7, [sp, #60]	; 0x3c
10003bf0:	46a2      	mov	sl, r4
10003bf2:	4690      	mov	r8, r2
10003bf4:	9c0c      	ldr	r4, [sp, #48]	; 0x30
10003bf6:	9314      	str	r3, [sp, #80]	; 0x50
10003bf8:	e00c      	b.n	10003c14 <_vsnprintf+0x7a0>
10003bfa:	3230      	adds	r2, #48	; 0x30
10003bfc:	b2d2      	uxtb	r2, r2
10003bfe:	4643      	mov	r3, r8
10003c00:	3501      	adds	r5, #1
10003c02:	555a      	strb	r2, [r3, r5]
10003c04:	45bb      	cmp	fp, r7
10003c06:	d100      	bne.n	10003c0a <_vsnprintf+0x796>
10003c08:	e18a      	b.n	10003f20 <_vsnprintf+0xaac>
10003c0a:	2d20      	cmp	r5, #32
10003c0c:	d100      	bne.n	10003c10 <_vsnprintf+0x79c>
10003c0e:	e18a      	b.n	10003f26 <_vsnprintf+0xab2>
10003c10:	0006      	movs	r6, r0
10003c12:	000f      	movs	r7, r1
10003c14:	0022      	movs	r2, r4
10003c16:	2300      	movs	r3, #0
10003c18:	0030      	movs	r0, r6
10003c1a:	0039      	movs	r1, r7
10003c1c:	f000 fa74 	bl	10004108 <__wrap___aeabi_uldivmod>
10003c20:	b2d2      	uxtb	r2, r2
10003c22:	2a09      	cmp	r2, #9
10003c24:	d9e9      	bls.n	10003bfa <_vsnprintf+0x786>
10003c26:	9b0d      	ldr	r3, [sp, #52]	; 0x34
10003c28:	469c      	mov	ip, r3
10003c2a:	4462      	add	r2, ip
10003c2c:	b2d2      	uxtb	r2, r2
10003c2e:	e7e6      	b.n	10003bfe <_vsnprintf+0x78a>
10003c30:	23ff      	movs	r3, #255	; 0xff
10003c32:	9909      	ldr	r1, [sp, #36]	; 0x24
10003c34:	c904      	ldmia	r1!, {r2}
10003c36:	4013      	ands	r3, r2
10003c38:	001a      	movs	r2, r3
10003c3a:	9109      	str	r1, [sp, #36]	; 0x24
10003c3c:	e517      	b.n	1000366e <_vsnprintf+0x1fa>
10003c3e:	46c0      	nop			; (mov r8, r8)
10003c40:	10002a05 	.word	0x10002a05
10003c44:	9a0b      	ldr	r2, [sp, #44]	; 0x2c
10003c46:	3310      	adds	r3, #16
10003c48:	0011      	movs	r1, r2
10003c4a:	4399      	bics	r1, r3
10003c4c:	910b      	str	r1, [sp, #44]	; 0x2c
10003c4e:	0552      	lsls	r2, r2, #21
10003c50:	d5ba      	bpl.n	10003bc8 <_vsnprintf+0x754>
10003c52:	2300      	movs	r3, #0
10003c54:	469a      	mov	sl, r3
10003c56:	9b0b      	ldr	r3, [sp, #44]	; 0x2c
10003c58:	9306      	str	r3, [sp, #24]
10003c5a:	9b0a      	ldr	r3, [sp, #40]	; 0x28
10003c5c:	9305      	str	r3, [sp, #20]
10003c5e:	4643      	mov	r3, r8
10003c60:	9304      	str	r3, [sp, #16]
10003c62:	9b0c      	ldr	r3, [sp, #48]	; 0x30
10003c64:	9303      	str	r3, [sp, #12]
10003c66:	9b12      	ldr	r3, [sp, #72]	; 0x48
10003c68:	9302      	str	r3, [sp, #8]
10003c6a:	4653      	mov	r3, sl
10003c6c:	9301      	str	r3, [sp, #4]
10003c6e:	ab16      	add	r3, sp, #88	; 0x58
10003c70:	002a      	movs	r2, r5
10003c72:	9300      	str	r3, [sp, #0]
10003c74:	0021      	movs	r1, r4
10003c76:	464b      	mov	r3, r9
10003c78:	9808      	ldr	r0, [sp, #32]
10003c7a:	f7fe ff13 	bl	10002aa4 <_ntoa_format>
10003c7e:	3601      	adds	r6, #1
10003c80:	0005      	movs	r5, r0
10003c82:	e41c      	b.n	100034be <_vsnprintf+0x4a>
10003c84:	22ff      	movs	r2, #255	; 0xff
10003c86:	9b09      	ldr	r3, [sp, #36]	; 0x24
10003c88:	cb02      	ldmia	r3!, {r1}
10003c8a:	4011      	ands	r1, r2
10003c8c:	468b      	mov	fp, r1
10003c8e:	9309      	str	r3, [sp, #36]	; 0x24
10003c90:	e6c5      	b.n	10003a1e <_vsnprintf+0x5aa>
10003c92:	4653      	mov	r3, sl
10003c94:	4645      	mov	r5, r8
10003c96:	9309      	str	r3, [sp, #36]	; 0x24
10003c98:	3601      	adds	r6, #1
10003c9a:	f7ff fc10 	bl	100034be <_vsnprintf+0x4a>
10003c9e:	4656      	mov	r6, sl
10003ca0:	465c      	mov	r4, fp
10003ca2:	46aa      	mov	sl, r5
10003ca4:	9d13      	ldr	r5, [sp, #76]	; 0x4c
10003ca6:	e7d6      	b.n	10003c56 <_vsnprintf+0x7e2>
10003ca8:	2308      	movs	r3, #8
10003caa:	930c      	str	r3, [sp, #48]	; 0x30
10003cac:	910b      	str	r1, [sp, #44]	; 0x2c
10003cae:	990b      	ldr	r1, [sp, #44]	; 0x2c
10003cb0:	2864      	cmp	r0, #100	; 0x64
10003cb2:	d000      	beq.n	10003cb6 <_vsnprintf+0x842>
10003cb4:	e684      	b.n	100039c0 <_vsnprintf+0x54c>
10003cb6:	9b0b      	ldr	r3, [sp, #44]	; 0x2c
10003cb8:	055b      	lsls	r3, r3, #21
10003cba:	d500      	bpl.n	10003cbe <_vsnprintf+0x84a>
10003cbc:	e686      	b.n	100039cc <_vsnprintf+0x558>
10003cbe:	e4b4      	b.n	1000362a <_vsnprintf+0x1b6>
10003cc0:	2207      	movs	r2, #7
10003cc2:	9b09      	ldr	r3, [sp, #36]	; 0x24
10003cc4:	3307      	adds	r3, #7
10003cc6:	4393      	bics	r3, r2
10003cc8:	3201      	adds	r2, #1
10003cca:	4694      	mov	ip, r2
10003ccc:	449c      	add	ip, r3
10003cce:	4662      	mov	r2, ip
10003cd0:	9209      	str	r2, [sp, #36]	; 0x24
10003cd2:	681a      	ldr	r2, [r3, #0]
10003cd4:	685b      	ldr	r3, [r3, #4]
10003cd6:	0010      	movs	r0, r2
10003cd8:	469b      	mov	fp, r3
10003cda:	0013      	movs	r3, r2
10003cdc:	465a      	mov	r2, fp
10003cde:	4313      	orrs	r3, r2
10003ce0:	d107      	bne.n	10003cf2 <_vsnprintf+0x87e>
10003ce2:	9a0b      	ldr	r2, [sp, #44]	; 0x2c
10003ce4:	3310      	adds	r3, #16
10003ce6:	0011      	movs	r1, r2
10003ce8:	4399      	bics	r1, r3
10003cea:	910b      	str	r1, [sp, #44]	; 0x2c
10003cec:	0552      	lsls	r2, r2, #21
10003cee:	d500      	bpl.n	10003cf2 <_vsnprintf+0x87e>
10003cf0:	e6a1      	b.n	10003a36 <_vsnprintf+0x5c2>
10003cf2:	9a0b      	ldr	r2, [sp, #44]	; 0x2c
10003cf4:	2361      	movs	r3, #97	; 0x61
10003cf6:	0692      	lsls	r2, r2, #26
10003cf8:	d500      	bpl.n	10003cfc <_vsnprintf+0x888>
10003cfa:	2341      	movs	r3, #65	; 0x41
10003cfc:	2200      	movs	r2, #0
10003cfe:	b2db      	uxtb	r3, r3
10003d00:	a90e      	add	r1, sp, #56	; 0x38
10003d02:	3b0a      	subs	r3, #10
10003d04:	468c      	mov	ip, r1
10003d06:	4692      	mov	sl, r2
10003d08:	930d      	str	r3, [sp, #52]	; 0x34
10003d0a:	4643      	mov	r3, r8
10003d0c:	321f      	adds	r2, #31
10003d0e:	4462      	add	r2, ip
10003d10:	465f      	mov	r7, fp
10003d12:	9512      	str	r5, [sp, #72]	; 0x48
10003d14:	46a3      	mov	fp, r4
10003d16:	4655      	mov	r5, sl
10003d18:	0004      	movs	r4, r0
10003d1a:	46b2      	mov	sl, r6
10003d1c:	4690      	mov	r8, r2
10003d1e:	9e0c      	ldr	r6, [sp, #48]	; 0x30
10003d20:	9313      	str	r3, [sp, #76]	; 0x4c
10003d22:	e00d      	b.n	10003d40 <_vsnprintf+0x8cc>
10003d24:	3230      	adds	r2, #48	; 0x30
10003d26:	b2d2      	uxtb	r2, r2
10003d28:	4643      	mov	r3, r8
10003d2a:	3501      	adds	r5, #1
10003d2c:	555a      	strb	r2, [r3, r5]
10003d2e:	2300      	movs	r3, #0
10003d30:	42bb      	cmp	r3, r7
10003d32:	d100      	bne.n	10003d36 <_vsnprintf+0x8c2>
10003d34:	e100      	b.n	10003f38 <_vsnprintf+0xac4>
10003d36:	2d20      	cmp	r5, #32
10003d38:	d100      	bne.n	10003d3c <_vsnprintf+0x8c8>
10003d3a:	e100      	b.n	10003f3e <_vsnprintf+0xaca>
10003d3c:	0004      	movs	r4, r0
10003d3e:	000f      	movs	r7, r1
10003d40:	0032      	movs	r2, r6
10003d42:	2300      	movs	r3, #0
10003d44:	0020      	movs	r0, r4
10003d46:	0039      	movs	r1, r7
10003d48:	f000 f9de 	bl	10004108 <__wrap___aeabi_uldivmod>
10003d4c:	b2d2      	uxtb	r2, r2
10003d4e:	2a09      	cmp	r2, #9
10003d50:	d9e8      	bls.n	10003d24 <_vsnprintf+0x8b0>
10003d52:	9b0d      	ldr	r3, [sp, #52]	; 0x34
10003d54:	469c      	mov	ip, r3
10003d56:	4462      	add	r2, ip
10003d58:	b2d2      	uxtb	r2, r2
10003d5a:	e7e5      	b.n	10003d28 <_vsnprintf+0x8b4>
10003d5c:	9a0b      	ldr	r2, [sp, #44]	; 0x2c
10003d5e:	2361      	movs	r3, #97	; 0x61
10003d60:	0692      	lsls	r2, r2, #26
10003d62:	d500      	bpl.n	10003d66 <_vsnprintf+0x8f2>
10003d64:	2341      	movs	r3, #65	; 0x41
10003d66:	b2db      	uxtb	r3, r3
10003d68:	a90e      	add	r1, sp, #56	; 0x38
10003d6a:	3b0a      	subs	r3, #10
10003d6c:	221f      	movs	r2, #31
10003d6e:	468c      	mov	ip, r1
10003d70:	930d      	str	r3, [sp, #52]	; 0x34
10003d72:	0023      	movs	r3, r4
10003d74:	4462      	add	r2, ip
10003d76:	465c      	mov	r4, fp
10003d78:	9512      	str	r5, [sp, #72]	; 0x48
10003d7a:	0017      	movs	r7, r2
10003d7c:	4655      	mov	r5, sl
10003d7e:	469b      	mov	fp, r3
10003d80:	46b2      	mov	sl, r6
10003d82:	9e0c      	ldr	r6, [sp, #48]	; 0x30
10003d84:	e008      	b.n	10003d98 <_vsnprintf+0x924>
10003d86:	3330      	adds	r3, #48	; 0x30
10003d88:	b2db      	uxtb	r3, r3
10003d8a:	3501      	adds	r5, #1
10003d8c:	557b      	strb	r3, [r7, r5]
10003d8e:	42b4      	cmp	r4, r6
10003d90:	d30e      	bcc.n	10003db0 <_vsnprintf+0x93c>
10003d92:	2d20      	cmp	r5, #32
10003d94:	d00c      	beq.n	10003db0 <_vsnprintf+0x93c>
10003d96:	0004      	movs	r4, r0
10003d98:	0031      	movs	r1, r6
10003d9a:	0020      	movs	r0, r4
10003d9c:	f000 f976 	bl	1000408c <__wrap___aeabi_uidiv>
10003da0:	b2cb      	uxtb	r3, r1
10003da2:	2909      	cmp	r1, #9
10003da4:	d9ef      	bls.n	10003d86 <_vsnprintf+0x912>
10003da6:	9a0d      	ldr	r2, [sp, #52]	; 0x34
10003da8:	4694      	mov	ip, r2
10003daa:	4463      	add	r3, ip
10003dac:	b2db      	uxtb	r3, r3
10003dae:	e7ec      	b.n	10003d8a <_vsnprintf+0x916>
10003db0:	4656      	mov	r6, sl
10003db2:	465c      	mov	r4, fp
10003db4:	46aa      	mov	sl, r5
10003db6:	9d12      	ldr	r5, [sp, #72]	; 0x48
10003db8:	e63f      	b.n	10003a3a <_vsnprintf+0x5c6>
10003dba:	9b09      	ldr	r3, [sp, #36]	; 0x24
10003dbc:	001a      	movs	r2, r3
10003dbe:	ca08      	ldmia	r2!, {r3}
10003dc0:	17d9      	asrs	r1, r3, #31
10003dc2:	9213      	str	r2, [sp, #76]	; 0x4c
10003dc4:	185a      	adds	r2, r3, r1
10003dc6:	404a      	eors	r2, r1
10003dc8:	4692      	mov	sl, r2
10003dca:	0fda      	lsrs	r2, r3, #31
10003dcc:	9212      	str	r2, [sp, #72]	; 0x48
10003dce:	2b00      	cmp	r3, #0
10003dd0:	d108      	bne.n	10003de4 <_vsnprintf+0x970>
10003dd2:	2380      	movs	r3, #128	; 0x80
10003dd4:	2210      	movs	r2, #16
10003dd6:	990b      	ldr	r1, [sp, #44]	; 0x2c
10003dd8:	00db      	lsls	r3, r3, #3
10003dda:	400b      	ands	r3, r1
10003ddc:	4391      	bics	r1, r2
10003dde:	910b      	str	r1, [sp, #44]	; 0x2c
10003de0:	2b00      	cmp	r3, #0
10003de2:	d12b      	bne.n	10003e3c <_vsnprintf+0x9c8>
10003de4:	9a0b      	ldr	r2, [sp, #44]	; 0x2c
10003de6:	2361      	movs	r3, #97	; 0x61
10003de8:	0692      	lsls	r2, r2, #26
10003dea:	d500      	bpl.n	10003dee <_vsnprintf+0x97a>
10003dec:	2341      	movs	r3, #65	; 0x41
10003dee:	aa0e      	add	r2, sp, #56	; 0x38
10003df0:	271f      	movs	r7, #31
10003df2:	4694      	mov	ip, r2
10003df4:	b2db      	uxtb	r3, r3
10003df6:	3b0a      	subs	r3, #10
10003df8:	950d      	str	r5, [sp, #52]	; 0x34
10003dfa:	4467      	add	r7, ip
10003dfc:	465d      	mov	r5, fp
10003dfe:	9309      	str	r3, [sp, #36]	; 0x24
10003e00:	46a3      	mov	fp, r4
10003e02:	4654      	mov	r4, sl
10003e04:	46b2      	mov	sl, r6
10003e06:	9e0c      	ldr	r6, [sp, #48]	; 0x30
10003e08:	e008      	b.n	10003e1c <_vsnprintf+0x9a8>
10003e0a:	3330      	adds	r3, #48	; 0x30
10003e0c:	b2db      	uxtb	r3, r3
10003e0e:	3501      	adds	r5, #1
10003e10:	557b      	strb	r3, [r7, r5]
10003e12:	42b4      	cmp	r4, r6
10003e14:	d30e      	bcc.n	10003e34 <_vsnprintf+0x9c0>
10003e16:	2d20      	cmp	r5, #32
10003e18:	d00c      	beq.n	10003e34 <_vsnprintf+0x9c0>
10003e1a:	0004      	movs	r4, r0
10003e1c:	0031      	movs	r1, r6
10003e1e:	0020      	movs	r0, r4
10003e20:	f000 f934 	bl	1000408c <__wrap___aeabi_uidiv>
10003e24:	b2cb      	uxtb	r3, r1
10003e26:	2909      	cmp	r1, #9
10003e28:	d9ef      	bls.n	10003e0a <_vsnprintf+0x996>
10003e2a:	9a09      	ldr	r2, [sp, #36]	; 0x24
10003e2c:	4694      	mov	ip, r2
10003e2e:	4463      	add	r3, ip
10003e30:	b2db      	uxtb	r3, r3
10003e32:	e7ec      	b.n	10003e0e <_vsnprintf+0x99a>
10003e34:	4656      	mov	r6, sl
10003e36:	465c      	mov	r4, fp
10003e38:	46ab      	mov	fp, r5
10003e3a:	9d0d      	ldr	r5, [sp, #52]	; 0x34
10003e3c:	9b0b      	ldr	r3, [sp, #44]	; 0x2c
10003e3e:	002a      	movs	r2, r5
10003e40:	9306      	str	r3, [sp, #24]
10003e42:	9b0a      	ldr	r3, [sp, #40]	; 0x28
10003e44:	0021      	movs	r1, r4
10003e46:	9305      	str	r3, [sp, #20]
10003e48:	4643      	mov	r3, r8
10003e4a:	9304      	str	r3, [sp, #16]
10003e4c:	9b0c      	ldr	r3, [sp, #48]	; 0x30
10003e4e:	9808      	ldr	r0, [sp, #32]
10003e50:	9303      	str	r3, [sp, #12]
10003e52:	9b12      	ldr	r3, [sp, #72]	; 0x48
10003e54:	3601      	adds	r6, #1
10003e56:	9302      	str	r3, [sp, #8]
10003e58:	465b      	mov	r3, fp
10003e5a:	9301      	str	r3, [sp, #4]
10003e5c:	ab16      	add	r3, sp, #88	; 0x58
10003e5e:	9300      	str	r3, [sp, #0]
10003e60:	464b      	mov	r3, r9
10003e62:	f7fe fe1f 	bl	10002aa4 <_ntoa_format>
10003e66:	9b13      	ldr	r3, [sp, #76]	; 0x4c
10003e68:	0005      	movs	r5, r0
10003e6a:	9309      	str	r3, [sp, #36]	; 0x24
10003e6c:	f7ff fb27 	bl	100034be <_vsnprintf+0x4a>
10003e70:	2302      	movs	r3, #2
10003e72:	930c      	str	r3, [sp, #48]	; 0x30
10003e74:	e71a      	b.n	10003cac <_vsnprintf+0x838>
10003e76:	9b09      	ldr	r3, [sp, #36]	; 0x24
10003e78:	cb04      	ldmia	r3!, {r2}
10003e7a:	4692      	mov	sl, r2
10003e7c:	9312      	str	r3, [sp, #72]	; 0x48
10003e7e:	2a00      	cmp	r2, #0
10003e80:	d108      	bne.n	10003e94 <_vsnprintf+0xa20>
10003e82:	2380      	movs	r3, #128	; 0x80
10003e84:	2210      	movs	r2, #16
10003e86:	990b      	ldr	r1, [sp, #44]	; 0x2c
10003e88:	00db      	lsls	r3, r3, #3
10003e8a:	400b      	ands	r3, r1
10003e8c:	4391      	bics	r1, r2
10003e8e:	910b      	str	r1, [sp, #44]	; 0x2c
10003e90:	2b00      	cmp	r3, #0
10003e92:	d12b      	bne.n	10003eec <_vsnprintf+0xa78>
10003e94:	9a0b      	ldr	r2, [sp, #44]	; 0x2c
10003e96:	2361      	movs	r3, #97	; 0x61
10003e98:	0692      	lsls	r2, r2, #26
10003e9a:	d500      	bpl.n	10003e9e <_vsnprintf+0xa2a>
10003e9c:	2341      	movs	r3, #65	; 0x41
10003e9e:	aa0e      	add	r2, sp, #56	; 0x38
10003ea0:	271f      	movs	r7, #31
10003ea2:	4694      	mov	ip, r2
10003ea4:	b2db      	uxtb	r3, r3
10003ea6:	3b0a      	subs	r3, #10
10003ea8:	950d      	str	r5, [sp, #52]	; 0x34
10003eaa:	4467      	add	r7, ip
10003eac:	465d      	mov	r5, fp
10003eae:	9309      	str	r3, [sp, #36]	; 0x24
10003eb0:	46a3      	mov	fp, r4
10003eb2:	4654      	mov	r4, sl
10003eb4:	46b2      	mov	sl, r6
10003eb6:	9e0c      	ldr	r6, [sp, #48]	; 0x30
10003eb8:	e008      	b.n	10003ecc <_vsnprintf+0xa58>
10003eba:	3330      	adds	r3, #48	; 0x30
10003ebc:	b2db      	uxtb	r3, r3
10003ebe:	3501      	adds	r5, #1
10003ec0:	557b      	strb	r3, [r7, r5]
10003ec2:	42b4      	cmp	r4, r6
10003ec4:	d30e      	bcc.n	10003ee4 <_vsnprintf+0xa70>
10003ec6:	2d20      	cmp	r5, #32
10003ec8:	d00c      	beq.n	10003ee4 <_vsnprintf+0xa70>
10003eca:	0004      	movs	r4, r0
10003ecc:	0031      	movs	r1, r6
10003ece:	0020      	movs	r0, r4
10003ed0:	f000 f8dc 	bl	1000408c <__wrap___aeabi_uidiv>
10003ed4:	b2cb      	uxtb	r3, r1
10003ed6:	2909      	cmp	r1, #9
10003ed8:	d9ef      	bls.n	10003eba <_vsnprintf+0xa46>
10003eda:	9a09      	ldr	r2, [sp, #36]	; 0x24
10003edc:	4694      	mov	ip, r2
10003ede:	4463      	add	r3, ip
10003ee0:	b2db      	uxtb	r3, r3
10003ee2:	e7ec      	b.n	10003ebe <_vsnprintf+0xa4a>
10003ee4:	4656      	mov	r6, sl
10003ee6:	465c      	mov	r4, fp
10003ee8:	46ab      	mov	fp, r5
10003eea:	9d0d      	ldr	r5, [sp, #52]	; 0x34
10003eec:	9b0b      	ldr	r3, [sp, #44]	; 0x2c
10003eee:	002a      	movs	r2, r5
10003ef0:	9306      	str	r3, [sp, #24]
10003ef2:	9b0a      	ldr	r3, [sp, #40]	; 0x28
10003ef4:	0021      	movs	r1, r4
10003ef6:	9305      	str	r3, [sp, #20]
10003ef8:	4643      	mov	r3, r8
10003efa:	9304      	str	r3, [sp, #16]
10003efc:	9b0c      	ldr	r3, [sp, #48]	; 0x30
10003efe:	9808      	ldr	r0, [sp, #32]
10003f00:	9303      	str	r3, [sp, #12]
10003f02:	2300      	movs	r3, #0
10003f04:	9302      	str	r3, [sp, #8]
10003f06:	465b      	mov	r3, fp
10003f08:	9301      	str	r3, [sp, #4]
10003f0a:	ab16      	add	r3, sp, #88	; 0x58
10003f0c:	9300      	str	r3, [sp, #0]
10003f0e:	464b      	mov	r3, r9
10003f10:	f7fe fdc8 	bl	10002aa4 <_ntoa_format>
10003f14:	9b12      	ldr	r3, [sp, #72]	; 0x48
10003f16:	0005      	movs	r5, r0
10003f18:	9309      	str	r3, [sp, #36]	; 0x24
10003f1a:	3601      	adds	r6, #1
10003f1c:	f7ff facf 	bl	100034be <_vsnprintf+0x4a>
10003f20:	42b4      	cmp	r4, r6
10003f22:	d800      	bhi.n	10003f26 <_vsnprintf+0xab2>
10003f24:	e671      	b.n	10003c0a <_vsnprintf+0x796>
10003f26:	9b14      	ldr	r3, [sp, #80]	; 0x50
10003f28:	4654      	mov	r4, sl
10003f2a:	960e      	str	r6, [sp, #56]	; 0x38
10003f2c:	970f      	str	r7, [sp, #60]	; 0x3c
10003f2e:	46aa      	mov	sl, r5
10003f30:	4698      	mov	r8, r3
10003f32:	9e15      	ldr	r6, [sp, #84]	; 0x54
10003f34:	9d13      	ldr	r5, [sp, #76]	; 0x4c
10003f36:	e68e      	b.n	10003c56 <_vsnprintf+0x7e2>
10003f38:	42a6      	cmp	r6, r4
10003f3a:	d800      	bhi.n	10003f3e <_vsnprintf+0xaca>
10003f3c:	e6fb      	b.n	10003d36 <_vsnprintf+0x8c2>
10003f3e:	9b13      	ldr	r3, [sp, #76]	; 0x4c
10003f40:	4656      	mov	r6, sl
10003f42:	4698      	mov	r8, r3
10003f44:	46aa      	mov	sl, r5
10003f46:	465c      	mov	r4, fp
10003f48:	9d12      	ldr	r5, [sp, #72]	; 0x48
10003f4a:	e576      	b.n	10003a3a <_vsnprintf+0x5c6>
10003f4c:	c908      	ldmia	r1!, {r3}
10003f4e:	17d8      	asrs	r0, r3, #31
10003f50:	181a      	adds	r2, r3, r0
10003f52:	4042      	eors	r2, r0
10003f54:	9109      	str	r1, [sp, #36]	; 0x24
10003f56:	f7ff fb8a 	bl	1000366e <_vsnprintf+0x1fa>
10003f5a:	2300      	movs	r3, #0
10003f5c:	930b      	str	r3, [sp, #44]	; 0x2c
10003f5e:	e450      	b.n	10003802 <_vsnprintf+0x38e>
10003f60:	9b09      	ldr	r3, [sp, #36]	; 0x24
10003f62:	cb04      	ldmia	r3!, {r2}
10003f64:	4693      	mov	fp, r2
10003f66:	9309      	str	r3, [sp, #36]	; 0x24
10003f68:	e559      	b.n	10003a1e <_vsnprintf+0x5aa>
10003f6a:	002f      	movs	r7, r5
10003f6c:	e5bb      	b.n	10003ae6 <_vsnprintf+0x672>
10003f6e:	930b      	str	r3, [sp, #44]	; 0x2c
10003f70:	e601      	b.n	10003b76 <_vsnprintf+0x702>
10003f72:	3b06      	subs	r3, #6
10003f74:	930c      	str	r3, [sp, #48]	; 0x30
10003f76:	e69a      	b.n	10003cae <_vsnprintf+0x83a>

10003f78 <vfctprintf>:
10003f78:	b500      	push	{lr}
10003f7a:	b085      	sub	sp, #20
10003f7c:	9103      	str	r1, [sp, #12]
10003f7e:	2101      	movs	r1, #1
10003f80:	9002      	str	r0, [sp, #8]
10003f82:	9300      	str	r3, [sp, #0]
10003f84:	4803      	ldr	r0, [pc, #12]	; (10003f94 <vfctprintf+0x1c>)
10003f86:	0013      	movs	r3, r2
10003f88:	424a      	negs	r2, r1
10003f8a:	a902      	add	r1, sp, #8
10003f8c:	f7ff fa72 	bl	10003474 <_vsnprintf>
10003f90:	b005      	add	sp, #20
10003f92:	bd00      	pop	{pc}
10003f94:	10002c81 	.word	0x10002c81

10003f98 <weak_raw_vprintf>:
10003f98:	b510      	push	{r4, lr}
10003f9a:	4a09      	ldr	r2, [pc, #36]	; (10003fc0 <weak_raw_vprintf+0x28>)
10003f9c:	0003      	movs	r3, r0
10003f9e:	6814      	ldr	r4, [r2, #0]
10003fa0:	b084      	sub	sp, #16
10003fa2:	2c00      	cmp	r4, #0
10003fa4:	d008      	beq.n	10003fb8 <weak_raw_vprintf+0x20>
10003fa6:	2201      	movs	r2, #1
10003fa8:	9100      	str	r1, [sp, #0]
10003faa:	4806      	ldr	r0, [pc, #24]	; (10003fc4 <weak_raw_vprintf+0x2c>)
10003fac:	4252      	negs	r2, r2
10003fae:	a903      	add	r1, sp, #12
10003fb0:	47a0      	blx	r4
10003fb2:	2001      	movs	r0, #1
10003fb4:	b004      	add	sp, #16
10003fb6:	bd10      	pop	{r4, pc}
10003fb8:	f001 f8ac 	bl	10005114 <__wrap_puts>
10003fbc:	2000      	movs	r0, #0
10003fbe:	e7f9      	b.n	10003fb4 <weak_raw_vprintf+0x1c>
10003fc0:	200020b4 	.word	0x200020b4
10003fc4:	10002c71 	.word	0x10002c71

10003fc8 <__aeabi_bits_init>:
10003fc8:	4801      	ldr	r0, [pc, #4]	; (10003fd0 <__aeabi_bits_init+0x8>)
10003fca:	2104      	movs	r1, #4
10003fcc:	4b01      	ldr	r3, [pc, #4]	; (10003fd4 <__aeabi_bits_init+0xc>)
10003fce:	4718      	bx	r3
10003fd0:	20000eb0 	.word	0x20000eb0
10003fd4:	10003ff9 	.word	0x10003ff9

10003fd8 <rom_func_lookup>:
10003fd8:	2314      	movs	r3, #20
10003fda:	b510      	push	{r4, lr}
10003fdc:	0001      	movs	r1, r0
10003fde:	8818      	ldrh	r0, [r3, #0]
10003fe0:	3304      	adds	r3, #4
10003fe2:	881b      	ldrh	r3, [r3, #0]
10003fe4:	4798      	blx	r3
10003fe6:	bd10      	pop	{r4, pc}

10003fe8 <rom_data_lookup>:
10003fe8:	2316      	movs	r3, #22
10003fea:	b510      	push	{r4, lr}
10003fec:	0001      	movs	r1, r0
10003fee:	8818      	ldrh	r0, [r3, #0]
10003ff0:	3302      	adds	r3, #2
10003ff2:	881b      	ldrh	r3, [r3, #0]
10003ff4:	4798      	blx	r3
10003ff6:	bd10      	pop	{r4, pc}

10003ff8 <rom_funcs_lookup>:
10003ff8:	b5f8      	push	{r3, r4, r5, r6, r7, lr}
10003ffa:	4647      	mov	r7, r8
10003ffc:	46ce      	mov	lr, r9
10003ffe:	b580      	push	{r7, lr}
10004000:	1e0f      	subs	r7, r1, #0
10004002:	d019      	beq.n	10004038 <rom_funcs_lookup+0x40>
10004004:	2314      	movs	r3, #20
10004006:	4699      	mov	r9, r3
10004008:	3304      	adds	r3, #4
1000400a:	0004      	movs	r4, r0
1000400c:	2500      	movs	r5, #0
1000400e:	2601      	movs	r6, #1
10004010:	4698      	mov	r8, r3
10004012:	464b      	mov	r3, r9
10004014:	8818      	ldrh	r0, [r3, #0]
10004016:	4643      	mov	r3, r8
10004018:	6821      	ldr	r1, [r4, #0]
1000401a:	881b      	ldrh	r3, [r3, #0]
1000401c:	4798      	blx	r3
1000401e:	c401      	stmia	r4!, {r0}
10004020:	1e43      	subs	r3, r0, #1
10004022:	4198      	sbcs	r0, r3
10004024:	3501      	adds	r5, #1
10004026:	4240      	negs	r0, r0
10004028:	4006      	ands	r6, r0
1000402a:	42af      	cmp	r7, r5
1000402c:	d1f1      	bne.n	10004012 <rom_funcs_lookup+0x1a>
1000402e:	0030      	movs	r0, r6
10004030:	bcc0      	pop	{r6, r7}
10004032:	46b9      	mov	r9, r7
10004034:	46b0      	mov	r8, r6
10004036:	bdf8      	pop	{r3, r4, r5, r6, r7, pc}
10004038:	2601      	movs	r6, #1
1000403a:	e7f8      	b.n	1000402e <rom_funcs_lookup+0x36>

1000403c <__wrap___aeabi_idiv>:
1000403c:	4a12      	ldr	r2, [pc, #72]	; (10004088 <divmod_s32s32_savestate+0x18>)
1000403e:	6f93      	ldr	r3, [r2, #120]	; 0x78
10004040:	089b      	lsrs	r3, r3, #2
10004042:	d215      	bcs.n	10004070 <divmod_s32s32_savestate>

10004044 <divmod_s32s32_unsafe>:
10004044:	6690      	str	r0, [r2, #104]	; 0x68
10004046:	66d1      	str	r1, [r2, #108]	; 0x6c
10004048:	2900      	cmp	r1, #0
1000404a:	d005      	beq.n	10004058 <divmod_s32s32_unsafe+0x14>
1000404c:	e7ff      	b.n	1000404e <divmod_s32s32_unsafe+0xa>
1000404e:	e7ff      	b.n	10004050 <divmod_s32s32_unsafe+0xc>
10004050:	e7ff      	b.n	10004052 <divmod_s32s32_unsafe+0xe>
10004052:	6f51      	ldr	r1, [r2, #116]	; 0x74
10004054:	6f10      	ldr	r0, [r2, #112]	; 0x70
10004056:	4770      	bx	lr
10004058:	b504      	push	{r2, lr}
1000405a:	2180      	movs	r1, #128	; 0x80
1000405c:	0609      	lsls	r1, r1, #24
1000405e:	17c2      	asrs	r2, r0, #31
10004060:	4051      	eors	r1, r2
10004062:	2800      	cmp	r0, #0
10004064:	d000      	beq.n	10004068 <divmod_s32s32_unsafe+0x24>
10004066:	43c8      	mvns	r0, r1
10004068:	f003 fcee 	bl	10007a48 <____aeabi_idiv0_veneer>
1000406c:	2100      	movs	r1, #0
1000406e:	bd04      	pop	{r2, pc}

10004070 <divmod_s32s32_savestate>:
10004070:	b5f0      	push	{r4, r5, r6, r7, lr}
10004072:	6e14      	ldr	r4, [r2, #96]	; 0x60
10004074:	6e55      	ldr	r5, [r2, #100]	; 0x64
10004076:	6f57      	ldr	r7, [r2, #116]	; 0x74
10004078:	6f16      	ldr	r6, [r2, #112]	; 0x70
1000407a:	f7ff ffe3 	bl	10004044 <divmod_s32s32_unsafe>
1000407e:	6614      	str	r4, [r2, #96]	; 0x60
10004080:	6655      	str	r5, [r2, #100]	; 0x64
10004082:	6757      	str	r7, [r2, #116]	; 0x74
10004084:	6716      	str	r6, [r2, #112]	; 0x70
10004086:	bdf0      	pop	{r4, r5, r6, r7, pc}
10004088:	d0000000 	.word	0xd0000000

1000408c <__wrap___aeabi_uidiv>:
1000408c:	4a11      	ldr	r2, [pc, #68]	; (100040d4 <divmod_u32u32_savestate+0x18>)
1000408e:	6f93      	ldr	r3, [r2, #120]	; 0x78
10004090:	089b      	lsrs	r3, r3, #2
10004092:	d213      	bcs.n	100040bc <divmod_u32u32_savestate>

10004094 <divmod_u32u32_unsafe>:
10004094:	6610      	str	r0, [r2, #96]	; 0x60
10004096:	6651      	str	r1, [r2, #100]	; 0x64
10004098:	2900      	cmp	r1, #0
1000409a:	d005      	beq.n	100040a8 <divmod_u32u32_unsafe+0x14>
1000409c:	e7ff      	b.n	1000409e <divmod_u32u32_unsafe+0xa>
1000409e:	e7ff      	b.n	100040a0 <divmod_u32u32_unsafe+0xc>
100040a0:	e7ff      	b.n	100040a2 <divmod_u32u32_unsafe+0xe>
100040a2:	6f51      	ldr	r1, [r2, #116]	; 0x74
100040a4:	6f10      	ldr	r0, [r2, #112]	; 0x70
100040a6:	4770      	bx	lr
100040a8:	b504      	push	{r2, lr}
100040aa:	2800      	cmp	r0, #0
100040ac:	d001      	beq.n	100040b2 <divmod_u32u32_unsafe+0x1e>
100040ae:	2000      	movs	r0, #0
100040b0:	43c0      	mvns	r0, r0
100040b2:	f003 fcc9 	bl	10007a48 <____aeabi_idiv0_veneer>
100040b6:	2100      	movs	r1, #0
100040b8:	bd04      	pop	{r2, pc}
100040ba:	46c0      	nop			; (mov r8, r8)

100040bc <divmod_u32u32_savestate>:
100040bc:	b5f0      	push	{r4, r5, r6, r7, lr}
100040be:	6e14      	ldr	r4, [r2, #96]	; 0x60
100040c0:	6e55      	ldr	r5, [r2, #100]	; 0x64
100040c2:	6f57      	ldr	r7, [r2, #116]	; 0x74
100040c4:	6f16      	ldr	r6, [r2, #112]	; 0x70
100040c6:	f7ff ffe5 	bl	10004094 <divmod_u32u32_unsafe>
100040ca:	6614      	str	r4, [r2, #96]	; 0x60
100040cc:	6655      	str	r5, [r2, #100]	; 0x64
100040ce:	6757      	str	r7, [r2, #116]	; 0x74
100040d0:	6716      	str	r6, [r2, #112]	; 0x70
100040d2:	bdf0      	pop	{r4, r5, r6, r7, pc}
100040d4:	d0000000 	.word	0xd0000000

100040d8 <__wrap___aeabi_ldivmod>:
100040d8:	4694      	mov	ip, r2
100040da:	4a4a      	ldr	r2, [pc, #296]	; (10004204 <udiv0+0x1a>)
100040dc:	6f92      	ldr	r2, [r2, #120]	; 0x78
100040de:	0892      	lsrs	r2, r2, #2
100040e0:	4662      	mov	r2, ip
100040e2:	d201      	bcs.n	100040e8 <divmod_s64s64_savestate>
100040e4:	e028      	b.n	10004138 <divmod_s64s64_unsafe>
100040e6:	46c0      	nop			; (mov r8, r8)

100040e8 <divmod_s64s64_savestate>:
100040e8:	b5f0      	push	{r4, r5, r6, r7, lr}
100040ea:	4e46      	ldr	r6, [pc, #280]	; (10004204 <udiv0+0x1a>)
100040ec:	6e34      	ldr	r4, [r6, #96]	; 0x60
100040ee:	6e75      	ldr	r5, [r6, #100]	; 0x64
100040f0:	6f77      	ldr	r7, [r6, #116]	; 0x74
100040f2:	6f36      	ldr	r6, [r6, #112]	; 0x70
100040f4:	f000 f820 	bl	10004138 <divmod_s64s64_unsafe>
100040f8:	4694      	mov	ip, r2
100040fa:	4a42      	ldr	r2, [pc, #264]	; (10004204 <udiv0+0x1a>)
100040fc:	6614      	str	r4, [r2, #96]	; 0x60
100040fe:	6655      	str	r5, [r2, #100]	; 0x64
10004100:	6757      	str	r7, [r2, #116]	; 0x74
10004102:	6716      	str	r6, [r2, #112]	; 0x70
10004104:	4662      	mov	r2, ip
10004106:	bdf0      	pop	{r4, r5, r6, r7, pc}

10004108 <__wrap___aeabi_uldivmod>:
10004108:	4694      	mov	ip, r2
1000410a:	4a3e      	ldr	r2, [pc, #248]	; (10004204 <udiv0+0x1a>)
1000410c:	6f92      	ldr	r2, [r2, #120]	; 0x78
1000410e:	0892      	lsrs	r2, r2, #2
10004110:	4662      	mov	r2, ip
10004112:	d201      	bcs.n	10004118 <divmod_u64u64_savestate>
10004114:	e054      	b.n	100041c0 <divmod_u64u64_unsafe>
10004116:	46c0      	nop			; (mov r8, r8)

10004118 <divmod_u64u64_savestate>:
10004118:	b5f0      	push	{r4, r5, r6, r7, lr}
1000411a:	4e3a      	ldr	r6, [pc, #232]	; (10004204 <udiv0+0x1a>)
1000411c:	6e34      	ldr	r4, [r6, #96]	; 0x60
1000411e:	6e75      	ldr	r5, [r6, #100]	; 0x64
10004120:	6f77      	ldr	r7, [r6, #116]	; 0x74
10004122:	6f36      	ldr	r6, [r6, #112]	; 0x70
10004124:	f000 f84c 	bl	100041c0 <divmod_u64u64_unsafe>
10004128:	4694      	mov	ip, r2
1000412a:	4a36      	ldr	r2, [pc, #216]	; (10004204 <udiv0+0x1a>)
1000412c:	6614      	str	r4, [r2, #96]	; 0x60
1000412e:	6655      	str	r5, [r2, #100]	; 0x64
10004130:	6757      	str	r7, [r2, #116]	; 0x74
10004132:	6716      	str	r6, [r2, #112]	; 0x70
10004134:	4662      	mov	r2, ip
10004136:	bdf0      	pop	{r4, r5, r6, r7, pc}

10004138 <divmod_s64s64_unsafe>:
10004138:	2b00      	cmp	r3, #0
1000413a:	db24      	blt.n	10004186 <l41_1+0x26>
1000413c:	d011      	beq.n	10004162 <l41_1+0x2>
1000413e:	2900      	cmp	r1, #0
10004140:	da3e      	bge.n	100041c0 <divmod_u64u64_unsafe>
10004142:	b500      	push	{lr}
10004144:	43c9      	mvns	r1, r1
10004146:	4240      	negs	r0, r0
10004148:	d100      	bne.n	1000414c <l39_1>
1000414a:	3101      	adds	r1, #1

1000414c <l39_1>:
1000414c:	f000 f838 	bl	100041c0 <divmod_u64u64_unsafe>
10004150:	43c9      	mvns	r1, r1
10004152:	4240      	negs	r0, r0
10004154:	d100      	bne.n	10004158 <l40_1>
10004156:	3101      	adds	r1, #1

10004158 <l40_1>:
10004158:	43db      	mvns	r3, r3
1000415a:	4252      	negs	r2, r2
1000415c:	d100      	bne.n	10004160 <l41_1>
1000415e:	3301      	adds	r3, #1

10004160 <l41_1>:
10004160:	bd00      	pop	{pc}
10004162:	2a00      	cmp	r2, #0
10004164:	d1eb      	bne.n	1000413e <divmod_s64s64_unsafe+0x6>
10004166:	2800      	cmp	r0, #0
10004168:	d101      	bne.n	1000416e <l41_1+0xe>
1000416a:	2900      	cmp	r1, #0
1000416c:	d005      	beq.n	1000417a <l41_1+0x1a>
1000416e:	2000      	movs	r0, #0
10004170:	0fc9      	lsrs	r1, r1, #31
10004172:	07c9      	lsls	r1, r1, #31
10004174:	d101      	bne.n	1000417a <l41_1+0x1a>
10004176:	43c0      	mvns	r0, r0
10004178:	0841      	lsrs	r1, r0, #1
1000417a:	b500      	push	{lr}
1000417c:	f003 fc54 	bl	10007a28 <____aeabi_ldiv0_veneer>
10004180:	2200      	movs	r2, #0
10004182:	2300      	movs	r3, #0
10004184:	bd00      	pop	{pc}
10004186:	b500      	push	{lr}
10004188:	2900      	cmp	r1, #0
1000418a:	db0a      	blt.n	100041a2 <l43_1+0x2>
1000418c:	43db      	mvns	r3, r3
1000418e:	4252      	negs	r2, r2
10004190:	d100      	bne.n	10004194 <l42_1>
10004192:	3301      	adds	r3, #1

10004194 <l42_1>:
10004194:	f000 f814 	bl	100041c0 <divmod_u64u64_unsafe>
10004198:	43c9      	mvns	r1, r1
1000419a:	4240      	negs	r0, r0
1000419c:	d100      	bne.n	100041a0 <l43_1>
1000419e:	3101      	adds	r1, #1

100041a0 <l43_1>:
100041a0:	bd00      	pop	{pc}
100041a2:	43c9      	mvns	r1, r1
100041a4:	4240      	negs	r0, r0
100041a6:	d100      	bne.n	100041aa <l44_1>
100041a8:	3101      	adds	r1, #1

100041aa <l44_1>:
100041aa:	43db      	mvns	r3, r3
100041ac:	4252      	negs	r2, r2
100041ae:	d100      	bne.n	100041b2 <l45_1>
100041b0:	3301      	adds	r3, #1

100041b2 <l45_1>:
100041b2:	f000 f805 	bl	100041c0 <divmod_u64u64_unsafe>
100041b6:	43db      	mvns	r3, r3
100041b8:	4252      	negs	r2, r2
100041ba:	d100      	bne.n	100041be <l46_1>
100041bc:	3301      	adds	r3, #1

100041be <l46_1>:
100041be:	bd00      	pop	{pc}

100041c0 <divmod_u64u64_unsafe>:
100041c0:	2900      	cmp	r1, #0
100041c2:	d123      	bne.n	1000420c <y64>
100041c4:	2b00      	cmp	r3, #0
100041c6:	d118      	bne.n	100041fa <udiv0+0x10>
100041c8:	2a00      	cmp	r2, #0
100041ca:	d00c      	beq.n	100041e6 <divmod_u64u64_unsafe+0x26>
100041cc:	46bc      	mov	ip, r7
100041ce:	4f0d      	ldr	r7, [pc, #52]	; (10004204 <udiv0+0x1a>)
100041d0:	6638      	str	r0, [r7, #96]	; 0x60
100041d2:	667a      	str	r2, [r7, #100]	; 0x64
100041d4:	2100      	movs	r1, #0
100041d6:	2300      	movs	r3, #0
100041d8:	e7ff      	b.n	100041da <divmod_u64u64_unsafe+0x1a>
100041da:	e7ff      	b.n	100041dc <divmod_u64u64_unsafe+0x1c>
100041dc:	e7ff      	b.n	100041de <divmod_u64u64_unsafe+0x1e>
100041de:	6f7a      	ldr	r2, [r7, #116]	; 0x74
100041e0:	6f38      	ldr	r0, [r7, #112]	; 0x70
100041e2:	4667      	mov	r7, ip
100041e4:	4770      	bx	lr
100041e6:	2800      	cmp	r0, #0
100041e8:	d001      	beq.n	100041ee <udiv0+0x4>

100041ea <udiv0>:
100041ea:	4807      	ldr	r0, [pc, #28]	; (10004208 <udiv0+0x1e>)
100041ec:	0001      	movs	r1, r0
100041ee:	b500      	push	{lr}
100041f0:	f003 fc1a 	bl	10007a28 <____aeabi_ldiv0_veneer>
100041f4:	2200      	movs	r2, #0
100041f6:	2300      	movs	r3, #0
100041f8:	bd00      	pop	{pc}
100041fa:	0002      	movs	r2, r0
100041fc:	000b      	movs	r3, r1
100041fe:	2000      	movs	r0, #0
10004200:	2100      	movs	r1, #0
10004202:	4770      	bx	lr
10004204:	d0000000 	.word	0xd0000000
10004208:	ffffffff 	.word	0xffffffff

1000420c <y64>:
1000420c:	2b00      	cmp	r3, #0
1000420e:	d000      	beq.n	10004212 <y64+0x6>
10004210:	e0bf      	b.n	10004392 <y64_x48>
10004212:	0c13      	lsrs	r3, r2, #16
10004214:	d128      	bne.n	10004268 <y64_x32>
10004216:	2a00      	cmp	r2, #0
10004218:	d0e7      	beq.n	100041ea <udiv0>
1000421a:	b480      	push	{r7}
1000421c:	4f11      	ldr	r7, [pc, #68]	; (10004264 <y64+0x58>)
1000421e:	6639      	str	r1, [r7, #96]	; 0x60
10004220:	667a      	str	r2, [r7, #100]	; 0x64
10004222:	e7ff      	b.n	10004224 <y64+0x18>
10004224:	e7ff      	b.n	10004226 <y64+0x1a>
10004226:	b430      	push	{r4, r5}
10004228:	0c04      	lsrs	r4, r0, #16
1000422a:	6f7b      	ldr	r3, [r7, #116]	; 0x74
1000422c:	6f39      	ldr	r1, [r7, #112]	; 0x70
1000422e:	041b      	lsls	r3, r3, #16
10004230:	4323      	orrs	r3, r4
10004232:	663b      	str	r3, [r7, #96]	; 0x60
10004234:	667a      	str	r2, [r7, #100]	; 0x64
10004236:	e7ff      	b.n	10004238 <y64+0x2c>
10004238:	e7ff      	b.n	1000423a <y64+0x2e>
1000423a:	e7ff      	b.n	1000423c <y64+0x30>
1000423c:	46c0      	nop			; (mov r8, r8)
1000423e:	b284      	uxth	r4, r0
10004240:	6f7b      	ldr	r3, [r7, #116]	; 0x74
10004242:	6f3d      	ldr	r5, [r7, #112]	; 0x70
10004244:	041b      	lsls	r3, r3, #16
10004246:	4323      	orrs	r3, r4
10004248:	663b      	str	r3, [r7, #96]	; 0x60
1000424a:	667a      	str	r2, [r7, #100]	; 0x64
1000424c:	e7ff      	b.n	1000424e <y64+0x42>
1000424e:	e7ff      	b.n	10004250 <y64+0x44>
10004250:	46c0      	nop			; (mov r8, r8)
10004252:	2300      	movs	r3, #0
10004254:	042c      	lsls	r4, r5, #16
10004256:	0c2d      	lsrs	r5, r5, #16
10004258:	6f7a      	ldr	r2, [r7, #116]	; 0x74
1000425a:	6f38      	ldr	r0, [r7, #112]	; 0x70
1000425c:	1900      	adds	r0, r0, r4
1000425e:	4169      	adcs	r1, r5
10004260:	bcb0      	pop	{r4, r5, r7}
10004262:	4770      	bx	lr
10004264:	d0000000 	.word	0xd0000000

10004268 <y64_x32>:
10004268:	b5f0      	push	{r4, r5, r6, r7, lr}
1000426a:	4694      	mov	ip, r2
1000426c:	2500      	movs	r5, #0
1000426e:	0e14      	lsrs	r4, r2, #24
10004270:	d101      	bne.n	10004276 <y64_x32+0xe>
10004272:	0212      	lsls	r2, r2, #8
10004274:	3508      	adds	r5, #8
10004276:	0f14      	lsrs	r4, r2, #28
10004278:	d101      	bne.n	1000427e <y64_x32+0x16>
1000427a:	0112      	lsls	r2, r2, #4
1000427c:	3504      	adds	r5, #4
1000427e:	0f94      	lsrs	r4, r2, #30
10004280:	d101      	bne.n	10004286 <y64_x32+0x1e>
10004282:	0092      	lsls	r2, r2, #2
10004284:	3502      	adds	r5, #2
10004286:	0fd4      	lsrs	r4, r2, #31
10004288:	d101      	bne.n	1000428e <y64_x32+0x26>
1000428a:	0052      	lsls	r2, r2, #1
1000428c:	3501      	adds	r5, #1
1000428e:	0bd4      	lsrs	r4, r2, #15
10004290:	3401      	adds	r4, #1
10004292:	4f25      	ldr	r7, [pc, #148]	; (10004328 <y64_x32+0xc0>)
10004294:	667c      	str	r4, [r7, #100]	; 0x64
10004296:	4c25      	ldr	r4, [pc, #148]	; (1000432c <y64_x32+0xc4>)
10004298:	663c      	str	r4, [r7, #96]	; 0x60
1000429a:	0c0e      	lsrs	r6, r1, #16
1000429c:	b293      	uxth	r3, r2
1000429e:	e7ff      	b.n	100042a0 <y64_x32+0x38>
100042a0:	e7ff      	b.n	100042a2 <y64_x32+0x3a>
100042a2:	e7ff      	b.n	100042a4 <y64_x32+0x3c>
100042a4:	6f3c      	ldr	r4, [r7, #112]	; 0x70
100042a6:	4366      	muls	r6, r4
100042a8:	0c36      	lsrs	r6, r6, #16
100042aa:	0377      	lsls	r7, r6, #13
100042ac:	46be      	mov	lr, r7
100042ae:	4373      	muls	r3, r6
100042b0:	0bdf      	lsrs	r7, r3, #15
100042b2:	045b      	lsls	r3, r3, #17
100042b4:	1ac0      	subs	r0, r0, r3
100042b6:	41b9      	sbcs	r1, r7
100042b8:	0c13      	lsrs	r3, r2, #16
100042ba:	4373      	muls	r3, r6
100042bc:	18db      	adds	r3, r3, r3
100042be:	1ac9      	subs	r1, r1, r3
100042c0:	08ce      	lsrs	r6, r1, #3
100042c2:	4366      	muls	r6, r4
100042c4:	0c36      	lsrs	r6, r6, #16
100042c6:	44b6      	add	lr, r6
100042c8:	b293      	uxth	r3, r2
100042ca:	4373      	muls	r3, r6
100042cc:	0f1f      	lsrs	r7, r3, #28
100042ce:	011b      	lsls	r3, r3, #4
100042d0:	1ac0      	subs	r0, r0, r3
100042d2:	41b9      	sbcs	r1, r7
100042d4:	0c13      	lsrs	r3, r2, #16
100042d6:	4373      	muls	r3, r6
100042d8:	0b1f      	lsrs	r7, r3, #12
100042da:	051b      	lsls	r3, r3, #20
100042dc:	1ac0      	subs	r0, r0, r3
100042de:	41b9      	sbcs	r1, r7
100042e0:	0d86      	lsrs	r6, r0, #22
100042e2:	028f      	lsls	r7, r1, #10
100042e4:	433e      	orrs	r6, r7
100042e6:	4366      	muls	r6, r4
100042e8:	0c36      	lsrs	r6, r6, #16
100042ea:	2d09      	cmp	r5, #9
100042ec:	db24      	blt.n	10004338 <last0>
100042ee:	0a52      	lsrs	r2, r2, #9
100042f0:	4372      	muls	r2, r6
100042f2:	1a80      	subs	r0, r0, r2
100042f4:	0377      	lsls	r7, r6, #13
100042f6:	0a46      	lsrs	r6, r0, #9
100042f8:	4366      	muls	r6, r4
100042fa:	0c36      	lsrs	r6, r6, #16
100042fc:	2316      	movs	r3, #22
100042fe:	1b5b      	subs	r3, r3, r5
10004300:	40de      	lsrs	r6, r3
10004302:	40df      	lsrs	r7, r3
10004304:	19bf      	adds	r7, r7, r6
10004306:	4664      	mov	r4, ip
10004308:	4366      	muls	r6, r4
1000430a:	1b82      	subs	r2, r0, r6
1000430c:	4670      	mov	r0, lr
1000430e:	3504      	adds	r5, #4
10004310:	3306      	adds	r3, #6
10004312:	0001      	movs	r1, r0
10004314:	40d9      	lsrs	r1, r3
10004316:	40a8      	lsls	r0, r5
10004318:	19c0      	adds	r0, r0, r7
1000431a:	d300      	bcc.n	1000431e <y64_x32+0xb6>
1000431c:	3101      	adds	r1, #1
1000431e:	42a2      	cmp	r2, r4
10004320:	d206      	bcs.n	10004330 <y64_x32+0xc8>
10004322:	2300      	movs	r3, #0
10004324:	bdf0      	pop	{r4, r5, r6, r7, pc}
10004326:	0000      	.short	0x0000
10004328:	d0000000 	.word	0xd0000000
1000432c:	ffffffff 	.word	0xffffffff
10004330:	1b12      	subs	r2, r2, r4
10004332:	3001      	adds	r0, #1
10004334:	d3f3      	bcc.n	1000431e <y64_x32+0xb6>
10004336:	e7f1      	b.n	1000431c <y64_x32+0xb4>

10004338 <last0>:
10004338:	2709      	movs	r7, #9
1000433a:	1b7f      	subs	r7, r7, r5
1000433c:	40fe      	lsrs	r6, r7
1000433e:	4664      	mov	r4, ip
10004340:	b2a2      	uxth	r2, r4
10004342:	4372      	muls	r2, r6
10004344:	1a80      	subs	r0, r0, r2
10004346:	d200      	bcs.n	1000434a <last0+0x12>
10004348:	3901      	subs	r1, #1
1000434a:	0c22      	lsrs	r2, r4, #16
1000434c:	4372      	muls	r2, r6
1000434e:	0c13      	lsrs	r3, r2, #16
10004350:	0412      	lsls	r2, r2, #16
10004352:	1a82      	subs	r2, r0, r2
10004354:	4199      	sbcs	r1, r3
10004356:	000b      	movs	r3, r1
10004358:	4670      	mov	r0, lr
1000435a:	3504      	adds	r5, #4
1000435c:	3713      	adds	r7, #19
1000435e:	0001      	movs	r1, r0
10004360:	40f9      	lsrs	r1, r7
10004362:	40a8      	lsls	r0, r5
10004364:	1980      	adds	r0, r0, r6
10004366:	d300      	bcc.n	1000436a <last0+0x32>
10004368:	3101      	adds	r1, #1
1000436a:	2b00      	cmp	r3, #0
1000436c:	d102      	bne.n	10004374 <last0+0x3c>
1000436e:	42a2      	cmp	r2, r4
10004370:	d20a      	bcs.n	10004388 <last0+0x50>
10004372:	bdf0      	pop	{r4, r5, r6, r7, pc}
10004374:	3001      	adds	r0, #1
10004376:	d300      	bcc.n	1000437a <last0+0x42>
10004378:	3101      	adds	r1, #1
1000437a:	1b12      	subs	r2, r2, r4
1000437c:	d2fa      	bcs.n	10004374 <last0+0x3c>
1000437e:	3b01      	subs	r3, #1
10004380:	d1f8      	bne.n	10004374 <last0+0x3c>
10004382:	42a2      	cmp	r2, r4
10004384:	d200      	bcs.n	10004388 <last0+0x50>
10004386:	bdf0      	pop	{r4, r5, r6, r7, pc}
10004388:	3001      	adds	r0, #1
1000438a:	d300      	bcc.n	1000438e <last0+0x56>
1000438c:	3101      	adds	r1, #1
1000438e:	1b12      	subs	r2, r2, r4
10004390:	e7f7      	b.n	10004382 <last0+0x4a>

10004392 <y64_x48>:
10004392:	b5f0      	push	{r4, r5, r6, r7, lr}
10004394:	0c1c      	lsrs	r4, r3, #16
10004396:	d000      	beq.n	1000439a <y64_x48+0x8>
10004398:	e080      	b.n	1000449c <y64_x64>
1000439a:	b40c      	push	{r2, r3}
1000439c:	2500      	movs	r5, #0
1000439e:	0a1c      	lsrs	r4, r3, #8
100043a0:	d104      	bne.n	100043ac <y64_x48+0x1a>
100043a2:	021b      	lsls	r3, r3, #8
100043a4:	0e16      	lsrs	r6, r2, #24
100043a6:	4333      	orrs	r3, r6
100043a8:	0212      	lsls	r2, r2, #8
100043aa:	3508      	adds	r5, #8
100043ac:	0b1c      	lsrs	r4, r3, #12
100043ae:	d104      	bne.n	100043ba <y64_x48+0x28>
100043b0:	011b      	lsls	r3, r3, #4
100043b2:	0f16      	lsrs	r6, r2, #28
100043b4:	4333      	orrs	r3, r6
100043b6:	0112      	lsls	r2, r2, #4
100043b8:	3504      	adds	r5, #4
100043ba:	0b9c      	lsrs	r4, r3, #14
100043bc:	d104      	bne.n	100043c8 <y64_x48+0x36>
100043be:	009b      	lsls	r3, r3, #2
100043c0:	0f96      	lsrs	r6, r2, #30
100043c2:	4333      	orrs	r3, r6
100043c4:	0092      	lsls	r2, r2, #2
100043c6:	3502      	adds	r5, #2
100043c8:	0bdc      	lsrs	r4, r3, #15
100043ca:	d102      	bne.n	100043d2 <y64_x48+0x40>
100043cc:	1892      	adds	r2, r2, r2
100043ce:	415b      	adcs	r3, r3
100043d0:	3501      	adds	r5, #1
100043d2:	001c      	movs	r4, r3
100043d4:	1897      	adds	r7, r2, r2
100043d6:	4164      	adcs	r4, r4
100043d8:	3401      	adds	r4, #1
100043da:	4f46      	ldr	r7, [pc, #280]	; (100044f4 <y64_x64+0x58>)
100043dc:	667c      	str	r4, [r7, #100]	; 0x64
100043de:	4c46      	ldr	r4, [pc, #280]	; (100044f8 <y64_x64+0x5c>)
100043e0:	663c      	str	r4, [r7, #96]	; 0x60
100043e2:	0c0e      	lsrs	r6, r1, #16
100043e4:	e7ff      	b.n	100043e6 <y64_x48+0x54>
100043e6:	e7ff      	b.n	100043e8 <y64_x48+0x56>
100043e8:	e7ff      	b.n	100043ea <y64_x48+0x58>
100043ea:	46c0      	nop			; (mov r8, r8)
100043ec:	6f3c      	ldr	r4, [r7, #112]	; 0x70
100043ee:	4366      	muls	r6, r4
100043f0:	0c36      	lsrs	r6, r6, #16
100043f2:	0377      	lsls	r7, r6, #13
100043f4:	46be      	mov	lr, r7
100043f6:	b297      	uxth	r7, r2
100043f8:	4377      	muls	r7, r6
100043fa:	1bc0      	subs	r0, r0, r7
100043fc:	d200      	bcs.n	10004400 <y64_x48+0x6e>
100043fe:	3901      	subs	r1, #1
10004400:	1bc0      	subs	r0, r0, r7
10004402:	d200      	bcs.n	10004406 <y64_x48+0x74>
10004404:	3901      	subs	r1, #1
10004406:	b29f      	uxth	r7, r3
10004408:	4377      	muls	r7, r6
1000440a:	1bc9      	subs	r1, r1, r7
1000440c:	1bc9      	subs	r1, r1, r7
1000440e:	0c17      	lsrs	r7, r2, #16
10004410:	4377      	muls	r7, r6
10004412:	047e      	lsls	r6, r7, #17
10004414:	0bff      	lsrs	r7, r7, #15
10004416:	1b80      	subs	r0, r0, r6
10004418:	41b9      	sbcs	r1, r7
1000441a:	08ce      	lsrs	r6, r1, #3
1000441c:	4366      	muls	r6, r4
1000441e:	0c36      	lsrs	r6, r6, #16
10004420:	2d0c      	cmp	r5, #12
10004422:	db33      	blt.n	1000448c <last1>
10004424:	44b6      	add	lr, r6
10004426:	0b12      	lsrs	r2, r2, #12
10004428:	051f      	lsls	r7, r3, #20
1000442a:	433a      	orrs	r2, r7
1000442c:	0b1b      	lsrs	r3, r3, #12
1000442e:	b297      	uxth	r7, r2
10004430:	4377      	muls	r7, r6
10004432:	1bc0      	subs	r0, r0, r7
10004434:	d200      	bcs.n	10004438 <y64_x48+0xa6>
10004436:	3901      	subs	r1, #1
10004438:	b29f      	uxth	r7, r3
1000443a:	4377      	muls	r7, r6
1000443c:	1bc9      	subs	r1, r1, r7
1000443e:	0c17      	lsrs	r7, r2, #16
10004440:	4377      	muls	r7, r6
10004442:	043e      	lsls	r6, r7, #16
10004444:	0c3f      	lsrs	r7, r7, #16
10004446:	1b80      	subs	r0, r0, r6
10004448:	41b9      	sbcs	r1, r7
1000444a:	0d86      	lsrs	r6, r0, #22
1000444c:	028f      	lsls	r7, r1, #10
1000444e:	433e      	orrs	r6, r7
10004450:	4366      	muls	r6, r4
10004452:	2729      	movs	r7, #41	; 0x29
10004454:	1b7f      	subs	r7, r7, r5
10004456:	40fe      	lsrs	r6, r7
10004458:	3d0c      	subs	r5, #12
1000445a:	4677      	mov	r7, lr
1000445c:	40af      	lsls	r7, r5
1000445e:	19bf      	adds	r7, r7, r6
10004460:	bc30      	pop	{r4, r5}
10004462:	b2a2      	uxth	r2, r4
10004464:	b2ab      	uxth	r3, r5
10004466:	4372      	muls	r2, r6
10004468:	4373      	muls	r3, r6
1000446a:	1a80      	subs	r0, r0, r2
1000446c:	4199      	sbcs	r1, r3
1000446e:	0c22      	lsrs	r2, r4, #16
10004470:	4372      	muls	r2, r6
10004472:	0c13      	lsrs	r3, r2, #16
10004474:	0412      	lsls	r2, r2, #16
10004476:	1a80      	subs	r0, r0, r2
10004478:	4199      	sbcs	r1, r3
1000447a:	0002      	movs	r2, r0
1000447c:	000b      	movs	r3, r1
1000447e:	3701      	adds	r7, #1
10004480:	1b00      	subs	r0, r0, r4
10004482:	41a9      	sbcs	r1, r5
10004484:	d2f9      	bcs.n	1000447a <y64_x48+0xe8>
10004486:	1e78      	subs	r0, r7, #1
10004488:	2100      	movs	r1, #0
1000448a:	bdf0      	pop	{r4, r5, r6, r7, pc}

1000448c <last1>:
1000448c:	270c      	movs	r7, #12
1000448e:	1b7f      	subs	r7, r7, r5
10004490:	40fe      	lsrs	r6, r7
10004492:	4677      	mov	r7, lr
10004494:	0b7f      	lsrs	r7, r7, #13
10004496:	40af      	lsls	r7, r5
10004498:	19ff      	adds	r7, r7, r7
1000449a:	e7e0      	b.n	1000445e <y64_x48+0xcc>

1000449c <y64_x64>:
1000449c:	2400      	movs	r4, #0
1000449e:	1c5d      	adds	r5, r3, #1
100044a0:	d007      	beq.n	100044b2 <y64_x64+0x16>
100044a2:	4f14      	ldr	r7, [pc, #80]	; (100044f4 <y64_x64+0x58>)
100044a4:	667d      	str	r5, [r7, #100]	; 0x64
100044a6:	6639      	str	r1, [r7, #96]	; 0x60
100044a8:	e7ff      	b.n	100044aa <y64_x64+0xe>
100044aa:	e7ff      	b.n	100044ac <y64_x64+0x10>
100044ac:	e7ff      	b.n	100044ae <y64_x64+0x12>
100044ae:	e7ff      	b.n	100044b0 <y64_x64+0x14>
100044b0:	6f3c      	ldr	r4, [r7, #112]	; 0x70
100044b2:	b295      	uxth	r5, r2
100044b4:	b29e      	uxth	r6, r3
100044b6:	4365      	muls	r5, r4
100044b8:	4366      	muls	r6, r4
100044ba:	1b40      	subs	r0, r0, r5
100044bc:	41b1      	sbcs	r1, r6
100044be:	0c15      	lsrs	r5, r2, #16
100044c0:	0c1e      	lsrs	r6, r3, #16
100044c2:	4365      	muls	r5, r4
100044c4:	4366      	muls	r6, r4
100044c6:	0436      	lsls	r6, r6, #16
100044c8:	0c2f      	lsrs	r7, r5, #16
100044ca:	433e      	orrs	r6, r7
100044cc:	042d      	lsls	r5, r5, #16
100044ce:	1b40      	subs	r0, r0, r5
100044d0:	41b1      	sbcs	r1, r6
100044d2:	4299      	cmp	r1, r3
100044d4:	d204      	bcs.n	100044e0 <y64_x64+0x44>
100044d6:	0002      	movs	r2, r0
100044d8:	000b      	movs	r3, r1
100044da:	0020      	movs	r0, r4
100044dc:	2100      	movs	r1, #0
100044de:	bdf0      	pop	{r4, r5, r6, r7, pc}
100044e0:	d101      	bne.n	100044e6 <y64_x64+0x4a>
100044e2:	4290      	cmp	r0, r2
100044e4:	d3f7      	bcc.n	100044d6 <y64_x64+0x3a>
100044e6:	1a80      	subs	r0, r0, r2
100044e8:	4199      	sbcs	r1, r3
100044ea:	3401      	adds	r4, #1
100044ec:	4299      	cmp	r1, r3
100044ee:	d3f2      	bcc.n	100044d6 <y64_x64+0x3a>
100044f0:	e7f6      	b.n	100044e0 <y64_x64+0x44>
100044f2:	0000      	.short	0x0000
100044f4:	d0000000 	.word	0xd0000000
100044f8:	ffffffff 	.word	0xffffffff

100044fc <__wrap___aeabi_drsub>:
100044fc:	4048      	eors	r0, r1
100044fe:	4041      	eors	r1, r0
10004500:	4048      	eors	r0, r1

10004502 <__wrap___aeabi_dsub>:
10004502:	b418      	push	{r3, r4}
10004504:	4b1b      	ldr	r3, [pc, #108]	; (10004574 <__wrap___aeabi_dmul+0x12>)
10004506:	685b      	ldr	r3, [r3, #4]
10004508:	46fc      	mov	ip, pc
1000450a:	9301      	str	r3, [sp, #4]
1000450c:	bd08      	pop	{r3, pc}
1000450e:	df04      	.short	0xdf04
10004510:	1000479b 	.word	0x1000479b

10004514 <__wrap___aeabi_dadd>:
10004514:	b418      	push	{r3, r4}
10004516:	4b17      	ldr	r3, [pc, #92]	; (10004574 <__wrap___aeabi_dmul+0x12>)
10004518:	681b      	ldr	r3, [r3, #0]
1000451a:	46fc      	mov	ip, pc
1000451c:	9301      	str	r3, [sp, #4]
1000451e:	bd08      	pop	{r3, pc}
10004520:	47a5df00 	.word	0x47a5df00
10004524:	1000      	.short	0x1000

10004526 <__wrap___aeabi_ddiv>:
10004526:	4694      	mov	ip, r2
10004528:	4a13      	ldr	r2, [pc, #76]	; (10004578 <__wrap___aeabi_dmul+0x16>)
1000452a:	6f92      	ldr	r2, [r2, #120]	; 0x78
1000452c:	0892      	lsrs	r2, r2, #2
1000452e:	d209      	bcs.n	10004544 <ddiv_save_state>
10004530:	4662      	mov	r2, ip

10004532 <ddiv_shim_call>:
10004532:	b418      	push	{r3, r4}
10004534:	4b0f      	ldr	r3, [pc, #60]	; (10004574 <__wrap___aeabi_dmul+0x12>)
10004536:	68db      	ldr	r3, [r3, #12]
10004538:	46fc      	mov	ip, pc
1000453a:	9301      	str	r3, [sp, #4]
1000453c:	bd08      	pop	{r3, pc}
1000453e:	df0c      	.short	0xdf0c
10004540:	10004a5d 	.word	0x10004a5d

10004544 <ddiv_save_state>:
10004544:	4a0c      	ldr	r2, [pc, #48]	; (10004578 <__wrap___aeabi_dmul+0x16>)
10004546:	b5f0      	push	{r4, r5, r6, r7, lr}
10004548:	6e14      	ldr	r4, [r2, #96]	; 0x60
1000454a:	6e55      	ldr	r5, [r2, #100]	; 0x64
1000454c:	6f57      	ldr	r7, [r2, #116]	; 0x74
1000454e:	6f16      	ldr	r6, [r2, #112]	; 0x70
10004550:	4662      	mov	r2, ip
10004552:	f7ff ffee 	bl	10004532 <ddiv_shim_call>
10004556:	4a08      	ldr	r2, [pc, #32]	; (10004578 <__wrap___aeabi_dmul+0x16>)
10004558:	6614      	str	r4, [r2, #96]	; 0x60
1000455a:	6655      	str	r5, [r2, #100]	; 0x64
1000455c:	6757      	str	r7, [r2, #116]	; 0x74
1000455e:	6716      	str	r6, [r2, #112]	; 0x70
10004560:	bdf0      	pop	{r4, r5, r6, r7, pc}

10004562 <__wrap___aeabi_dmul>:
10004562:	b418      	push	{r3, r4}
10004564:	4b03      	ldr	r3, [pc, #12]	; (10004574 <__wrap___aeabi_dmul+0x12>)
10004566:	689b      	ldr	r3, [r3, #8]
10004568:	46fc      	mov	ip, pc
1000456a:	9301      	str	r3, [sp, #4]
1000456c:	bd08      	pop	{r3, pc}
1000456e:	df08      	.short	0xdf08
10004570:	10004901 	.word	0x10004901
10004574:	20001470 	.word	0x20001470
10004578:	d0000000 	.word	0xd0000000

1000457c <__wrap___aeabi_cdrcmple>:
1000457c:	b5ff      	push	{r0, r1, r2, r3, r4, r5, r6, r7, lr}
1000457e:	4050      	eors	r0, r2
10004580:	4042      	eors	r2, r0
10004582:	4050      	eors	r0, r2
10004584:	4059      	eors	r1, r3
10004586:	404b      	eors	r3, r1
10004588:	4059      	eors	r1, r3
1000458a:	e000      	b.n	1000458e <__aeabi_dfcmple_guts>

1000458c <__wrap___aeabi_cdcmpeq>:
1000458c:	b5ff      	push	{r0, r1, r2, r3, r4, r5, r6, r7, lr}

1000458e <__aeabi_dfcmple_guts>:
1000458e:	4f15      	ldr	r7, [pc, #84]	; (100045e4 <__aeabi_dfcmple_guts+0x56>)
10004590:	004c      	lsls	r4, r1, #1
10004592:	0d64      	lsrs	r4, r4, #21
10004594:	d003      	beq.n	1000459e <__aeabi_dfcmple_guts+0x10>
10004596:	42bc      	cmp	r4, r7
10004598:	d104      	bne.n	100045a4 <__aeabi_dfcmple_guts+0x16>
1000459a:	030c      	lsls	r4, r1, #12
1000459c:	d814      	bhi.n	100045c8 <__aeabi_dfcmple_guts+0x3a>
1000459e:	2000      	movs	r0, #0
100045a0:	0d09      	lsrs	r1, r1, #20
100045a2:	0509      	lsls	r1, r1, #20
100045a4:	005c      	lsls	r4, r3, #1
100045a6:	0d64      	lsrs	r4, r4, #21
100045a8:	d003      	beq.n	100045b2 <__aeabi_dfcmple_guts+0x24>
100045aa:	42bc      	cmp	r4, r7
100045ac:	d104      	bne.n	100045b8 <__aeabi_dfcmple_guts+0x2a>
100045ae:	031c      	lsls	r4, r3, #12
100045b0:	d80a      	bhi.n	100045c8 <__aeabi_dfcmple_guts+0x3a>
100045b2:	2200      	movs	r2, #0
100045b4:	0d1b      	lsrs	r3, r3, #20
100045b6:	051b      	lsls	r3, r3, #20
100045b8:	2601      	movs	r6, #1
100045ba:	404b      	eors	r3, r1
100045bc:	d409      	bmi.n	100045d2 <__aeabi_dfcmple_guts+0x44>
100045be:	404b      	eors	r3, r1
100045c0:	d503      	bpl.n	100045ca <__aeabi_dfcmple_guts+0x3c>
100045c2:	428b      	cmp	r3, r1
100045c4:	d100      	bne.n	100045c8 <__aeabi_dfcmple_guts+0x3a>
100045c6:	4282      	cmp	r2, r0
100045c8:	bdff      	pop	{r0, r1, r2, r3, r4, r5, r6, r7, pc}
100045ca:	4299      	cmp	r1, r3
100045cc:	d1fc      	bne.n	100045c8 <__aeabi_dfcmple_guts+0x3a>
100045ce:	4290      	cmp	r0, r2
100045d0:	bdff      	pop	{r0, r1, r2, r3, r4, r5, r6, r7, pc}
100045d2:	430b      	orrs	r3, r1
100045d4:	18db      	adds	r3, r3, r3
100045d6:	4303      	orrs	r3, r0
100045d8:	4313      	orrs	r3, r2
100045da:	d0f5      	beq.n	100045c8 <__aeabi_dfcmple_guts+0x3a>
100045dc:	43c9      	mvns	r1, r1
100045de:	1849      	adds	r1, r1, r1
100045e0:	bdff      	pop	{r0, r1, r2, r3, r4, r5, r6, r7, pc}
100045e2:	0000      	.short	0x0000
100045e4:	000007ff 	.word	0x000007ff

100045e8 <__wrap___aeabi_dcmplt>:
100045e8:	b500      	push	{lr}
100045ea:	f7ff ffcf 	bl	1000458c <__wrap___aeabi_cdcmpeq>
100045ee:	4180      	sbcs	r0, r0
100045f0:	bd00      	pop	{pc}
100045f2:	46c0      	nop			; (mov r8, r8)

100045f4 <__wrap___aeabi_dcmple>:
100045f4:	b500      	push	{lr}
100045f6:	f7ff ffc9 	bl	1000458c <__wrap___aeabi_cdcmpeq>
100045fa:	d901      	bls.n	10004600 <__wrap___aeabi_dcmple+0xc>
100045fc:	2000      	movs	r0, #0
100045fe:	bd00      	pop	{pc}
10004600:	2001      	movs	r0, #1
10004602:	bd00      	pop	{pc}

10004604 <__wrap___aeabi_dcmpge>:
10004604:	b500      	push	{lr}
10004606:	f7ff ffb9 	bl	1000457c <__wrap___aeabi_cdrcmple>
1000460a:	d901      	bls.n	10004610 <__wrap___aeabi_dcmpge+0xc>
1000460c:	2000      	movs	r0, #0
1000460e:	bd00      	pop	{pc}
10004610:	2001      	movs	r0, #1
10004612:	bd00      	pop	{pc}

10004614 <__wrap___aeabi_dcmpgt>:
10004614:	b500      	push	{lr}
10004616:	f7ff ffb1 	bl	1000457c <__wrap___aeabi_cdrcmple>
1000461a:	4180      	sbcs	r0, r0
1000461c:	bd00      	pop	{pc}

1000461e <__wrap___aeabi_dcmpun>:
1000461e:	2001      	movs	r0, #1
10004620:	0540      	lsls	r0, r0, #21
10004622:	004a      	lsls	r2, r1, #1
10004624:	1812      	adds	r2, r2, r0
10004626:	d804      	bhi.n	10004632 <__wrap___aeabi_dcmpun+0x14>
10004628:	005a      	lsls	r2, r3, #1
1000462a:	1812      	adds	r2, r2, r0
1000462c:	d801      	bhi.n	10004632 <__wrap___aeabi_dcmpun+0x14>
1000462e:	2000      	movs	r0, #0
10004630:	4770      	bx	lr
10004632:	2001      	movs	r0, #1
10004634:	4770      	bx	lr
10004636:	2000      	movs	r0, #0
10004638:	4770      	bx	lr
	...

1000463c <__wrap___aeabi_ui2d>:
1000463c:	2100      	movs	r1, #0
1000463e:	2800      	cmp	r0, #0
10004640:	d105      	bne.n	1000464e <__wrap___aeabi_i2d+0xa>
10004642:	4770      	bx	lr

10004644 <__wrap___aeabi_i2d>:
10004644:	17c1      	asrs	r1, r0, #31
10004646:	4048      	eors	r0, r1
10004648:	1a40      	subs	r0, r0, r1
1000464a:	d0fa      	beq.n	10004642 <__wrap___aeabi_ui2d+0x6>
1000464c:	07c9      	lsls	r1, r1, #31
1000464e:	b513      	push	{r0, r1, r4, lr}
10004650:	4b06      	ldr	r3, [pc, #24]	; (1000466c <__wrap___aeabi_i2d+0x28>)
10004652:	681b      	ldr	r3, [r3, #0]
10004654:	4798      	blx	r3
10004656:	bc0c      	pop	{r2, r3}
10004658:	1c44      	adds	r4, r0, #1
1000465a:	40a2      	lsls	r2, r4
1000465c:	0510      	lsls	r0, r2, #20
1000465e:	0b12      	lsrs	r2, r2, #12
10004660:	4903      	ldr	r1, [pc, #12]	; (10004670 <__wrap___aeabi_i2d+0x2c>)
10004662:	1b09      	subs	r1, r1, r4
10004664:	0509      	lsls	r1, r1, #20
10004666:	4319      	orrs	r1, r3
10004668:	4311      	orrs	r1, r2
1000466a:	bd10      	pop	{r4, pc}
1000466c:	200020e0 	.word	0x200020e0
10004670:	0000041f 	.word	0x0000041f

10004674 <__wrap___aeabi_d2iz>:
10004674:	b510      	push	{r4, lr}
10004676:	004c      	lsls	r4, r1, #1
10004678:	0d62      	lsrs	r2, r4, #21
1000467a:	2380      	movs	r3, #128	; 0x80
1000467c:	18d2      	adds	r2, r2, r3
1000467e:	00db      	lsls	r3, r3, #3
10004680:	1ad2      	subs	r2, r2, r3
10004682:	055b      	lsls	r3, r3, #21
10004684:	2a7e      	cmp	r2, #126	; 0x7e
10004686:	dd10      	ble.n	100046aa <__wrap___aeabi_d2iz+0x36>
10004688:	3a9e      	subs	r2, #158	; 0x9e
1000468a:	da13      	bge.n	100046b4 <__wrap___aeabi_d2iz+0x40>
1000468c:	17cc      	asrs	r4, r1, #31
1000468e:	0309      	lsls	r1, r1, #12
10004690:	0849      	lsrs	r1, r1, #1
10004692:	4319      	orrs	r1, r3
10004694:	4252      	negs	r2, r2
10004696:	40d1      	lsrs	r1, r2
10004698:	0064      	lsls	r4, r4, #1
1000469a:	3401      	adds	r4, #1
1000469c:	3215      	adds	r2, #21
1000469e:	2a20      	cmp	r2, #32
100046a0:	da05      	bge.n	100046ae <__wrap___aeabi_d2iz+0x3a>
100046a2:	40d0      	lsrs	r0, r2
100046a4:	4308      	orrs	r0, r1
100046a6:	4360      	muls	r0, r4
100046a8:	bd10      	pop	{r4, pc}
100046aa:	2000      	movs	r0, #0
100046ac:	bd10      	pop	{r4, pc}
100046ae:	4608      	mov	r0, r1
100046b0:	4360      	muls	r0, r4
100046b2:	bd10      	pop	{r4, pc}
100046b4:	0fc8      	lsrs	r0, r1, #31
100046b6:	18c0      	adds	r0, r0, r3
100046b8:	3801      	subs	r0, #1
100046ba:	bd10      	pop	{r4, pc}

100046bc <__wrap___aeabi_d2uiz>:
100046bc:	b418      	push	{r3, r4}
100046be:	4b04      	ldr	r3, [pc, #16]	; (100046d0 <__wrap___aeabi_d2uiz+0x14>)
100046c0:	6a5b      	ldr	r3, [r3, #36]	; 0x24
100046c2:	46fc      	mov	ip, pc
100046c4:	9301      	str	r3, [sp, #4]
100046c6:	bd08      	pop	{r3, pc}
100046c8:	4c0ddf24 	.word	0x4c0ddf24
100046cc:	00001000 	.word	0x00001000
100046d0:	20001470 	.word	0x20001470

100046d4 <__aeabi_double_init>:
100046d4:	2313      	movs	r3, #19
100046d6:	b570      	push	{r4, r5, r6, lr}
100046d8:	781d      	ldrb	r5, [r3, #0]
100046da:	2d01      	cmp	r5, #1
100046dc:	d015      	beq.n	1000470a <__aeabi_double_init+0x36>
100046de:	dd10      	ble.n	10004702 <__aeabi_double_init+0x2e>
100046e0:	481c      	ldr	r0, [pc, #112]	; (10004754 <__aeabi_double_init+0x80>)
100046e2:	f7ff fc81 	bl	10003fe8 <rom_data_lookup>
100046e6:	4c1c      	ldr	r4, [pc, #112]	; (10004758 <__aeabi_double_init+0x84>)
100046e8:	0001      	movs	r1, r0
100046ea:	2280      	movs	r2, #128	; 0x80
100046ec:	0020      	movs	r0, r4
100046ee:	f000 fbad 	bl	10004e4c <__wrap___aeabi_memcpy>
100046f2:	2d02      	cmp	r5, #2
100046f4:	d006      	beq.n	10004704 <__aeabi_double_init+0x30>
100046f6:	4819      	ldr	r0, [pc, #100]	; (1000475c <__aeabi_double_init+0x88>)
100046f8:	f7ff fc6e 	bl	10003fd8 <rom_func_lookup>
100046fc:	4b18      	ldr	r3, [pc, #96]	; (10004760 <__aeabi_double_init+0x8c>)
100046fe:	6018      	str	r0, [r3, #0]
10004700:	bd70      	pop	{r4, r5, r6, pc}
10004702:	4c15      	ldr	r4, [pc, #84]	; (10004758 <__aeabi_double_init+0x84>)
10004704:	4b17      	ldr	r3, [pc, #92]	; (10004764 <__aeabi_double_init+0x90>)
10004706:	64a3      	str	r3, [r4, #72]	; 0x48
10004708:	e7f5      	b.n	100046f6 <__aeabi_double_init+0x22>
1000470a:	4b16      	ldr	r3, [pc, #88]	; (10004764 <__aeabi_double_init+0x90>)
1000470c:	4c12      	ldr	r4, [pc, #72]	; (10004758 <__aeabi_double_init+0x84>)
1000470e:	6023      	str	r3, [r4, #0]
10004710:	6063      	str	r3, [r4, #4]
10004712:	60a3      	str	r3, [r4, #8]
10004714:	60e3      	str	r3, [r4, #12]
10004716:	6123      	str	r3, [r4, #16]
10004718:	6163      	str	r3, [r4, #20]
1000471a:	61a3      	str	r3, [r4, #24]
1000471c:	61e3      	str	r3, [r4, #28]
1000471e:	6223      	str	r3, [r4, #32]
10004720:	6263      	str	r3, [r4, #36]	; 0x24
10004722:	62a3      	str	r3, [r4, #40]	; 0x28
10004724:	62e3      	str	r3, [r4, #44]	; 0x2c
10004726:	6323      	str	r3, [r4, #48]	; 0x30
10004728:	6363      	str	r3, [r4, #52]	; 0x34
1000472a:	63a3      	str	r3, [r4, #56]	; 0x38
1000472c:	63e3      	str	r3, [r4, #60]	; 0x3c
1000472e:	6423      	str	r3, [r4, #64]	; 0x40
10004730:	6463      	str	r3, [r4, #68]	; 0x44
10004732:	64a3      	str	r3, [r4, #72]	; 0x48
10004734:	64e3      	str	r3, [r4, #76]	; 0x4c
10004736:	6523      	str	r3, [r4, #80]	; 0x50
10004738:	6563      	str	r3, [r4, #84]	; 0x54
1000473a:	65a3      	str	r3, [r4, #88]	; 0x58
1000473c:	65e3      	str	r3, [r4, #92]	; 0x5c
1000473e:	6623      	str	r3, [r4, #96]	; 0x60
10004740:	6663      	str	r3, [r4, #100]	; 0x64
10004742:	66a3      	str	r3, [r4, #104]	; 0x68
10004744:	66e3      	str	r3, [r4, #108]	; 0x6c
10004746:	6723      	str	r3, [r4, #112]	; 0x70
10004748:	6763      	str	r3, [r4, #116]	; 0x74
1000474a:	67a3      	str	r3, [r4, #120]	; 0x78
1000474c:	67e3      	str	r3, [r4, #124]	; 0x7c
1000474e:	64a3      	str	r3, [r4, #72]	; 0x48
10004750:	e7d1      	b.n	100046f6 <__aeabi_double_init+0x22>
10004752:	46c0      	nop			; (mov r8, r8)
10004754:	00004453 	.word	0x00004453
10004758:	20001470 	.word	0x20001470
1000475c:	0000334c 	.word	0x0000334c
10004760:	200020e0 	.word	0x200020e0
10004764:	10004769 	.word	0x10004769

10004768 <double_table_shim_on_use_helper>:
10004768:	b507      	push	{r0, r1, r2, lr}
1000476a:	4660      	mov	r0, ip
1000476c:	8801      	ldrh	r1, [r0, #0]
1000476e:	0a0a      	lsrs	r2, r1, #8
10004770:	3002      	adds	r0, #2
10004772:	2adf      	cmp	r2, #223	; 0xdf
10004774:	d1fa      	bne.n	1000476c <double_table_shim_on_use_helper+0x4>
10004776:	b2c9      	uxtb	r1, r1
10004778:	0882      	lsrs	r2, r0, #2
1000477a:	d304      	bcc.n	10004786 <double_table_shim_on_use_helper+0x1e>
1000477c:	8802      	ldrh	r2, [r0, #0]
1000477e:	8840      	ldrh	r0, [r0, #2]
10004780:	0400      	lsls	r0, r0, #16
10004782:	4310      	orrs	r0, r2
10004784:	e000      	b.n	10004788 <double_table_shim_on_use_helper+0x20>
10004786:	6800      	ldr	r0, [r0, #0]
10004788:	4a01      	ldr	r2, [pc, #4]	; (10004790 <double_table_shim_on_use_helper+0x28>)
1000478a:	5050      	str	r0, [r2, r1]
1000478c:	9003      	str	r0, [sp, #12]
1000478e:	bd07      	pop	{r0, r1, r2, pc}
10004790:	20001470 	.word	0x20001470

10004794 <drsub_shim>:
10004794:	b40f      	push	{r0, r1, r2, r3}
10004796:	bc03      	pop	{r0, r1}
10004798:	bc0c      	pop	{r2, r3}

1000479a <dsub_shim>:
1000479a:	b5f0      	push	{r4, r5, r6, r7, lr}
1000479c:	2401      	movs	r4, #1
1000479e:	07e4      	lsls	r4, r4, #31
100047a0:	4063      	eors	r3, r4
100047a2:	e000      	b.n	100047a6 <da_entry>

100047a4 <dadd_shim>:
100047a4:	b5f0      	push	{r4, r5, r6, r7, lr}

100047a6 <da_entry>:
100047a6:	0d0c      	lsrs	r4, r1, #20
100047a8:	0fcf      	lsrs	r7, r1, #31
100047aa:	1e66      	subs	r6, r4, #1
100047ac:	0536      	lsls	r6, r6, #20
100047ae:	1b89      	subs	r1, r1, r6
100047b0:	0564      	lsls	r4, r4, #21
100047b2:	d303      	bcc.n	100047bc <l7_1>
100047b4:	43c9      	mvns	r1, r1
100047b6:	4240      	negs	r0, r0
100047b8:	d300      	bcc.n	100047bc <l7_1>
100047ba:	3101      	adds	r1, #1

100047bc <l7_1>:
100047bc:	0d64      	lsrs	r4, r4, #21
100047be:	d003      	beq.n	100047c8 <l7_2>
100047c0:	1c66      	adds	r6, r4, #1
100047c2:	0af6      	lsrs	r6, r6, #11
100047c4:	d007      	beq.n	100047d6 <l7_3>
100047c6:	1be4      	subs	r4, r4, r7

100047c8 <l7_2>:
100047c8:	2000      	movs	r0, #0
100047ca:	007f      	lsls	r7, r7, #1
100047cc:	1c79      	adds	r1, r7, #1
100047ce:	0789      	lsls	r1, r1, #30
100047d0:	1289      	asrs	r1, r1, #10
100047d2:	3c80      	subs	r4, #128	; 0x80
100047d4:	0324      	lsls	r4, r4, #12

100047d6 <l7_3>:
100047d6:	0d1d      	lsrs	r5, r3, #20
100047d8:	0fdf      	lsrs	r7, r3, #31
100047da:	1e6e      	subs	r6, r5, #1
100047dc:	0536      	lsls	r6, r6, #20
100047de:	1b9b      	subs	r3, r3, r6
100047e0:	056d      	lsls	r5, r5, #21
100047e2:	d303      	bcc.n	100047ec <l8_1>
100047e4:	43db      	mvns	r3, r3
100047e6:	4252      	negs	r2, r2
100047e8:	d300      	bcc.n	100047ec <l8_1>
100047ea:	3301      	adds	r3, #1

100047ec <l8_1>:
100047ec:	0d6d      	lsrs	r5, r5, #21
100047ee:	d003      	beq.n	100047f8 <l8_2>
100047f0:	1c6e      	adds	r6, r5, #1
100047f2:	0af6      	lsrs	r6, r6, #11
100047f4:	d007      	beq.n	10004806 <l8_3>
100047f6:	1bed      	subs	r5, r5, r7

100047f8 <l8_2>:
100047f8:	2200      	movs	r2, #0
100047fa:	007f      	lsls	r7, r7, #1
100047fc:	1c7b      	adds	r3, r7, #1
100047fe:	079b      	lsls	r3, r3, #30
10004800:	129b      	asrs	r3, r3, #10
10004802:	3d80      	subs	r5, #128	; 0x80
10004804:	032d      	lsls	r5, r5, #12

10004806 <l8_3>:
10004806:	1b2f      	subs	r7, r5, r4
10004808:	1b66      	subs	r6, r4, r5
1000480a:	d458      	bmi.n	100048be <da_ygtx>
1000480c:	46a4      	mov	ip, r4
1000480e:	2e20      	cmp	r6, #32
10004810:	da46      	bge.n	100048a0 <da_xrgty>
10004812:	3720      	adds	r7, #32
10004814:	0014      	movs	r4, r2
10004816:	40bc      	lsls	r4, r7

10004818 <da_xgty0>:
10004818:	001d      	movs	r5, r3
1000481a:	40bd      	lsls	r5, r7
1000481c:	40f2      	lsrs	r2, r6
1000481e:	4133      	asrs	r3, r6
10004820:	432a      	orrs	r2, r5

10004822 <da_add>:
10004822:	1880      	adds	r0, r0, r2
10004824:	4159      	adcs	r1, r3

10004826 <da_pack>:
10004826:	0fcb      	lsrs	r3, r1, #31
10004828:	d005      	beq.n	10004836 <da_pack+0x10>
1000482a:	43c9      	mvns	r1, r1
1000482c:	43c0      	mvns	r0, r0
1000482e:	2200      	movs	r2, #0
10004830:	4264      	negs	r4, r4
10004832:	4150      	adcs	r0, r2
10004834:	4151      	adcs	r1, r2
10004836:	4662      	mov	r2, ip
10004838:	0d4d      	lsrs	r5, r1, #21
1000483a:	d128      	bne.n	1000488e <da_0>
1000483c:	0d0d      	lsrs	r5, r1, #20
1000483e:	d107      	bne.n	10004850 <da_1>
10004840:	2800      	cmp	r0, #0
10004842:	d01f      	beq.n	10004884 <da_5>

10004844 <da_2>:
10004844:	1924      	adds	r4, r4, r4
10004846:	4140      	adcs	r0, r0
10004848:	4149      	adcs	r1, r1
1000484a:	3a01      	subs	r2, #1
1000484c:	0d0d      	lsrs	r5, r1, #20
1000484e:	d0f9      	beq.n	10004844 <da_2>

10004850 <da_1>:
10004850:	0064      	lsls	r4, r4, #1
10004852:	d306      	bcc.n	10004862 <da_3>

10004854 <da_4>:
10004854:	3001      	adds	r0, #1
10004856:	d300      	bcc.n	1000485a <da_4+0x6>
10004858:	3101      	adds	r1, #1
1000485a:	2c00      	cmp	r4, #0
1000485c:	d101      	bne.n	10004862 <da_3>
1000485e:	0840      	lsrs	r0, r0, #1
10004860:	0040      	lsls	r0, r0, #1

10004862 <da_3>:
10004862:	3a01      	subs	r2, #1
10004864:	d40b      	bmi.n	1000487e <da_6>
10004866:	1c94      	adds	r4, r2, #2
10004868:	0ae4      	lsrs	r4, r4, #11
1000486a:	d104      	bne.n	10004876 <da_7>
1000486c:	0512      	lsls	r2, r2, #20
1000486e:	4411      	add	r1, r2
10004870:	07db      	lsls	r3, r3, #31
10004872:	4419      	add	r1, r3
10004874:	bdf0      	pop	{r4, r5, r6, r7, pc}

10004876 <da_7>:
10004876:	07d9      	lsls	r1, r3, #31
10004878:	4b20      	ldr	r3, [pc, #128]	; (100048fc <da_xmgty+0x4>)
1000487a:	4319      	orrs	r1, r3
1000487c:	e000      	b.n	10004880 <da_6+0x2>

1000487e <da_6>:
1000487e:	07d9      	lsls	r1, r3, #31
10004880:	2000      	movs	r0, #0
10004882:	bdf0      	pop	{r4, r5, r6, r7, pc}

10004884 <da_5>:
10004884:	2900      	cmp	r1, #0
10004886:	d1dd      	bne.n	10004844 <da_2>
10004888:	2c00      	cmp	r4, #0
1000488a:	d1db      	bne.n	10004844 <da_2>
1000488c:	bdf0      	pop	{r4, r5, r6, r7, pc}

1000488e <da_0>:
1000488e:	3201      	adds	r2, #1
10004890:	07c6      	lsls	r6, r0, #31
10004892:	0840      	lsrs	r0, r0, #1
10004894:	07cd      	lsls	r5, r1, #31
10004896:	4328      	orrs	r0, r5
10004898:	0849      	lsrs	r1, r1, #1
1000489a:	2e00      	cmp	r6, #0
1000489c:	d0e1      	beq.n	10004862 <da_3>
1000489e:	e7d9      	b.n	10004854 <da_4>

100048a0 <da_xrgty>:
100048a0:	2e3c      	cmp	r6, #60	; 0x3c
100048a2:	da29      	bge.n	100048f8 <da_xmgty>
100048a4:	3e20      	subs	r6, #32
100048a6:	3740      	adds	r7, #64	; 0x40
100048a8:	0014      	movs	r4, r2
100048aa:	40bc      	lsls	r4, r7
100048ac:	d000      	beq.n	100048b0 <da_xrgty+0x10>
100048ae:	2401      	movs	r4, #1
100048b0:	40f2      	lsrs	r2, r6
100048b2:	4314      	orrs	r4, r2
100048b4:	001a      	movs	r2, r3
100048b6:	40bb      	lsls	r3, r7
100048b8:	431c      	orrs	r4, r3
100048ba:	17d3      	asrs	r3, r2, #31
100048bc:	e7ac      	b.n	10004818 <da_xgty0>

100048be <da_ygtx>:
100048be:	46ac      	mov	ip, r5
100048c0:	2f20      	cmp	r7, #32
100048c2:	da08      	bge.n	100048d6 <da_yrgtx>
100048c4:	3620      	adds	r6, #32
100048c6:	0004      	movs	r4, r0
100048c8:	40b4      	lsls	r4, r6

100048ca <da_ygtx0>:
100048ca:	000d      	movs	r5, r1
100048cc:	40b5      	lsls	r5, r6
100048ce:	40f8      	lsrs	r0, r7
100048d0:	4139      	asrs	r1, r7
100048d2:	4328      	orrs	r0, r5
100048d4:	e7a5      	b.n	10004822 <da_add>

100048d6 <da_yrgtx>:
100048d6:	2f3c      	cmp	r7, #60	; 0x3c
100048d8:	da0c      	bge.n	100048f4 <da_ymgtx>
100048da:	3f20      	subs	r7, #32
100048dc:	3640      	adds	r6, #64	; 0x40
100048de:	0004      	movs	r4, r0
100048e0:	40b4      	lsls	r4, r6
100048e2:	d000      	beq.n	100048e6 <da_yrgtx+0x10>
100048e4:	2401      	movs	r4, #1
100048e6:	40f8      	lsrs	r0, r7
100048e8:	4304      	orrs	r4, r0
100048ea:	0008      	movs	r0, r1
100048ec:	40b1      	lsls	r1, r6
100048ee:	430c      	orrs	r4, r1
100048f0:	17c1      	asrs	r1, r0, #31
100048f2:	e7ea      	b.n	100048ca <da_ygtx0>

100048f4 <da_ymgtx>:
100048f4:	0010      	movs	r0, r2
100048f6:	0019      	movs	r1, r3

100048f8 <da_xmgty>:
100048f8:	2400      	movs	r4, #0
100048fa:	e794      	b.n	10004826 <da_pack>
100048fc:	7ff00000 	.word	0x7ff00000

10004900 <dmul_shim>:
10004900:	b5f0      	push	{r4, r5, r6, r7, lr}
10004902:	0d0c      	lsrs	r4, r1, #20
10004904:	1e66      	subs	r6, r4, #1
10004906:	0536      	lsls	r6, r6, #20
10004908:	1b89      	subs	r1, r1, r6
1000490a:	0ae6      	lsrs	r6, r4, #11
1000490c:	0564      	lsls	r4, r4, #21
1000490e:	0d64      	lsrs	r4, r4, #21
10004910:	d002      	beq.n	10004918 <l11_1>
10004912:	1c65      	adds	r5, r4, #1
10004914:	0aed      	lsrs	r5, r5, #11
10004916:	d004      	beq.n	10004922 <l11_2>

10004918 <l11_1>:
10004918:	2000      	movs	r0, #0
1000491a:	2101      	movs	r1, #1
1000491c:	0509      	lsls	r1, r1, #20
1000491e:	3c80      	subs	r4, #128	; 0x80
10004920:	0324      	lsls	r4, r4, #12

10004922 <l11_2>:
10004922:	46a4      	mov	ip, r4
10004924:	0d1c      	lsrs	r4, r3, #20
10004926:	1e67      	subs	r7, r4, #1
10004928:	053f      	lsls	r7, r7, #20
1000492a:	1bdb      	subs	r3, r3, r7
1000492c:	0ae7      	lsrs	r7, r4, #11
1000492e:	0564      	lsls	r4, r4, #21
10004930:	0d64      	lsrs	r4, r4, #21
10004932:	d002      	beq.n	1000493a <l12_1>
10004934:	1c65      	adds	r5, r4, #1
10004936:	0aed      	lsrs	r5, r5, #11
10004938:	d004      	beq.n	10004944 <l12_2>

1000493a <l12_1>:
1000493a:	2200      	movs	r2, #0
1000493c:	2301      	movs	r3, #1
1000493e:	051b      	lsls	r3, r3, #20
10004940:	3c80      	subs	r4, #128	; 0x80
10004942:	0324      	lsls	r4, r4, #12

10004944 <l12_2>:
10004944:	4077      	eors	r7, r6
10004946:	4464      	add	r4, ip
10004948:	b497      	push	{r0, r1, r2, r4, r7}
1000494a:	b284      	uxth	r4, r0
1000494c:	b296      	uxth	r6, r2
1000494e:	4374      	muls	r4, r6
10004950:	0c07      	lsrs	r7, r0, #16
10004952:	437e      	muls	r6, r7
10004954:	0c15      	lsrs	r5, r2, #16
10004956:	436f      	muls	r7, r5
10004958:	b280      	uxth	r0, r0
1000495a:	4368      	muls	r0, r5
1000495c:	1836      	adds	r6, r6, r0
1000495e:	d302      	bcc.n	10004966 <l13_1>
10004960:	2001      	movs	r0, #1
10004962:	0400      	lsls	r0, r0, #16
10004964:	183f      	adds	r7, r7, r0

10004966 <l13_1>:
10004966:	0430      	lsls	r0, r6, #16
10004968:	0c35      	lsrs	r5, r6, #16
1000496a:	1900      	adds	r0, r0, r4
1000496c:	417d      	adcs	r5, r7
1000496e:	4684      	mov	ip, r0
10004970:	b288      	uxth	r0, r1
10004972:	b29a      	uxth	r2, r3
10004974:	4350      	muls	r0, r2
10004976:	0c0c      	lsrs	r4, r1, #16
10004978:	4362      	muls	r2, r4
1000497a:	0c1f      	lsrs	r7, r3, #16
1000497c:	437c      	muls	r4, r7
1000497e:	b28e      	uxth	r6, r1
10004980:	437e      	muls	r6, r7
10004982:	1992      	adds	r2, r2, r6
10004984:	d302      	bcc.n	1000498c <l14_1>
10004986:	2601      	movs	r6, #1
10004988:	0436      	lsls	r6, r6, #16
1000498a:	19a4      	adds	r4, r4, r6

1000498c <l14_1>:
1000498c:	0416      	lsls	r6, r2, #16
1000498e:	0c17      	lsrs	r7, r2, #16
10004990:	1836      	adds	r6, r6, r0
10004992:	4167      	adcs	r7, r4
10004994:	bc01      	pop	{r0}
10004996:	b281      	uxth	r1, r0
10004998:	b29a      	uxth	r2, r3
1000499a:	4351      	muls	r1, r2
1000499c:	0c04      	lsrs	r4, r0, #16
1000499e:	4362      	muls	r2, r4
100049a0:	0c1b      	lsrs	r3, r3, #16
100049a2:	435c      	muls	r4, r3
100049a4:	b280      	uxth	r0, r0
100049a6:	4358      	muls	r0, r3
100049a8:	1812      	adds	r2, r2, r0
100049aa:	d302      	bcc.n	100049b2 <l15_1>
100049ac:	2001      	movs	r0, #1
100049ae:	0400      	lsls	r0, r0, #16
100049b0:	1824      	adds	r4, r4, r0

100049b2 <l15_1>:
100049b2:	0410      	lsls	r0, r2, #16
100049b4:	0c13      	lsrs	r3, r2, #16
100049b6:	1840      	adds	r0, r0, r1
100049b8:	4163      	adcs	r3, r4
100049ba:	182d      	adds	r5, r5, r0
100049bc:	415e      	adcs	r6, r3
100049be:	2000      	movs	r0, #0
100049c0:	4147      	adcs	r7, r0
100049c2:	bc06      	pop	{r1, r2}
100049c4:	b288      	uxth	r0, r1
100049c6:	b293      	uxth	r3, r2
100049c8:	4358      	muls	r0, r3
100049ca:	0c0c      	lsrs	r4, r1, #16
100049cc:	4363      	muls	r3, r4
100049ce:	0c12      	lsrs	r2, r2, #16
100049d0:	4354      	muls	r4, r2
100049d2:	b289      	uxth	r1, r1
100049d4:	4351      	muls	r1, r2
100049d6:	185b      	adds	r3, r3, r1
100049d8:	d302      	bcc.n	100049e0 <l16_1>
100049da:	2101      	movs	r1, #1
100049dc:	0409      	lsls	r1, r1, #16
100049de:	1864      	adds	r4, r4, r1

100049e0 <l16_1>:
100049e0:	0419      	lsls	r1, r3, #16
100049e2:	0c1a      	lsrs	r2, r3, #16
100049e4:	1809      	adds	r1, r1, r0
100049e6:	4162      	adcs	r2, r4
100049e8:	186d      	adds	r5, r5, r1
100049ea:	4156      	adcs	r6, r2
100049ec:	2000      	movs	r0, #0
100049ee:	4147      	adcs	r7, r0
100049f0:	bc18      	pop	{r3, r4}
100049f2:	02f9      	lsls	r1, r7, #11
100049f4:	0d72      	lsrs	r2, r6, #21
100049f6:	4311      	orrs	r1, r2
100049f8:	02f0      	lsls	r0, r6, #11
100049fa:	0d6a      	lsrs	r2, r5, #21
100049fc:	4310      	orrs	r0, r2
100049fe:	02ed      	lsls	r5, r5, #11
10004a00:	0d0a      	lsrs	r2, r1, #20
10004a02:	d103      	bne.n	10004a0c <l16_1+0x2c>
10004a04:	196d      	adds	r5, r5, r5
10004a06:	4140      	adcs	r0, r0
10004a08:	4149      	adcs	r1, r1
10004a0a:	3b01      	subs	r3, #1
10004a0c:	4e12      	ldr	r6, [pc, #72]	; (10004a58 <dm_1+0xa>)
10004a0e:	1b9b      	subs	r3, r3, r6
10004a10:	0076      	lsls	r6, r6, #1
10004a12:	42b3      	cmp	r3, r6
10004a14:	d20e      	bcs.n	10004a34 <dm_0>
10004a16:	006d      	lsls	r5, r5, #1
10004a18:	d307      	bcc.n	10004a2a <l16_1+0x4a>
10004a1a:	3001      	adds	r0, #1
10004a1c:	2600      	movs	r6, #0
10004a1e:	4171      	adcs	r1, r6
10004a20:	4666      	mov	r6, ip
10004a22:	4335      	orrs	r5, r6
10004a24:	d101      	bne.n	10004a2a <l16_1+0x4a>
10004a26:	0840      	lsrs	r0, r0, #1
10004a28:	0040      	lsls	r0, r0, #1
10004a2a:	051b      	lsls	r3, r3, #20
10004a2c:	18c9      	adds	r1, r1, r3

10004a2e <dm_2>:
10004a2e:	07e4      	lsls	r4, r4, #31
10004a30:	4421      	add	r1, r4
10004a32:	bdf0      	pop	{r4, r5, r6, r7, pc}

10004a34 <dm_0>:
10004a34:	da0b      	bge.n	10004a4e <dm_1>
10004a36:	3301      	adds	r3, #1
10004a38:	d106      	bne.n	10004a48 <dm_0+0x14>
10004a3a:	3001      	adds	r0, #1
10004a3c:	d104      	bne.n	10004a48 <dm_0+0x14>
10004a3e:	3101      	adds	r1, #1
10004a40:	0d4f      	lsrs	r7, r1, #21
10004a42:	d001      	beq.n	10004a48 <dm_0+0x14>
10004a44:	0849      	lsrs	r1, r1, #1
10004a46:	e7f2      	b.n	10004a2e <dm_2>
10004a48:	07e1      	lsls	r1, r4, #31
10004a4a:	2000      	movs	r0, #0
10004a4c:	bdf0      	pop	{r4, r5, r6, r7, pc}

10004a4e <dm_1>:
10004a4e:	3601      	adds	r6, #1
10004a50:	0531      	lsls	r1, r6, #20
10004a52:	2000      	movs	r0, #0
10004a54:	e7eb      	b.n	10004a2e <dm_2>
10004a56:	0000      	.short	0x0000
10004a58:	000003ff 	.word	0x000003ff

10004a5c <ddiv_shim>:
10004a5c:	b5f0      	push	{r4, r5, r6, r7, lr}

10004a5e <ddiv0>:
10004a5e:	0d1c      	lsrs	r4, r3, #20
10004a60:	1e67      	subs	r7, r4, #1
10004a62:	053f      	lsls	r7, r7, #20
10004a64:	1bdb      	subs	r3, r3, r7
10004a66:	0ae7      	lsrs	r7, r4, #11
10004a68:	0564      	lsls	r4, r4, #21
10004a6a:	0d64      	lsrs	r4, r4, #21
10004a6c:	d002      	beq.n	10004a74 <l19_1>
10004a6e:	1c66      	adds	r6, r4, #1
10004a70:	0af6      	lsrs	r6, r6, #11
10004a72:	d004      	beq.n	10004a7e <l19_2>

10004a74 <l19_1>:
10004a74:	2200      	movs	r2, #0
10004a76:	2301      	movs	r3, #1
10004a78:	051b      	lsls	r3, r3, #20
10004a7a:	3c80      	subs	r4, #128	; 0x80
10004a7c:	0324      	lsls	r4, r4, #12

10004a7e <l19_2>:
10004a7e:	25d0      	movs	r5, #208	; 0xd0
10004a80:	062d      	lsls	r5, r5, #24
10004a82:	2600      	movs	r6, #0
10004a84:	43f6      	mvns	r6, r6
10004a86:	662e      	str	r6, [r5, #96]	; 0x60
10004a88:	091e      	lsrs	r6, r3, #4
10004a8a:	666e      	str	r6, [r5, #100]	; 0x64
10004a8c:	0fce      	lsrs	r6, r1, #31
10004a8e:	19f6      	adds	r6, r6, r7
10004a90:	46b4      	mov	ip, r6
10004a92:	0049      	lsls	r1, r1, #1
10004a94:	0d4f      	lsrs	r7, r1, #21
10004a96:	d002      	beq.n	10004a9e <l19_2+0x20>
10004a98:	1c7e      	adds	r6, r7, #1
10004a9a:	0af6      	lsrs	r6, r6, #11
10004a9c:	d003      	beq.n	10004aa6 <l19_2+0x28>
10004a9e:	2000      	movs	r0, #0
10004aa0:	2100      	movs	r1, #0
10004aa2:	3f40      	subs	r7, #64	; 0x40
10004aa4:	033f      	lsls	r7, r7, #12
10004aa6:	1b3e      	subs	r6, r7, r4
10004aa8:	00b6      	lsls	r6, r6, #2
10004aaa:	44b4      	add	ip, r6
10004aac:	3f01      	subs	r7, #1
10004aae:	057f      	lsls	r7, r7, #21
10004ab0:	1bc9      	subs	r1, r1, r7
10004ab2:	0849      	lsrs	r1, r1, #1
10004ab4:	6f2e      	ldr	r6, [r5, #112]	; 0x70
10004ab6:	3601      	adds	r6, #1
10004ab8:	0876      	lsrs	r6, r6, #1
10004aba:	029c      	lsls	r4, r3, #10
10004abc:	0d95      	lsrs	r5, r2, #22
10004abe:	4325      	orrs	r5, r4
10004ac0:	4375      	muls	r5, r6
10004ac2:	13ed      	asrs	r5, r5, #15
10004ac4:	4375      	muls	r5, r6
10004ac6:	13ad      	asrs	r5, r5, #14
10004ac8:	3501      	adds	r5, #1
10004aca:	106d      	asrs	r5, r5, #1
10004acc:	03f6      	lsls	r6, r6, #15
10004ace:	1b76      	subs	r6, r6, r5
10004ad0:	b40c      	push	{r2, r3}
10004ad2:	02cc      	lsls	r4, r1, #11
10004ad4:	0d45      	lsrs	r5, r0, #21
10004ad6:	432c      	orrs	r4, r5
10004ad8:	b2a2      	uxth	r2, r4
10004ada:	b2b3      	uxth	r3, r6
10004adc:	435a      	muls	r2, r3
10004ade:	0c27      	lsrs	r7, r4, #16
10004ae0:	437b      	muls	r3, r7
10004ae2:	0c35      	lsrs	r5, r6, #16
10004ae4:	436f      	muls	r7, r5
10004ae6:	b2a4      	uxth	r4, r4
10004ae8:	436c      	muls	r4, r5
10004aea:	191b      	adds	r3, r3, r4
10004aec:	d302      	bcc.n	10004af4 <l20_1>
10004aee:	2401      	movs	r4, #1
10004af0:	0424      	lsls	r4, r4, #16
10004af2:	193f      	adds	r7, r7, r4

10004af4 <l20_1>:
10004af4:	041c      	lsls	r4, r3, #16
10004af6:	0c1d      	lsrs	r5, r3, #16
10004af8:	18a4      	adds	r4, r4, r2
10004afa:	417d      	adcs	r5, r7
10004afc:	1924      	adds	r4, r4, r4
10004afe:	416d      	adcs	r5, r5
10004b00:	9a00      	ldr	r2, [sp, #0]
10004b02:	b291      	uxth	r1, r2
10004b04:	b2ac      	uxth	r4, r5
10004b06:	4361      	muls	r1, r4
10004b08:	0c17      	lsrs	r7, r2, #16
10004b0a:	437c      	muls	r4, r7
10004b0c:	0c2b      	lsrs	r3, r5, #16
10004b0e:	435f      	muls	r7, r3
10004b10:	b292      	uxth	r2, r2
10004b12:	435a      	muls	r2, r3
10004b14:	18a4      	adds	r4, r4, r2
10004b16:	d302      	bcc.n	10004b1e <l21_1>
10004b18:	2201      	movs	r2, #1
10004b1a:	0412      	lsls	r2, r2, #16
10004b1c:	18bf      	adds	r7, r7, r2

10004b1e <l21_1>:
10004b1e:	0422      	lsls	r2, r4, #16
10004b20:	0c23      	lsrs	r3, r4, #16
10004b22:	1852      	adds	r2, r2, r1
10004b24:	417b      	adcs	r3, r7
10004b26:	9c01      	ldr	r4, [sp, #4]
10004b28:	436c      	muls	r4, r5
10004b2a:	191b      	adds	r3, r3, r4
10004b2c:	0e52      	lsrs	r2, r2, #25
10004b2e:	01d9      	lsls	r1, r3, #7
10004b30:	430a      	orrs	r2, r1
10004b32:	0144      	lsls	r4, r0, #5
10004b34:	1aa0      	subs	r0, r4, r2
10004b36:	b281      	uxth	r1, r0
10004b38:	b2b2      	uxth	r2, r6
10004b3a:	4351      	muls	r1, r2
10004b3c:	1403      	asrs	r3, r0, #16
10004b3e:	435a      	muls	r2, r3
10004b40:	0c36      	lsrs	r6, r6, #16
10004b42:	4373      	muls	r3, r6
10004b44:	b287      	uxth	r7, r0
10004b46:	4377      	muls	r7, r6
10004b48:	17d6      	asrs	r6, r2, #31
10004b4a:	19d2      	adds	r2, r2, r7
10004b4c:	2700      	movs	r7, #0
10004b4e:	417e      	adcs	r6, r7
10004b50:	0436      	lsls	r6, r6, #16
10004b52:	199b      	adds	r3, r3, r6
10004b54:	0417      	lsls	r7, r2, #16
10004b56:	0c16      	lsrs	r6, r2, #16
10004b58:	187f      	adds	r7, r7, r1
10004b5a:	415e      	adcs	r6, r3
10004b5c:	1673      	asrs	r3, r6, #25
10004b5e:	18ed      	adds	r5, r5, r3
10004b60:	01f3      	lsls	r3, r6, #7
10004b62:	2600      	movs	r6, #0
10004b64:	3380      	adds	r3, #128	; 0x80
10004b66:	4175      	adcs	r5, r6
10004b68:	0fa9      	lsrs	r1, r5, #30
10004b6a:	d106      	bne.n	10004b7a <dd_0>
10004b6c:	0064      	lsls	r4, r4, #1
10004b6e:	0a69      	lsrs	r1, r5, #9
10004b70:	05e8      	lsls	r0, r5, #23
10004b72:	0a5b      	lsrs	r3, r3, #9
10004b74:	4318      	orrs	r0, r3
10004b76:	d209      	bcs.n	10004b8c <dd_1>
10004b78:	e02f      	b.n	10004bda <dd_2>

10004b7a <dd_0>:
10004b7a:	2204      	movs	r2, #4
10004b7c:	4494      	add	ip, r2
10004b7e:	3380      	adds	r3, #128	; 0x80
10004b80:	4175      	adcs	r5, r6
10004b82:	0aa9      	lsrs	r1, r5, #10
10004b84:	05a8      	lsls	r0, r5, #22
10004b86:	0a9b      	lsrs	r3, r3, #10
10004b88:	4318      	orrs	r0, r3
10004b8a:	d326      	bcc.n	10004bda <dd_2>

10004b8c <dd_1>:
10004b8c:	4140      	adcs	r0, r0
10004b8e:	4149      	adcs	r1, r1
10004b90:	0424      	lsls	r4, r4, #16
10004b92:	9a00      	ldr	r2, [sp, #0]
10004b94:	9b01      	ldr	r3, [sp, #4]
10004b96:	000d      	movs	r5, r1
10004b98:	4355      	muls	r5, r2
10004b9a:	1b64      	subs	r4, r4, r5
10004b9c:	4343      	muls	r3, r0
10004b9e:	1ae4      	subs	r4, r4, r3
10004ba0:	b295      	uxth	r5, r2
10004ba2:	b286      	uxth	r6, r0
10004ba4:	4375      	muls	r5, r6
10004ba6:	0c17      	lsrs	r7, r2, #16
10004ba8:	437e      	muls	r6, r7
10004baa:	0c03      	lsrs	r3, r0, #16
10004bac:	435f      	muls	r7, r3
10004bae:	b292      	uxth	r2, r2
10004bb0:	435a      	muls	r2, r3
10004bb2:	18b6      	adds	r6, r6, r2
10004bb4:	d302      	bcc.n	10004bbc <l23_1>
10004bb6:	2201      	movs	r2, #1
10004bb8:	0412      	lsls	r2, r2, #16
10004bba:	18bf      	adds	r7, r7, r2

10004bbc <l23_1>:
10004bbc:	0432      	lsls	r2, r6, #16
10004bbe:	0c33      	lsrs	r3, r6, #16
10004bc0:	1952      	adds	r2, r2, r5
10004bc2:	417b      	adcs	r3, r7
10004bc4:	4252      	negs	r2, r2
10004bc6:	419c      	sbcs	r4, r3
10004bc8:	2c00      	cmp	r4, #0
10004bca:	d402      	bmi.n	10004bd2 <l23_1+0x16>
10004bcc:	2200      	movs	r2, #0
10004bce:	3001      	adds	r0, #1
10004bd0:	4151      	adcs	r1, r2
10004bd2:	0840      	lsrs	r0, r0, #1
10004bd4:	07ca      	lsls	r2, r1, #31
10004bd6:	4310      	orrs	r0, r2
10004bd8:	0849      	lsrs	r1, r1, #1

10004bda <dd_2>:
10004bda:	b002      	add	sp, #8
10004bdc:	4662      	mov	r2, ip
10004bde:	07d7      	lsls	r7, r2, #31
10004be0:	1092      	asrs	r2, r2, #2
10004be2:	4b08      	ldr	r3, [pc, #32]	; (10004c04 <dd_4+0x6>)
10004be4:	18d2      	adds	r2, r2, r3
10004be6:	4b08      	ldr	r3, [pc, #32]	; (10004c08 <dd_4+0xa>)
10004be8:	429a      	cmp	r2, r3
10004bea:	d203      	bcs.n	10004bf4 <dd_3>
10004bec:	0512      	lsls	r2, r2, #20
10004bee:	1889      	adds	r1, r1, r2

10004bf0 <dd_5>:
10004bf0:	19c9      	adds	r1, r1, r7
10004bf2:	bdf0      	pop	{r4, r5, r6, r7, pc}

10004bf4 <dd_3>:
10004bf4:	2000      	movs	r0, #0
10004bf6:	2a00      	cmp	r2, #0
10004bf8:	dc01      	bgt.n	10004bfe <dd_4>
10004bfa:	0039      	movs	r1, r7
10004bfc:	bdf0      	pop	{r4, r5, r6, r7, pc}

10004bfe <dd_4>:
10004bfe:	3301      	adds	r3, #1
10004c00:	0519      	lsls	r1, r3, #20
10004c02:	e7f5      	b.n	10004bf0 <dd_5>
10004c04:	000003fd 	.word	0x000003fd
10004c08:	000007fe 	.word	0x000007fe

10004c0c <double2uint_shim>:
10004c0c:	2200      	movs	r2, #0

10004c0e <double2ufix_shim>:
10004c0e:	b500      	push	{lr}
10004c10:	3220      	adds	r2, #32
10004c12:	f000 f804 	bl	10004c1e <double2ufix64_shim>
10004c16:	0008      	movs	r0, r1
10004c18:	bd00      	pop	{pc}
	...

10004c1c <double2uint64_shim>:
10004c1c:	2200      	movs	r2, #0

10004c1e <double2ufix64_shim>:
10004c1e:	150b      	asrs	r3, r1, #20
10004c20:	d40a      	bmi.n	10004c38 <ret_dzero>

10004c22 <d2fix>:
10004c22:	b510      	push	{r4, lr}
10004c24:	4694      	mov	ip, r2
10004c26:	f000 f831 	bl	10004c8c <dunpacks>
10004c2a:	1414      	asrs	r4, r2, #16
10004c2c:	3401      	adds	r4, #1
10004c2e:	da00      	bge.n	10004c32 <d2fix+0x10>
10004c30:	2100      	movs	r1, #0
10004c32:	17cb      	asrs	r3, r1, #31
10004c34:	4c14      	ldr	r4, [pc, #80]	; (10004c88 <d2fix_a+0x4a>)
10004c36:	4720      	bx	r4

10004c38 <ret_dzero>:
10004c38:	2000      	movs	r0, #0
10004c3a:	2100      	movs	r1, #0
10004c3c:	4770      	bx	lr

10004c3e <d2fix_a>:
10004c3e:	4462      	add	r2, ip
10004c40:	3a34      	subs	r2, #52	; 0x34
10004c42:	d40c      	bmi.n	10004c5e <d2fix_a+0x20>
10004c44:	2a0c      	cmp	r2, #12
10004c46:	da07      	bge.n	10004c58 <d2fix_a+0x1a>
10004c48:	0004      	movs	r4, r0
10004c4a:	4091      	lsls	r1, r2
10004c4c:	4090      	lsls	r0, r2
10004c4e:	4252      	negs	r2, r2
10004c50:	3220      	adds	r2, #32
10004c52:	40d4      	lsrs	r4, r2
10004c54:	4321      	orrs	r1, r4
10004c56:	bd10      	pop	{r4, pc}
10004c58:	43d8      	mvns	r0, r3
10004c5a:	43d9      	mvns	r1, r3
10004c5c:	bd10      	pop	{r4, pc}
10004c5e:	3220      	adds	r2, #32
10004c60:	d407      	bmi.n	10004c72 <d2fix_a+0x34>
10004c62:	460c      	mov	r4, r1
10004c64:	4094      	lsls	r4, r2
10004c66:	4252      	negs	r2, r2
10004c68:	3220      	adds	r2, #32
10004c6a:	4111      	asrs	r1, r2
10004c6c:	40d0      	lsrs	r0, r2
10004c6e:	4320      	orrs	r0, r4
10004c70:	bd10      	pop	{r4, pc}
10004c72:	0008      	movs	r0, r1
10004c74:	17c9      	asrs	r1, r1, #31
10004c76:	3220      	adds	r2, #32
10004c78:	d403      	bmi.n	10004c82 <d2fix_a+0x44>
10004c7a:	4252      	negs	r2, r2
10004c7c:	3220      	adds	r2, #32
10004c7e:	4110      	asrs	r0, r2
10004c80:	bd10      	pop	{r4, pc}
10004c82:	0018      	movs	r0, r3
10004c84:	0019      	movs	r1, r3
10004c86:	bd10      	pop	{r4, pc}
10004c88:	10004c3f 	.word	0x10004c3f

10004c8c <dunpacks>:
10004c8c:	0d0a      	lsrs	r2, r1, #20
10004c8e:	0fcc      	lsrs	r4, r1, #31
10004c90:	1e53      	subs	r3, r2, #1
10004c92:	051b      	lsls	r3, r3, #20
10004c94:	1ac9      	subs	r1, r1, r3
10004c96:	0552      	lsls	r2, r2, #21
10004c98:	d303      	bcc.n	10004ca2 <l59_1>
10004c9a:	43c9      	mvns	r1, r1
10004c9c:	4240      	negs	r0, r0
10004c9e:	d300      	bcc.n	10004ca2 <l59_1>
10004ca0:	3101      	adds	r1, #1

10004ca2 <l59_1>:
10004ca2:	0d52      	lsrs	r2, r2, #21
10004ca4:	d003      	beq.n	10004cae <l59_2>
10004ca6:	1c53      	adds	r3, r2, #1
10004ca8:	0adb      	lsrs	r3, r3, #11
10004caa:	d007      	beq.n	10004cbc <l59_3>
10004cac:	1b12      	subs	r2, r2, r4

10004cae <l59_2>:
10004cae:	2000      	movs	r0, #0
10004cb0:	0064      	lsls	r4, r4, #1
10004cb2:	1c61      	adds	r1, r4, #1
10004cb4:	0789      	lsls	r1, r1, #30
10004cb6:	1289      	asrs	r1, r1, #10
10004cb8:	3a80      	subs	r2, #128	; 0x80
10004cba:	0312      	lsls	r2, r2, #12

10004cbc <l59_3>:
10004cbc:	4b01      	ldr	r3, [pc, #4]	; (10004cc4 <l59_3+0x8>)
10004cbe:	1ad2      	subs	r2, r2, r3
10004cc0:	4770      	bx	lr
10004cc2:	0000      	.short	0x0000
10004cc4:	000003ff 	.word	0x000003ff

10004cc8 <__wrap___aeabi_lmul>:
10004cc8:	4351      	muls	r1, r2
10004cca:	4343      	muls	r3, r0
10004ccc:	18c9      	adds	r1, r1, r3
10004cce:	468c      	mov	ip, r1
10004cd0:	0c11      	lsrs	r1, r2, #16
10004cd2:	b283      	uxth	r3, r0
10004cd4:	434b      	muls	r3, r1
10004cd6:	b410      	push	{r4}
10004cd8:	0c04      	lsrs	r4, r0, #16
10004cda:	4361      	muls	r1, r4
10004cdc:	b292      	uxth	r2, r2
10004cde:	b280      	uxth	r0, r0
10004ce0:	4350      	muls	r0, r2
10004ce2:	4362      	muls	r2, r4
10004ce4:	041c      	lsls	r4, r3, #16
10004ce6:	0c1b      	lsrs	r3, r3, #16
10004ce8:	1900      	adds	r0, r0, r4
10004cea:	bc10      	pop	{r4}
10004cec:	4159      	adcs	r1, r3
10004cee:	0413      	lsls	r3, r2, #16
10004cf0:	0c12      	lsrs	r2, r2, #16
10004cf2:	18c0      	adds	r0, r0, r3
10004cf4:	4151      	adcs	r1, r2
10004cf6:	4461      	add	r1, ip
10004cf8:	4770      	bx	lr
	...

10004cfc <__wrap___aeabi_frsub>:
10004cfc:	4048      	eors	r0, r1
10004cfe:	4041      	eors	r1, r0
10004d00:	4048      	eors	r0, r1

10004d02 <__wrap___aeabi_fsub>:
10004d02:	4b0e      	ldr	r3, [pc, #56]	; (10004d3c <__wrap___aeabi_fmul+0x6>)
10004d04:	685b      	ldr	r3, [r3, #4]
10004d06:	4718      	bx	r3

10004d08 <__wrap___aeabi_fadd>:
10004d08:	4b0c      	ldr	r3, [pc, #48]	; (10004d3c <__wrap___aeabi_fmul+0x6>)
10004d0a:	681b      	ldr	r3, [r3, #0]
10004d0c:	4718      	bx	r3

10004d0e <__wrap___aeabi_fdiv>:
10004d0e:	4a0c      	ldr	r2, [pc, #48]	; (10004d40 <__wrap___aeabi_fmul+0xa>)
10004d10:	6f93      	ldr	r3, [r2, #120]	; 0x78
10004d12:	089b      	lsrs	r3, r3, #2
10004d14:	d202      	bcs.n	10004d1c <fdiv_save_state>

10004d16 <fdiv_shim_call>:
10004d16:	4b09      	ldr	r3, [pc, #36]	; (10004d3c <__wrap___aeabi_fmul+0x6>)
10004d18:	68db      	ldr	r3, [r3, #12]
10004d1a:	4718      	bx	r3

10004d1c <fdiv_save_state>:
10004d1c:	b5f0      	push	{r4, r5, r6, r7, lr}
10004d1e:	6e14      	ldr	r4, [r2, #96]	; 0x60
10004d20:	6e55      	ldr	r5, [r2, #100]	; 0x64
10004d22:	6f57      	ldr	r7, [r2, #116]	; 0x74
10004d24:	6f16      	ldr	r6, [r2, #112]	; 0x70
10004d26:	f7ff fff6 	bl	10004d16 <fdiv_shim_call>
10004d2a:	4a05      	ldr	r2, [pc, #20]	; (10004d40 <__wrap___aeabi_fmul+0xa>)
10004d2c:	6614      	str	r4, [r2, #96]	; 0x60
10004d2e:	6655      	str	r5, [r2, #100]	; 0x64
10004d30:	6757      	str	r7, [r2, #116]	; 0x74
10004d32:	6716      	str	r6, [r2, #112]	; 0x70
10004d34:	bdf0      	pop	{r4, r5, r6, r7, pc}

10004d36 <__wrap___aeabi_fmul>:
10004d36:	4b01      	ldr	r3, [pc, #4]	; (10004d3c <__wrap___aeabi_fmul+0x6>)
10004d38:	689b      	ldr	r3, [r3, #8]
10004d3a:	4718      	bx	r3
10004d3c:	20001570 	.word	0x20001570
10004d40:	d0000000 	.word	0xd0000000

10004d44 <__wrap___aeabi_ui2f>:
10004d44:	1a49      	subs	r1, r1, r1
10004d46:	2800      	cmp	r0, #0
10004d48:	d108      	bne.n	10004d5c <__aeabi_i2f_main>
10004d4a:	4608      	mov	r0, r1
10004d4c:	4770      	bx	lr
	...

10004d50 <__wrap___aeabi_i2f>:
10004d50:	0fc1      	lsrs	r1, r0, #31
10004d52:	07c9      	lsls	r1, r1, #31
10004d54:	d500      	bpl.n	10004d58 <__wrap___aeabi_i2f+0x8>
10004d56:	4240      	negs	r0, r0
10004d58:	2800      	cmp	r0, #0
10004d5a:	d017      	beq.n	10004d8c <__aeabi_i2f_main+0x30>

10004d5c <__aeabi_i2f_main>:
10004d5c:	46f4      	mov	ip, lr
10004d5e:	b403      	push	{r0, r1}
10004d60:	4b0b      	ldr	r3, [pc, #44]	; (10004d90 <__aeabi_i2f_main+0x34>)
10004d62:	681b      	ldr	r3, [r3, #0]
10004d64:	4798      	blx	r3
10004d66:	bc06      	pop	{r1, r2}
10004d68:	4081      	lsls	r1, r0
10004d6a:	389e      	subs	r0, #158	; 0x9e
10004d6c:	4240      	negs	r0, r0
10004d6e:	3180      	adds	r1, #128	; 0x80
10004d70:	d207      	bcs.n	10004d82 <__aeabi_i2f_main+0x26>
10004d72:	060b      	lsls	r3, r1, #24
10004d74:	d007      	beq.n	10004d86 <__aeabi_i2f_main+0x2a>
10004d76:	0049      	lsls	r1, r1, #1
10004d78:	0a49      	lsrs	r1, r1, #9
10004d7a:	05c0      	lsls	r0, r0, #23
10004d7c:	4310      	orrs	r0, r2
10004d7e:	4308      	orrs	r0, r1
10004d80:	4760      	bx	ip
10004d82:	3001      	adds	r0, #1
10004d84:	e7f8      	b.n	10004d78 <__aeabi_i2f_main+0x1c>
10004d86:	0a49      	lsrs	r1, r1, #9
10004d88:	0289      	lsls	r1, r1, #10
10004d8a:	e7f5      	b.n	10004d78 <__aeabi_i2f_main+0x1c>
10004d8c:	4770      	bx	lr
10004d8e:	0000      	.short	0x0000
10004d90:	200020e0 	.word	0x200020e0

10004d94 <__wrap___aeabi_f2uiz>:
10004d94:	4b01      	ldr	r3, [pc, #4]	; (10004d9c <__wrap___aeabi_f2uiz+0x8>)
10004d96:	6a5b      	ldr	r3, [r3, #36]	; 0x24
10004d98:	4718      	bx	r3
10004d9a:	0000      	.short	0x0000
10004d9c:	20001570 	.word	0x20001570

10004da0 <__aeabi_float_init>:
10004da0:	2313      	movs	r3, #19
10004da2:	b510      	push	{r4, lr}
10004da4:	4812      	ldr	r0, [pc, #72]	; (10004df0 <__aeabi_float_init+0x50>)
10004da6:	781c      	ldrb	r4, [r3, #0]
10004da8:	f7ff f91e 	bl	10003fe8 <rom_data_lookup>
10004dac:	0001      	movs	r1, r0
10004dae:	2c01      	cmp	r4, #1
10004db0:	d00a      	beq.n	10004dc8 <__aeabi_float_init+0x28>
10004db2:	dd03      	ble.n	10004dbc <__aeabi_float_init+0x1c>
10004db4:	2280      	movs	r2, #128	; 0x80
10004db6:	480f      	ldr	r0, [pc, #60]	; (10004df4 <__aeabi_float_init+0x54>)
10004db8:	f000 f848 	bl	10004e4c <__wrap___aeabi_memcpy>
10004dbc:	480e      	ldr	r0, [pc, #56]	; (10004df8 <__aeabi_float_init+0x58>)
10004dbe:	f7ff f90b 	bl	10003fd8 <rom_func_lookup>
10004dc2:	4b0e      	ldr	r3, [pc, #56]	; (10004dfc <__aeabi_float_init+0x5c>)
10004dc4:	6018      	str	r0, [r3, #0]
10004dc6:	bd10      	pop	{r4, pc}
10004dc8:	4c0a      	ldr	r4, [pc, #40]	; (10004df4 <__aeabi_float_init+0x54>)
10004dca:	2254      	movs	r2, #84	; 0x54
10004dcc:	0020      	movs	r0, r4
10004dce:	f000 f83d 	bl	10004e4c <__wrap___aeabi_memcpy>
10004dd2:	4b0b      	ldr	r3, [pc, #44]	; (10004e00 <__aeabi_float_init+0x60>)
10004dd4:	6563      	str	r3, [r4, #84]	; 0x54
10004dd6:	65a3      	str	r3, [r4, #88]	; 0x58
10004dd8:	65e3      	str	r3, [r4, #92]	; 0x5c
10004dda:	6623      	str	r3, [r4, #96]	; 0x60
10004ddc:	6663      	str	r3, [r4, #100]	; 0x64
10004dde:	66a3      	str	r3, [r4, #104]	; 0x68
10004de0:	66e3      	str	r3, [r4, #108]	; 0x6c
10004de2:	6723      	str	r3, [r4, #112]	; 0x70
10004de4:	6763      	str	r3, [r4, #116]	; 0x74
10004de6:	67a3      	str	r3, [r4, #120]	; 0x78
10004de8:	67e3      	str	r3, [r4, #124]	; 0x7c
10004dea:	6223      	str	r3, [r4, #32]
10004dec:	61e3      	str	r3, [r4, #28]
10004dee:	e7e5      	b.n	10004dbc <__aeabi_float_init+0x1c>
10004df0:	00004653 	.word	0x00004653
10004df4:	20001570 	.word	0x20001570
10004df8:	0000334c 	.word	0x0000334c
10004dfc:	200020e0 	.word	0x200020e0
10004e00:	10004e05 	.word	0x10004e05

10004e04 <float_table_shim_on_use_helper>:
10004e04:	b507      	push	{r0, r1, r2, lr}
10004e06:	4660      	mov	r0, ip
10004e08:	8801      	ldrh	r1, [r0, #0]
10004e0a:	0a0a      	lsrs	r2, r1, #8
10004e0c:	3002      	adds	r0, #2
10004e0e:	2adf      	cmp	r2, #223	; 0xdf
10004e10:	d1fa      	bne.n	10004e08 <float_table_shim_on_use_helper+0x4>
10004e12:	b2c9      	uxtb	r1, r1
10004e14:	0882      	lsrs	r2, r0, #2
10004e16:	d304      	bcc.n	10004e22 <float_table_shim_on_use_helper+0x1e>
10004e18:	8802      	ldrh	r2, [r0, #0]
10004e1a:	8840      	ldrh	r0, [r0, #2]
10004e1c:	0400      	lsls	r0, r0, #16
10004e1e:	4310      	orrs	r0, r2
10004e20:	e000      	b.n	10004e24 <float_table_shim_on_use_helper+0x20>
10004e22:	6800      	ldr	r0, [r0, #0]
10004e24:	4a01      	ldr	r2, [pc, #4]	; (10004e2c <float_table_shim_on_use_helper+0x28>)
10004e26:	5050      	str	r0, [r2, r1]
10004e28:	9003      	str	r0, [sp, #12]
10004e2a:	bd07      	pop	{r0, r1, r2, pc}
10004e2c:	20001570 	.word	0x20001570

10004e30 <__aeabi_mem_init>:
10004e30:	4801      	ldr	r0, [pc, #4]	; (10004e38 <__aeabi_mem_init+0x8>)
10004e32:	2104      	movs	r1, #4
10004e34:	4b01      	ldr	r3, [pc, #4]	; (10004e3c <__aeabi_mem_init+0xc>)
10004e36:	4718      	bx	r3
10004e38:	20000ec0 	.word	0x20000ec0
10004e3c:	10003ff9 	.word	0x10003ff9

10004e40 <__wrap_memset>:
10004e40:	4b01      	ldr	r3, [pc, #4]	; (10004e48 <__wrap_memset+0x8>)
10004e42:	681b      	ldr	r3, [r3, #0]
10004e44:	4718      	bx	r3
10004e46:	0000      	.short	0x0000
10004e48:	20000ec0 	.word	0x20000ec0

10004e4c <__wrap___aeabi_memcpy>:
10004e4c:	4b01      	ldr	r3, [pc, #4]	; (10004e54 <__wrap___aeabi_memcpy+0x8>)
10004e4e:	685b      	ldr	r3, [r3, #4]
10004e50:	4718      	bx	r3
10004e52:	0000      	.short	0x0000
10004e54:	20000ec0 	.word	0x20000ec0

10004e58 <stdio_out_chars_no_crlf>:
10004e58:	0003      	movs	r3, r0
10004e5a:	b510      	push	{r4, lr}
10004e5c:	0008      	movs	r0, r1
10004e5e:	0011      	movs	r1, r2
10004e60:	681b      	ldr	r3, [r3, #0]
10004e62:	4798      	blx	r3
10004e64:	bd10      	pop	{r4, pc}
10004e66:	46c0      	nop			; (mov r8, r8)

10004e68 <stdio_out_chars_crlf>:
10004e68:	b5f0      	push	{r4, r5, r6, r7, lr}
10004e6a:	4646      	mov	r6, r8
10004e6c:	464f      	mov	r7, r9
10004e6e:	46d6      	mov	lr, sl
10004e70:	b5c0      	push	{r6, r7, lr}
10004e72:	7d43      	ldrb	r3, [r0, #21]
10004e74:	4680      	mov	r8, r0
10004e76:	000e      	movs	r6, r1
10004e78:	0017      	movs	r7, r2
10004e7a:	2b00      	cmp	r3, #0
10004e7c:	d046      	beq.n	10004f0c <stdio_out_chars_crlf+0xa4>
10004e7e:	2a00      	cmp	r2, #0
10004e80:	dd3f      	ble.n	10004f02 <stdio_out_chars_crlf+0x9a>
10004e82:	1e4b      	subs	r3, r1, #1
10004e84:	4699      	mov	r9, r3
10004e86:	4b24      	ldr	r3, [pc, #144]	; (10004f18 <stdio_out_chars_crlf+0xb0>)
10004e88:	2501      	movs	r5, #1
10004e8a:	2400      	movs	r4, #0
10004e8c:	2000      	movs	r0, #0
10004e8e:	469a      	mov	sl, r3
10004e90:	e00d      	b.n	10004eae <stdio_out_chars_crlf+0x46>
10004e92:	464b      	mov	r3, r9
10004e94:	5d1b      	ldrb	r3, [r3, r4]
10004e96:	3b0d      	subs	r3, #13
10004e98:	425a      	negs	r2, r3
10004e9a:	4153      	adcs	r3, r2
10004e9c:	5d32      	ldrb	r2, [r6, r4]
10004e9e:	b2db      	uxtb	r3, r3
10004ea0:	2a0a      	cmp	r2, #10
10004ea2:	d00b      	beq.n	10004ebc <stdio_out_chars_crlf+0x54>
10004ea4:	002b      	movs	r3, r5
10004ea6:	3401      	adds	r4, #1
10004ea8:	3501      	adds	r5, #1
10004eaa:	429f      	cmp	r7, r3
10004eac:	dd1a      	ble.n	10004ee4 <stdio_out_chars_crlf+0x7c>
10004eae:	2c00      	cmp	r4, #0
10004eb0:	d1ef      	bne.n	10004e92 <stdio_out_chars_crlf+0x2a>
10004eb2:	4643      	mov	r3, r8
10004eb4:	5d32      	ldrb	r2, [r6, r4]
10004eb6:	7d1b      	ldrb	r3, [r3, #20]
10004eb8:	2a0a      	cmp	r2, #10
10004eba:	d1f3      	bne.n	10004ea4 <stdio_out_chars_crlf+0x3c>
10004ebc:	2b00      	cmp	r3, #0
10004ebe:	d1f1      	bne.n	10004ea4 <stdio_out_chars_crlf+0x3c>
10004ec0:	42a0      	cmp	r0, r4
10004ec2:	da04      	bge.n	10004ece <stdio_out_chars_crlf+0x66>
10004ec4:	4643      	mov	r3, r8
10004ec6:	1a21      	subs	r1, r4, r0
10004ec8:	681b      	ldr	r3, [r3, #0]
10004eca:	1830      	adds	r0, r6, r0
10004ecc:	4798      	blx	r3
10004ece:	4643      	mov	r3, r8
10004ed0:	4650      	mov	r0, sl
10004ed2:	681b      	ldr	r3, [r3, #0]
10004ed4:	2102      	movs	r1, #2
10004ed6:	4798      	blx	r3
10004ed8:	3401      	adds	r4, #1
10004eda:	0028      	movs	r0, r5
10004edc:	002b      	movs	r3, r5
10004ede:	3501      	adds	r5, #1
10004ee0:	429f      	cmp	r7, r3
10004ee2:	dce4      	bgt.n	10004eae <stdio_out_chars_crlf+0x46>
10004ee4:	4287      	cmp	r7, r0
10004ee6:	dd04      	ble.n	10004ef2 <stdio_out_chars_crlf+0x8a>
10004ee8:	4643      	mov	r3, r8
10004eea:	1a39      	subs	r1, r7, r0
10004eec:	681b      	ldr	r3, [r3, #0]
10004eee:	1830      	adds	r0, r6, r0
10004ef0:	4798      	blx	r3
10004ef2:	19f6      	adds	r6, r6, r7
10004ef4:	3e01      	subs	r6, #1
10004ef6:	7833      	ldrb	r3, [r6, #0]
10004ef8:	3b0d      	subs	r3, #13
10004efa:	425a      	negs	r2, r3
10004efc:	4153      	adcs	r3, r2
10004efe:	4642      	mov	r2, r8
10004f00:	7513      	strb	r3, [r2, #20]
10004f02:	bce0      	pop	{r5, r6, r7}
10004f04:	46ba      	mov	sl, r7
10004f06:	46b1      	mov	r9, r6
10004f08:	46a8      	mov	r8, r5
10004f0a:	bdf0      	pop	{r4, r5, r6, r7, pc}
10004f0c:	6803      	ldr	r3, [r0, #0]
10004f0e:	0011      	movs	r1, r2
10004f10:	0030      	movs	r0, r6
10004f12:	4798      	blx	r3
10004f14:	e7f5      	b.n	10004f02 <stdio_out_chars_crlf+0x9a>
10004f16:	46c0      	nop			; (mov r8, r8)
10004f18:	10008038 	.word	0x10008038

10004f1c <stdio_buffered_printer>:
10004f1c:	b5f0      	push	{r4, r5, r6, r7, lr}
10004f1e:	46c6      	mov	lr, r8
10004f20:	000c      	movs	r4, r1
10004f22:	6809      	ldr	r1, [r1, #0]
10004f24:	0006      	movs	r6, r0
10004f26:	b500      	push	{lr}
10004f28:	2980      	cmp	r1, #128	; 0x80
10004f2a:	d006      	beq.n	10004f3a <stdio_buffered_printer+0x1e>
10004f2c:	1c4b      	adds	r3, r1, #1
10004f2e:	6023      	str	r3, [r4, #0]
10004f30:	1864      	adds	r4, r4, r1
10004f32:	7126      	strb	r6, [r4, #4]
10004f34:	bc80      	pop	{r7}
10004f36:	46b8      	mov	r8, r7
10004f38:	bdf0      	pop	{r4, r5, r6, r7, pc}
10004f3a:	4b0f      	ldr	r3, [pc, #60]	; (10004f78 <stdio_buffered_printer+0x5c>)
10004f3c:	681d      	ldr	r5, [r3, #0]
10004f3e:	2d00      	cmp	r5, #0
10004f40:	d016      	beq.n	10004f70 <stdio_buffered_printer+0x54>
10004f42:	1d23      	adds	r3, r4, #4
10004f44:	4698      	mov	r8, r3
10004f46:	4f0d      	ldr	r7, [pc, #52]	; (10004f7c <stdio_buffered_printer+0x60>)
10004f48:	e002      	b.n	10004f50 <stdio_buffered_printer+0x34>
10004f4a:	692d      	ldr	r5, [r5, #16]
10004f4c:	2d00      	cmp	r5, #0
10004f4e:	d00f      	beq.n	10004f70 <stdio_buffered_printer+0x54>
10004f50:	682b      	ldr	r3, [r5, #0]
10004f52:	2b00      	cmp	r3, #0
10004f54:	d0f9      	beq.n	10004f4a <stdio_buffered_printer+0x2e>
10004f56:	683b      	ldr	r3, [r7, #0]
10004f58:	2b00      	cmp	r3, #0
10004f5a:	d001      	beq.n	10004f60 <stdio_buffered_printer+0x44>
10004f5c:	42ab      	cmp	r3, r5
10004f5e:	d1f4      	bne.n	10004f4a <stdio_buffered_printer+0x2e>
10004f60:	0028      	movs	r0, r5
10004f62:	4641      	mov	r1, r8
10004f64:	6822      	ldr	r2, [r4, #0]
10004f66:	f7ff ff7f 	bl	10004e68 <stdio_out_chars_crlf>
10004f6a:	692d      	ldr	r5, [r5, #16]
10004f6c:	2d00      	cmp	r5, #0
10004f6e:	d1ef      	bne.n	10004f50 <stdio_buffered_printer+0x34>
10004f70:	2301      	movs	r3, #1
10004f72:	2100      	movs	r1, #0
10004f74:	e7db      	b.n	10004f2e <stdio_buffered_printer+0x12>
10004f76:	46c0      	nop			; (mov r8, r8)
10004f78:	20001c84 	.word	0x20001c84
10004f7c:	20001c8c 	.word	0x20001c8c

10004f80 <stdio_put_string.isra.0>:
10004f80:	b5f0      	push	{r4, r5, r6, r7, lr}
10004f82:	46de      	mov	lr, fp
10004f84:	4657      	mov	r7, sl
10004f86:	464e      	mov	r6, r9
10004f88:	4645      	mov	r5, r8
10004f8a:	b5e0      	push	{r5, r6, r7, lr}
10004f8c:	b085      	sub	sp, #20
10004f8e:	0017      	movs	r7, r2
10004f90:	001c      	movs	r4, r3
10004f92:	0006      	movs	r6, r0
10004f94:	000d      	movs	r5, r1
10004f96:	f7fc ff23 	bl	10001de0 <time_us_64>
10004f9a:	2300      	movs	r3, #0
10004f9c:	4a30      	ldr	r2, [pc, #192]	; (10005060 <stdio_put_string.isra.0+0xe0>)
10004f9e:	1812      	adds	r2, r2, r0
10004fa0:	414b      	adcs	r3, r1
10004fa2:	2b00      	cmp	r3, #0
10004fa4:	db58      	blt.n	10005058 <stdio_put_string.isra.0+0xd8>
10004fa6:	492f      	ldr	r1, [pc, #188]	; (10005064 <stdio_put_string.isra.0+0xe4>)
10004fa8:	0008      	movs	r0, r1
10004faa:	468a      	mov	sl, r1
10004fac:	f002 fd74 	bl	10007a98 <__mutex_try_enter_block_until_veneer>
10004fb0:	9001      	str	r0, [sp, #4]
10004fb2:	1c6b      	adds	r3, r5, #1
10004fb4:	d103      	bne.n	10004fbe <stdio_put_string.isra.0+0x3e>
10004fb6:	0030      	movs	r0, r6
10004fb8:	f002 fcf6 	bl	100079a8 <strlen>
10004fbc:	0005      	movs	r5, r0
10004fbe:	2c00      	cmp	r4, #0
10004fc0:	d125      	bne.n	1000500e <stdio_put_string.isra.0+0x8e>
10004fc2:	4b29      	ldr	r3, [pc, #164]	; (10005068 <stdio_put_string.isra.0+0xe8>)
10004fc4:	4698      	mov	r8, r3
10004fc6:	4b29      	ldr	r3, [pc, #164]	; (1000506c <stdio_put_string.isra.0+0xec>)
10004fc8:	681c      	ldr	r4, [r3, #0]
10004fca:	2c00      	cmp	r4, #0
10004fcc:	d015      	beq.n	10004ffa <stdio_put_string.isra.0+0x7a>
10004fce:	2f00      	cmp	r7, #0
10004fd0:	d120      	bne.n	10005014 <stdio_put_string.isra.0+0x94>
10004fd2:	4f27      	ldr	r7, [pc, #156]	; (10005070 <stdio_put_string.isra.0+0xf0>)
10004fd4:	e002      	b.n	10004fdc <stdio_put_string.isra.0+0x5c>
10004fd6:	6924      	ldr	r4, [r4, #16]
10004fd8:	2c00      	cmp	r4, #0
10004fda:	d00e      	beq.n	10004ffa <stdio_put_string.isra.0+0x7a>
10004fdc:	6823      	ldr	r3, [r4, #0]
10004fde:	2b00      	cmp	r3, #0
10004fe0:	d0f9      	beq.n	10004fd6 <stdio_put_string.isra.0+0x56>
10004fe2:	683b      	ldr	r3, [r7, #0]
10004fe4:	2b00      	cmp	r3, #0
10004fe6:	d001      	beq.n	10004fec <stdio_put_string.isra.0+0x6c>
10004fe8:	42a3      	cmp	r3, r4
10004fea:	d1f4      	bne.n	10004fd6 <stdio_put_string.isra.0+0x56>
10004fec:	0020      	movs	r0, r4
10004fee:	002a      	movs	r2, r5
10004ff0:	0031      	movs	r1, r6
10004ff2:	47c0      	blx	r8
10004ff4:	6924      	ldr	r4, [r4, #16]
10004ff6:	2c00      	cmp	r4, #0
10004ff8:	d1f0      	bne.n	10004fdc <stdio_put_string.isra.0+0x5c>
10004ffa:	9b01      	ldr	r3, [sp, #4]
10004ffc:	2b00      	cmp	r3, #0
10004ffe:	d127      	bne.n	10005050 <stdio_put_string.isra.0+0xd0>
10005000:	b005      	add	sp, #20
10005002:	bcf0      	pop	{r4, r5, r6, r7}
10005004:	46bb      	mov	fp, r7
10005006:	46b2      	mov	sl, r6
10005008:	46a9      	mov	r9, r5
1000500a:	46a0      	mov	r8, r4
1000500c:	bdf0      	pop	{r4, r5, r6, r7, pc}
1000500e:	4b19      	ldr	r3, [pc, #100]	; (10005074 <stdio_put_string.isra.0+0xf4>)
10005010:	4698      	mov	r8, r3
10005012:	e7d8      	b.n	10004fc6 <stdio_put_string.isra.0+0x46>
10005014:	4b16      	ldr	r3, [pc, #88]	; (10005070 <stdio_put_string.isra.0+0xf0>)
10005016:	4699      	mov	r9, r3
10005018:	ab02      	add	r3, sp, #8
1000501a:	1ddf      	adds	r7, r3, #7
1000501c:	230a      	movs	r3, #10
1000501e:	469b      	mov	fp, r3
10005020:	e002      	b.n	10005028 <stdio_put_string.isra.0+0xa8>
10005022:	6924      	ldr	r4, [r4, #16]
10005024:	2c00      	cmp	r4, #0
10005026:	d0e8      	beq.n	10004ffa <stdio_put_string.isra.0+0x7a>
10005028:	6823      	ldr	r3, [r4, #0]
1000502a:	2b00      	cmp	r3, #0
1000502c:	d0f9      	beq.n	10005022 <stdio_put_string.isra.0+0xa2>
1000502e:	464b      	mov	r3, r9
10005030:	681b      	ldr	r3, [r3, #0]
10005032:	2b00      	cmp	r3, #0
10005034:	d001      	beq.n	1000503a <stdio_put_string.isra.0+0xba>
10005036:	42a3      	cmp	r3, r4
10005038:	d1f3      	bne.n	10005022 <stdio_put_string.isra.0+0xa2>
1000503a:	002a      	movs	r2, r5
1000503c:	0031      	movs	r1, r6
1000503e:	0020      	movs	r0, r4
10005040:	47c0      	blx	r8
10005042:	465b      	mov	r3, fp
10005044:	2201      	movs	r2, #1
10005046:	0039      	movs	r1, r7
10005048:	0020      	movs	r0, r4
1000504a:	703b      	strb	r3, [r7, #0]
1000504c:	47c0      	blx	r8
1000504e:	e7e8      	b.n	10005022 <stdio_put_string.isra.0+0xa2>
10005050:	4650      	mov	r0, sl
10005052:	f002 fce1 	bl	10007a18 <__mutex_exit_veneer>
10005056:	e7d3      	b.n	10005000 <stdio_put_string.isra.0+0x80>
10005058:	2201      	movs	r2, #1
1000505a:	4b07      	ldr	r3, [pc, #28]	; (10005078 <stdio_put_string.isra.0+0xf8>)
1000505c:	4252      	negs	r2, r2
1000505e:	e7a2      	b.n	10004fa6 <stdio_put_string.isra.0+0x26>
10005060:	000f4240 	.word	0x000f4240
10005064:	20001348 	.word	0x20001348
10005068:	10004e69 	.word	0x10004e69
1000506c:	20001c84 	.word	0x20001c84
10005070:	20001c8c 	.word	0x20001c8c
10005074:	10004e59 	.word	0x10004e59
10005078:	7fffffff 	.word	0x7fffffff

1000507c <__wrap_putchar>:
1000507c:	b5f0      	push	{r4, r5, r6, r7, lr}
1000507e:	46ce      	mov	lr, r9
10005080:	4647      	mov	r7, r8
10005082:	b580      	push	{r7, lr}
10005084:	b083      	sub	sp, #12
10005086:	466b      	mov	r3, sp
10005088:	0006      	movs	r6, r0
1000508a:	1ddd      	adds	r5, r3, #7
1000508c:	7028      	strb	r0, [r5, #0]
1000508e:	f7fc fea7 	bl	10001de0 <time_us_64>
10005092:	2300      	movs	r3, #0
10005094:	4a1a      	ldr	r2, [pc, #104]	; (10005100 <__wrap_putchar+0x84>)
10005096:	1812      	adds	r2, r2, r0
10005098:	414b      	adcs	r3, r1
1000509a:	2b00      	cmp	r3, #0
1000509c:	db2b      	blt.n	100050f6 <__wrap_putchar+0x7a>
1000509e:	4919      	ldr	r1, [pc, #100]	; (10005104 <__wrap_putchar+0x88>)
100050a0:	0008      	movs	r0, r1
100050a2:	4688      	mov	r8, r1
100050a4:	f002 fcf8 	bl	10007a98 <__mutex_try_enter_block_until_veneer>
100050a8:	4b17      	ldr	r3, [pc, #92]	; (10005108 <__wrap_putchar+0x8c>)
100050aa:	4681      	mov	r9, r0
100050ac:	681c      	ldr	r4, [r3, #0]
100050ae:	2c00      	cmp	r4, #0
100050b0:	d014      	beq.n	100050dc <__wrap_putchar+0x60>
100050b2:	4f16      	ldr	r7, [pc, #88]	; (1000510c <__wrap_putchar+0x90>)
100050b4:	e002      	b.n	100050bc <__wrap_putchar+0x40>
100050b6:	6924      	ldr	r4, [r4, #16]
100050b8:	2c00      	cmp	r4, #0
100050ba:	d00f      	beq.n	100050dc <__wrap_putchar+0x60>
100050bc:	6823      	ldr	r3, [r4, #0]
100050be:	2b00      	cmp	r3, #0
100050c0:	d0f9      	beq.n	100050b6 <__wrap_putchar+0x3a>
100050c2:	683b      	ldr	r3, [r7, #0]
100050c4:	2b00      	cmp	r3, #0
100050c6:	d001      	beq.n	100050cc <__wrap_putchar+0x50>
100050c8:	42a3      	cmp	r3, r4
100050ca:	d1f4      	bne.n	100050b6 <__wrap_putchar+0x3a>
100050cc:	0020      	movs	r0, r4
100050ce:	2201      	movs	r2, #1
100050d0:	0029      	movs	r1, r5
100050d2:	f7ff fec9 	bl	10004e68 <stdio_out_chars_crlf>
100050d6:	6924      	ldr	r4, [r4, #16]
100050d8:	2c00      	cmp	r4, #0
100050da:	d1ef      	bne.n	100050bc <__wrap_putchar+0x40>
100050dc:	464b      	mov	r3, r9
100050de:	2b00      	cmp	r3, #0
100050e0:	d105      	bne.n	100050ee <__wrap_putchar+0x72>
100050e2:	0030      	movs	r0, r6
100050e4:	b003      	add	sp, #12
100050e6:	bcc0      	pop	{r6, r7}
100050e8:	46b9      	mov	r9, r7
100050ea:	46b0      	mov	r8, r6
100050ec:	bdf0      	pop	{r4, r5, r6, r7, pc}
100050ee:	4640      	mov	r0, r8
100050f0:	f002 fc92 	bl	10007a18 <__mutex_exit_veneer>
100050f4:	e7f5      	b.n	100050e2 <__wrap_putchar+0x66>
100050f6:	2201      	movs	r2, #1
100050f8:	4b05      	ldr	r3, [pc, #20]	; (10005110 <__wrap_putchar+0x94>)
100050fa:	4252      	negs	r2, r2
100050fc:	e7cf      	b.n	1000509e <__wrap_putchar+0x22>
100050fe:	46c0      	nop			; (mov r8, r8)
10005100:	000f4240 	.word	0x000f4240
10005104:	20001348 	.word	0x20001348
10005108:	20001c84 	.word	0x20001c84
1000510c:	20001c8c 	.word	0x20001c8c
10005110:	7fffffff 	.word	0x7fffffff

10005114 <__wrap_puts>:
10005114:	b570      	push	{r4, r5, r6, lr}
10005116:	0004      	movs	r4, r0
10005118:	f002 fc46 	bl	100079a8 <strlen>
1000511c:	2300      	movs	r3, #0
1000511e:	0001      	movs	r1, r0
10005120:	0005      	movs	r5, r0
10005122:	2201      	movs	r2, #1
10005124:	0020      	movs	r0, r4
10005126:	f7ff ff2b 	bl	10004f80 <stdio_put_string.isra.0>
1000512a:	4b08      	ldr	r3, [pc, #32]	; (1000514c <__wrap_puts+0x38>)
1000512c:	681c      	ldr	r4, [r3, #0]
1000512e:	2c00      	cmp	r4, #0
10005130:	d006      	beq.n	10005140 <__wrap_puts+0x2c>
10005132:	6863      	ldr	r3, [r4, #4]
10005134:	2b00      	cmp	r3, #0
10005136:	d005      	beq.n	10005144 <__wrap_puts+0x30>
10005138:	4798      	blx	r3
1000513a:	6924      	ldr	r4, [r4, #16]
1000513c:	2c00      	cmp	r4, #0
1000513e:	d1f8      	bne.n	10005132 <__wrap_puts+0x1e>
10005140:	0028      	movs	r0, r5
10005142:	bd70      	pop	{r4, r5, r6, pc}
10005144:	6924      	ldr	r4, [r4, #16]
10005146:	2c00      	cmp	r4, #0
10005148:	d1f3      	bne.n	10005132 <__wrap_puts+0x1e>
1000514a:	e7f9      	b.n	10005140 <__wrap_puts+0x2c>
1000514c:	20001c84 	.word	0x20001c84

10005150 <stdio_set_driver_enabled>:
10005150:	4a0a      	ldr	r2, [pc, #40]	; (1000517c <stdio_set_driver_enabled+0x2c>)
10005152:	6813      	ldr	r3, [r2, #0]
10005154:	2b00      	cmp	r3, #0
10005156:	d105      	bne.n	10005164 <stdio_set_driver_enabled+0x14>
10005158:	e00c      	b.n	10005174 <stdio_set_driver_enabled+0x24>
1000515a:	001a      	movs	r2, r3
1000515c:	691b      	ldr	r3, [r3, #16]
1000515e:	3210      	adds	r2, #16
10005160:	2b00      	cmp	r3, #0
10005162:	d007      	beq.n	10005174 <stdio_set_driver_enabled+0x24>
10005164:	4298      	cmp	r0, r3
10005166:	d1f8      	bne.n	1000515a <stdio_set_driver_enabled+0xa>
10005168:	2900      	cmp	r1, #0
1000516a:	d102      	bne.n	10005172 <stdio_set_driver_enabled+0x22>
1000516c:	6903      	ldr	r3, [r0, #16]
1000516e:	6013      	str	r3, [r2, #0]
10005170:	6101      	str	r1, [r0, #16]
10005172:	4770      	bx	lr
10005174:	2900      	cmp	r1, #0
10005176:	d0fc      	beq.n	10005172 <stdio_set_driver_enabled+0x22>
10005178:	6010      	str	r0, [r2, #0]
1000517a:	e7fa      	b.n	10005172 <stdio_set_driver_enabled+0x22>
1000517c:	20001c84 	.word	0x20001c84

10005180 <__wrap_vprintf>:
10005180:	b5f0      	push	{r4, r5, r6, r7, lr}
10005182:	46ce      	mov	lr, r9
10005184:	4647      	mov	r7, r8
10005186:	b580      	push	{r7, lr}
10005188:	b0a5      	sub	sp, #148	; 0x94
1000518a:	0004      	movs	r4, r0
1000518c:	000d      	movs	r5, r1
1000518e:	f7fc fe27 	bl	10001de0 <time_us_64>
10005192:	2300      	movs	r3, #0
10005194:	4a2a      	ldr	r2, [pc, #168]	; (10005240 <__wrap_vprintf+0xc0>)
10005196:	1812      	adds	r2, r2, r0
10005198:	414b      	adcs	r3, r1
1000519a:	2b00      	cmp	r3, #0
1000519c:	db49      	blt.n	10005232 <__wrap_vprintf+0xb2>
1000519e:	4e29      	ldr	r6, [pc, #164]	; (10005244 <__wrap_vprintf+0xc4>)
100051a0:	0030      	movs	r0, r6
100051a2:	f002 fc79 	bl	10007a98 <__mutex_try_enter_block_until_veneer>
100051a6:	2300      	movs	r3, #0
100051a8:	0007      	movs	r7, r0
100051aa:	9303      	str	r3, [sp, #12]
100051ac:	0022      	movs	r2, r4
100051ae:	002b      	movs	r3, r5
100051b0:	4825      	ldr	r0, [pc, #148]	; (10005248 <__wrap_vprintf+0xc8>)
100051b2:	a903      	add	r1, sp, #12
100051b4:	f7fe fee0 	bl	10003f78 <vfctprintf>
100051b8:	9b03      	ldr	r3, [sp, #12]
100051ba:	4680      	mov	r8, r0
100051bc:	2b00      	cmp	r3, #0
100051be:	d114      	bne.n	100051ea <__wrap_vprintf+0x6a>
100051c0:	4b22      	ldr	r3, [pc, #136]	; (1000524c <__wrap_vprintf+0xcc>)
100051c2:	681c      	ldr	r4, [r3, #0]
100051c4:	2c00      	cmp	r4, #0
100051c6:	d006      	beq.n	100051d6 <__wrap_vprintf+0x56>
100051c8:	6863      	ldr	r3, [r4, #4]
100051ca:	2b00      	cmp	r3, #0
100051cc:	d00b      	beq.n	100051e6 <__wrap_vprintf+0x66>
100051ce:	4798      	blx	r3
100051d0:	6924      	ldr	r4, [r4, #16]
100051d2:	2c00      	cmp	r4, #0
100051d4:	d1f8      	bne.n	100051c8 <__wrap_vprintf+0x48>
100051d6:	2f00      	cmp	r7, #0
100051d8:	d127      	bne.n	1000522a <__wrap_vprintf+0xaa>
100051da:	4640      	mov	r0, r8
100051dc:	b025      	add	sp, #148	; 0x94
100051de:	bcc0      	pop	{r6, r7}
100051e0:	46b9      	mov	r9, r7
100051e2:	46b0      	mov	r8, r6
100051e4:	bdf0      	pop	{r4, r5, r6, r7, pc}
100051e6:	6924      	ldr	r4, [r4, #16]
100051e8:	e7ec      	b.n	100051c4 <__wrap_vprintf+0x44>
100051ea:	4b18      	ldr	r3, [pc, #96]	; (1000524c <__wrap_vprintf+0xcc>)
100051ec:	681d      	ldr	r5, [r3, #0]
100051ee:	4699      	mov	r9, r3
100051f0:	2d00      	cmp	r5, #0
100051f2:	d022      	beq.n	1000523a <__wrap_vprintf+0xba>
100051f4:	4c16      	ldr	r4, [pc, #88]	; (10005250 <__wrap_vprintf+0xd0>)
100051f6:	e002      	b.n	100051fe <__wrap_vprintf+0x7e>
100051f8:	692d      	ldr	r5, [r5, #16]
100051fa:	2d00      	cmp	r5, #0
100051fc:	d011      	beq.n	10005222 <__wrap_vprintf+0xa2>
100051fe:	682b      	ldr	r3, [r5, #0]
10005200:	2b00      	cmp	r3, #0
10005202:	d0f9      	beq.n	100051f8 <__wrap_vprintf+0x78>
10005204:	6823      	ldr	r3, [r4, #0]
10005206:	2b00      	cmp	r3, #0
10005208:	d001      	beq.n	1000520e <__wrap_vprintf+0x8e>
1000520a:	429d      	cmp	r5, r3
1000520c:	d1f4      	bne.n	100051f8 <__wrap_vprintf+0x78>
1000520e:	9b03      	ldr	r3, [sp, #12]
10005210:	0028      	movs	r0, r5
10005212:	001a      	movs	r2, r3
10005214:	a904      	add	r1, sp, #16
10005216:	9301      	str	r3, [sp, #4]
10005218:	f7ff fe26 	bl	10004e68 <stdio_out_chars_crlf>
1000521c:	692d      	ldr	r5, [r5, #16]
1000521e:	2d00      	cmp	r5, #0
10005220:	d1ed      	bne.n	100051fe <__wrap_vprintf+0x7e>
10005222:	464b      	mov	r3, r9
10005224:	9503      	str	r5, [sp, #12]
10005226:	681c      	ldr	r4, [r3, #0]
10005228:	e7cc      	b.n	100051c4 <__wrap_vprintf+0x44>
1000522a:	0030      	movs	r0, r6
1000522c:	f002 fbf4 	bl	10007a18 <__mutex_exit_veneer>
10005230:	e7d3      	b.n	100051da <__wrap_vprintf+0x5a>
10005232:	2201      	movs	r2, #1
10005234:	4b07      	ldr	r3, [pc, #28]	; (10005254 <__wrap_vprintf+0xd4>)
10005236:	4252      	negs	r2, r2
10005238:	e7b1      	b.n	1000519e <__wrap_vprintf+0x1e>
1000523a:	9503      	str	r5, [sp, #12]
1000523c:	e7cb      	b.n	100051d6 <__wrap_vprintf+0x56>
1000523e:	46c0      	nop			; (mov r8, r8)
10005240:	000f4240 	.word	0x000f4240
10005244:	20001348 	.word	0x20001348
10005248:	10004f1d 	.word	0x10004f1d
1000524c:	20001c84 	.word	0x20001c84
10005250:	20001c8c 	.word	0x20001c8c
10005254:	7fffffff 	.word	0x7fffffff

10005258 <__wrap_printf>:
10005258:	b40f      	push	{r0, r1, r2, r3}
1000525a:	b500      	push	{lr}
1000525c:	b083      	sub	sp, #12
1000525e:	a904      	add	r1, sp, #16
10005260:	c901      	ldmia	r1!, {r0}
10005262:	9101      	str	r1, [sp, #4]
10005264:	f7ff ff8c 	bl	10005180 <__wrap_vprintf>
10005268:	b003      	add	sp, #12
1000526a:	bc08      	pop	{r3}
1000526c:	b004      	add	sp, #16
1000526e:	4718      	bx	r3

10005270 <stdio_init_all>:
10005270:	b510      	push	{r4, lr}
10005272:	f000 f9d9 	bl	10005628 <stdio_usb_init>
10005276:	bd10      	pop	{r4, pc}

10005278 <resetd_init>:
10005278:	4770      	bx	lr
1000527a:	46c0      	nop			; (mov r8, r8)

1000527c <resetd_reset>:
1000527c:	2200      	movs	r2, #0
1000527e:	4b01      	ldr	r3, [pc, #4]	; (10005284 <resetd_reset+0x8>)
10005280:	701a      	strb	r2, [r3, #0]
10005282:	4770      	bx	lr
10005284:	20002116 	.word	0x20002116

10005288 <resetd_open>:
10005288:	794b      	ldrb	r3, [r1, #5]
1000528a:	2000      	movs	r0, #0
1000528c:	2bff      	cmp	r3, #255	; 0xff
1000528e:	d10b      	bne.n	100052a8 <resetd_open+0x20>
10005290:	798b      	ldrb	r3, [r1, #6]
10005292:	2b00      	cmp	r3, #0
10005294:	d108      	bne.n	100052a8 <resetd_open+0x20>
10005296:	79cb      	ldrb	r3, [r1, #7]
10005298:	2b01      	cmp	r3, #1
1000529a:	d105      	bne.n	100052a8 <resetd_open+0x20>
1000529c:	2a08      	cmp	r2, #8
1000529e:	d903      	bls.n	100052a8 <resetd_open+0x20>
100052a0:	788a      	ldrb	r2, [r1, #2]
100052a2:	4b02      	ldr	r3, [pc, #8]	; (100052ac <resetd_open+0x24>)
100052a4:	3009      	adds	r0, #9
100052a6:	701a      	strb	r2, [r3, #0]
100052a8:	4770      	bx	lr
100052aa:	46c0      	nop			; (mov r8, r8)
100052ac:	20002116 	.word	0x20002116

100052b0 <resetd_xfer_cb>:
100052b0:	2001      	movs	r0, #1
100052b2:	4770      	bx	lr

100052b4 <resetd_control_xfer_cb>:
100052b4:	b570      	push	{r4, r5, r6, lr}
100052b6:	2901      	cmp	r1, #1
100052b8:	d109      	bne.n	100052ce <resetd_control_xfer_cb+0x1a>
100052ba:	4915      	ldr	r1, [pc, #84]	; (10005310 <resetd_control_xfer_cb+0x5c>)
100052bc:	7953      	ldrb	r3, [r2, #5]
100052be:	7910      	ldrb	r0, [r2, #4]
100052c0:	7809      	ldrb	r1, [r1, #0]
100052c2:	021b      	lsls	r3, r3, #8
100052c4:	4303      	orrs	r3, r0
100052c6:	2000      	movs	r0, #0
100052c8:	4299      	cmp	r1, r3
100052ca:	d002      	beq.n	100052d2 <resetd_control_xfer_cb+0x1e>
100052cc:	bd70      	pop	{r4, r5, r6, pc}
100052ce:	2001      	movs	r0, #1
100052d0:	e7fc      	b.n	100052cc <resetd_control_xfer_cb+0x18>
100052d2:	7853      	ldrb	r3, [r2, #1]
100052d4:	2b01      	cmp	r3, #1
100052d6:	d008      	beq.n	100052ea <resetd_control_xfer_cb+0x36>
100052d8:	2b02      	cmp	r3, #2
100052da:	d1f7      	bne.n	100052cc <resetd_control_xfer_cb+0x18>
100052dc:	2000      	movs	r0, #0
100052de:	2264      	movs	r2, #100	; 0x64
100052e0:	2100      	movs	r1, #0
100052e2:	f7fd fa93 	bl	1000280c <watchdog_reboot>
100052e6:	2001      	movs	r0, #1
100052e8:	e7f0      	b.n	100052cc <resetd_control_xfer_cb+0x18>
100052ea:	7894      	ldrb	r4, [r2, #2]
100052ec:	78d2      	ldrb	r2, [r2, #3]
100052ee:	0005      	movs	r5, r0
100052f0:	0212      	lsls	r2, r2, #8
100052f2:	4314      	orrs	r4, r2
100052f4:	05d2      	lsls	r2, r2, #23
100052f6:	d502      	bpl.n	100052fe <resetd_control_xfer_cb+0x4a>
100052f8:	0a62      	lsrs	r2, r4, #9
100052fa:	4093      	lsls	r3, r2
100052fc:	001d      	movs	r5, r3
100052fe:	4805      	ldr	r0, [pc, #20]	; (10005314 <resetd_control_xfer_cb+0x60>)
10005300:	f7fe fe6a 	bl	10003fd8 <rom_func_lookup>
10005304:	217f      	movs	r1, #127	; 0x7f
10005306:	0003      	movs	r3, r0
10005308:	4021      	ands	r1, r4
1000530a:	0028      	movs	r0, r5
1000530c:	4798      	blx	r3
1000530e:	46c0      	nop			; (mov r8, r8)
10005310:	20002116 	.word	0x20002116
10005314:	00004255 	.word	0x00004255

10005318 <usbd_app_driver_get_cb>:
10005318:	2301      	movs	r3, #1
1000531a:	7003      	strb	r3, [r0, #0]
1000531c:	4800      	ldr	r0, [pc, #0]	; (10005320 <usbd_app_driver_get_cb+0x8>)
1000531e:	4770      	bx	lr
10005320:	1000803c 	.word	0x1000803c

10005324 <tud_cdc_line_coding_cb>:
10005324:	7848      	ldrb	r0, [r1, #1]
10005326:	780b      	ldrb	r3, [r1, #0]
10005328:	788a      	ldrb	r2, [r1, #2]
1000532a:	0200      	lsls	r0, r0, #8
1000532c:	4318      	orrs	r0, r3
1000532e:	0412      	lsls	r2, r2, #16
10005330:	4310      	orrs	r0, r2
10005332:	2296      	movs	r2, #150	; 0x96
10005334:	78cb      	ldrb	r3, [r1, #3]
10005336:	b510      	push	{r4, lr}
10005338:	061b      	lsls	r3, r3, #24
1000533a:	4303      	orrs	r3, r0
1000533c:	00d2      	lsls	r2, r2, #3
1000533e:	4293      	cmp	r3, r2
10005340:	d000      	beq.n	10005344 <tud_cdc_line_coding_cb+0x20>
10005342:	bd10      	pop	{r4, pc}
10005344:	4803      	ldr	r0, [pc, #12]	; (10005354 <tud_cdc_line_coding_cb+0x30>)
10005346:	f7fe fe47 	bl	10003fd8 <rom_func_lookup>
1000534a:	2100      	movs	r1, #0
1000534c:	0003      	movs	r3, r0
1000534e:	0008      	movs	r0, r1
10005350:	4798      	blx	r3
10005352:	46c0      	nop			; (mov r8, r8)
10005354:	00004255 	.word	0x00004255

10005358 <stdio_usb_set_chars_available_callback>:
10005358:	4b02      	ldr	r3, [pc, #8]	; (10005364 <stdio_usb_set_chars_available_callback+0xc>)
1000535a:	6018      	str	r0, [r3, #0]
1000535c:	4b02      	ldr	r3, [pc, #8]	; (10005368 <stdio_usb_set_chars_available_callback+0x10>)
1000535e:	6019      	str	r1, [r3, #0]
10005360:	4770      	bx	lr
10005362:	46c0      	nop			; (mov r8, r8)
10005364:	20001be8 	.word	0x20001be8
10005368:	20001bec 	.word	0x20001bec

1000536c <usb_irq>:
1000536c:	b510      	push	{r4, lr}
1000536e:	4b02      	ldr	r3, [pc, #8]	; (10005378 <usb_irq+0xc>)
10005370:	7818      	ldrb	r0, [r3, #0]
10005372:	f7fb fe77 	bl	10001064 <irq_set_pending>
10005376:	bd10      	pop	{r4, pc}
10005378:	20002117 	.word	0x20002117

1000537c <timer_task>:
1000537c:	4b11      	ldr	r3, [pc, #68]	; (100053c4 <timer_task+0x48>)
1000537e:	b570      	push	{r4, r5, r6, lr}
10005380:	681a      	ldr	r2, [r3, #0]
10005382:	2a00      	cmp	r2, #0
10005384:	d01a      	beq.n	100053bc <timer_task+0x40>
10005386:	f3ef 8110 	mrs	r1, PRIMASK
1000538a:	b672      	cpsid	i
1000538c:	6810      	ldr	r0, [r2, #0]
1000538e:	2800      	cmp	r0, #0
10005390:	d0fc      	beq.n	1000538c <timer_task+0x10>
10005392:	f3bf 8f5f 	dmb	sy
10005396:	2200      	movs	r2, #0
10005398:	480b      	ldr	r0, [pc, #44]	; (100053c8 <timer_task+0x4c>)
1000539a:	6059      	str	r1, [r3, #4]
1000539c:	7002      	strb	r2, [r0, #0]
1000539e:	681b      	ldr	r3, [r3, #0]
100053a0:	f3bf 8f5f 	dmb	sy
100053a4:	601a      	str	r2, [r3, #0]
100053a6:	f381 8810 	msr	PRIMASK, r1
100053aa:	2400      	movs	r4, #0
100053ac:	2500      	movs	r5, #0
100053ae:	4b07      	ldr	r3, [pc, #28]	; (100053cc <timer_task+0x50>)
100053b0:	7818      	ldrb	r0, [r3, #0]
100053b2:	f7fb fe57 	bl	10001064 <irq_set_pending>
100053b6:	0029      	movs	r1, r5
100053b8:	0020      	movs	r0, r4
100053ba:	bd70      	pop	{r4, r5, r6, pc}
100053bc:	24fa      	movs	r4, #250	; 0xfa
100053be:	2500      	movs	r5, #0
100053c0:	00a4      	lsls	r4, r4, #2
100053c2:	e7f4      	b.n	100053ae <timer_task+0x32>
100053c4:	200020c0 	.word	0x200020c0
100053c8:	20002118 	.word	0x20002118
100053cc:	20002117 	.word	0x20002117

100053d0 <stdio_usb_in_chars>:
100053d0:	b570      	push	{r4, r5, r6, lr}
100053d2:	0004      	movs	r4, r0
100053d4:	2000      	movs	r0, #0
100053d6:	000e      	movs	r6, r1
100053d8:	f001 fb02 	bl	100069e0 <tud_cdc_n_connected>
100053dc:	2800      	cmp	r0, #0
100053de:	d035      	beq.n	1000544c <stdio_usb_in_chars+0x7c>
100053e0:	2000      	movs	r0, #0
100053e2:	f001 fb15 	bl	10006a10 <tud_cdc_n_available>
100053e6:	2800      	cmp	r0, #0
100053e8:	d030      	beq.n	1000544c <stdio_usb_in_chars+0x7c>
100053ea:	f7fc fcf9 	bl	10001de0 <time_us_64>
100053ee:	2300      	movs	r3, #0
100053f0:	4a18      	ldr	r2, [pc, #96]	; (10005454 <stdio_usb_in_chars+0x84>)
100053f2:	1812      	adds	r2, r2, r0
100053f4:	414b      	adcs	r3, r1
100053f6:	2b00      	cmp	r3, #0
100053f8:	db24      	blt.n	10005444 <stdio_usb_in_chars+0x74>
100053fa:	4d17      	ldr	r5, [pc, #92]	; (10005458 <stdio_usb_in_chars+0x88>)
100053fc:	0028      	movs	r0, r5
100053fe:	f002 fb4b 	bl	10007a98 <__mutex_try_enter_block_until_veneer>
10005402:	2800      	cmp	r0, #0
10005404:	d022      	beq.n	1000544c <stdio_usb_in_chars+0x7c>
10005406:	2000      	movs	r0, #0
10005408:	f001 faea 	bl	100069e0 <tud_cdc_n_connected>
1000540c:	2800      	cmp	r0, #0
1000540e:	d10b      	bne.n	10005428 <stdio_usb_in_chars+0x58>
10005410:	2001      	movs	r0, #1
10005412:	2100      	movs	r1, #0
10005414:	2403      	movs	r4, #3
10005416:	4240      	negs	r0, r0
10005418:	f000 fccc 	bl	10005db4 <tud_task_ext>
1000541c:	4264      	negs	r4, r4
1000541e:	0028      	movs	r0, r5
10005420:	f002 fafa 	bl	10007a18 <__mutex_exit_veneer>
10005424:	0020      	movs	r0, r4
10005426:	bd70      	pop	{r4, r5, r6, pc}
10005428:	2000      	movs	r0, #0
1000542a:	f001 faf1 	bl	10006a10 <tud_cdc_n_available>
1000542e:	2800      	cmp	r0, #0
10005430:	d0ee      	beq.n	10005410 <stdio_usb_in_chars+0x40>
10005432:	0021      	movs	r1, r4
10005434:	0032      	movs	r2, r6
10005436:	2000      	movs	r0, #0
10005438:	f001 faf6 	bl	10006a28 <tud_cdc_n_read>
1000543c:	1e04      	subs	r4, r0, #0
1000543e:	d1ee      	bne.n	1000541e <stdio_usb_in_chars+0x4e>
10005440:	3c03      	subs	r4, #3
10005442:	e7ec      	b.n	1000541e <stdio_usb_in_chars+0x4e>
10005444:	2201      	movs	r2, #1
10005446:	4b05      	ldr	r3, [pc, #20]	; (1000545c <stdio_usb_in_chars+0x8c>)
10005448:	4252      	negs	r2, r2
1000544a:	e7d6      	b.n	100053fa <stdio_usb_in_chars+0x2a>
1000544c:	2403      	movs	r4, #3
1000544e:	4264      	negs	r4, r4
10005450:	e7e8      	b.n	10005424 <stdio_usb_in_chars+0x54>
10005452:	46c0      	nop			; (mov r8, r8)
10005454:	000f4240 	.word	0x000f4240
10005458:	200020e8 	.word	0x200020e8
1000545c:	7fffffff 	.word	0x7fffffff

10005460 <stdio_usb_out_chars>:
10005460:	b5f8      	push	{r3, r4, r5, r6, r7, lr}
10005462:	46de      	mov	lr, fp
10005464:	4657      	mov	r7, sl
10005466:	b580      	push	{r7, lr}
10005468:	0005      	movs	r5, r0
1000546a:	000c      	movs	r4, r1
1000546c:	f7fc fcb8 	bl	10001de0 <time_us_64>
10005470:	2300      	movs	r3, #0
10005472:	4a36      	ldr	r2, [pc, #216]	; (1000554c <stdio_usb_out_chars+0xec>)
10005474:	1812      	adds	r2, r2, r0
10005476:	414b      	adcs	r3, r1
10005478:	2b00      	cmp	r3, #0
1000547a:	db5a      	blt.n	10005532 <stdio_usb_out_chars+0xd2>
1000547c:	4934      	ldr	r1, [pc, #208]	; (10005550 <stdio_usb_out_chars+0xf0>)
1000547e:	0008      	movs	r0, r1
10005480:	468a      	mov	sl, r1
10005482:	f002 fb09 	bl	10007a98 <__mutex_try_enter_block_until_veneer>
10005486:	2800      	cmp	r0, #0
10005488:	d103      	bne.n	10005492 <stdio_usb_out_chars+0x32>
1000548a:	bcc0      	pop	{r6, r7}
1000548c:	46bb      	mov	fp, r7
1000548e:	46b2      	mov	sl, r6
10005490:	bdf8      	pop	{r3, r4, r5, r6, r7, pc}
10005492:	2000      	movs	r0, #0
10005494:	f001 faa4 	bl	100069e0 <tud_cdc_n_connected>
10005498:	2800      	cmp	r0, #0
1000549a:	d04e      	beq.n	1000553a <stdio_usb_out_chars+0xda>
1000549c:	2600      	movs	r6, #0
1000549e:	2c00      	cmp	r4, #0
100054a0:	dd43      	ble.n	1000552a <stdio_usb_out_chars+0xca>
100054a2:	4b2c      	ldr	r3, [pc, #176]	; (10005554 <stdio_usb_out_chars+0xf4>)
100054a4:	469b      	mov	fp, r3
100054a6:	e014      	b.n	100054d2 <stdio_usb_out_chars+0x72>
100054a8:	19a9      	adds	r1, r5, r6
100054aa:	2000      	movs	r0, #0
100054ac:	f001 fb30 	bl	10006b10 <tud_cdc_n_write>
100054b0:	0007      	movs	r7, r0
100054b2:	2001      	movs	r0, #1
100054b4:	2100      	movs	r1, #0
100054b6:	4240      	negs	r0, r0
100054b8:	f000 fc7c 	bl	10005db4 <tud_task_ext>
100054bc:	2000      	movs	r0, #0
100054be:	f001 faeb 	bl	10006a98 <tud_cdc_n_write_flush>
100054c2:	f7fc fc8d 	bl	10001de0 <time_us_64>
100054c6:	4b23      	ldr	r3, [pc, #140]	; (10005554 <stdio_usb_out_chars+0xf4>)
100054c8:	19f6      	adds	r6, r6, r7
100054ca:	6018      	str	r0, [r3, #0]
100054cc:	6059      	str	r1, [r3, #4]
100054ce:	42b4      	cmp	r4, r6
100054d0:	dd2b      	ble.n	1000552a <stdio_usb_out_chars+0xca>
100054d2:	2000      	movs	r0, #0
100054d4:	f001 fb36 	bl	10006b44 <tud_cdc_n_write_available>
100054d8:	1ba7      	subs	r7, r4, r6
100054da:	0002      	movs	r2, r0
100054dc:	42b8      	cmp	r0, r7
100054de:	dd00      	ble.n	100054e2 <stdio_usb_out_chars+0x82>
100054e0:	003a      	movs	r2, r7
100054e2:	2a00      	cmp	r2, #0
100054e4:	d1e0      	bne.n	100054a8 <stdio_usb_out_chars+0x48>
100054e6:	2001      	movs	r0, #1
100054e8:	2100      	movs	r1, #0
100054ea:	4240      	negs	r0, r0
100054ec:	f000 fc62 	bl	10005db4 <tud_task_ext>
100054f0:	2000      	movs	r0, #0
100054f2:	f001 fad1 	bl	10006a98 <tud_cdc_n_write_flush>
100054f6:	2000      	movs	r0, #0
100054f8:	f001 fa72 	bl	100069e0 <tud_cdc_n_connected>
100054fc:	2800      	cmp	r0, #0
100054fe:	d014      	beq.n	1000552a <stdio_usb_out_chars+0xca>
10005500:	2000      	movs	r0, #0
10005502:	f001 fb1f 	bl	10006b44 <tud_cdc_n_write_available>
10005506:	2800      	cmp	r0, #0
10005508:	d1e1      	bne.n	100054ce <stdio_usb_out_chars+0x6e>
1000550a:	f7fc fc69 	bl	10001de0 <time_us_64>
1000550e:	465b      	mov	r3, fp
10005510:	000f      	movs	r7, r1
10005512:	681a      	ldr	r2, [r3, #0]
10005514:	685b      	ldr	r3, [r3, #4]
10005516:	2100      	movs	r1, #0
10005518:	4684      	mov	ip, r0
1000551a:	480f      	ldr	r0, [pc, #60]	; (10005558 <stdio_usb_out_chars+0xf8>)
1000551c:	1812      	adds	r2, r2, r0
1000551e:	414b      	adcs	r3, r1
10005520:	429f      	cmp	r7, r3
10005522:	d802      	bhi.n	1000552a <stdio_usb_out_chars+0xca>
10005524:	d1d3      	bne.n	100054ce <stdio_usb_out_chars+0x6e>
10005526:	4594      	cmp	ip, r2
10005528:	d9d1      	bls.n	100054ce <stdio_usb_out_chars+0x6e>
1000552a:	4650      	mov	r0, sl
1000552c:	f002 fa74 	bl	10007a18 <__mutex_exit_veneer>
10005530:	e7ab      	b.n	1000548a <stdio_usb_out_chars+0x2a>
10005532:	2201      	movs	r2, #1
10005534:	4b09      	ldr	r3, [pc, #36]	; (1000555c <stdio_usb_out_chars+0xfc>)
10005536:	4252      	negs	r2, r2
10005538:	e7a0      	b.n	1000547c <stdio_usb_out_chars+0x1c>
1000553a:	2000      	movs	r0, #0
1000553c:	2100      	movs	r1, #0
1000553e:	4b05      	ldr	r3, [pc, #20]	; (10005554 <stdio_usb_out_chars+0xf4>)
10005540:	6018      	str	r0, [r3, #0]
10005542:	6059      	str	r1, [r3, #4]
10005544:	4650      	mov	r0, sl
10005546:	f002 fa67 	bl	10007a18 <__mutex_exit_veneer>
1000554a:	e79e      	b.n	1000548a <stdio_usb_out_chars+0x2a>
1000554c:	000f4240 	.word	0x000f4240
10005550:	200020e8 	.word	0x200020e8
10005554:	20001468 	.word	0x20001468
10005558:	0007a120 	.word	0x0007a120
1000555c:	7fffffff 	.word	0x7fffffff

10005560 <low_priority_worker_irq>:
10005560:	b510      	push	{r4, lr}
10005562:	4c24      	ldr	r4, [pc, #144]	; (100055f4 <low_priority_worker_irq+0x94>)
10005564:	b084      	sub	sp, #16
10005566:	2100      	movs	r1, #0
10005568:	0020      	movs	r0, r4
1000556a:	f002 fa7d 	bl	10007a68 <__mutex_try_enter_veneer>
1000556e:	2800      	cmp	r0, #0
10005570:	d11c      	bne.n	100055ac <low_priority_worker_irq+0x4c>
10005572:	4b21      	ldr	r3, [pc, #132]	; (100055f8 <low_priority_worker_irq+0x98>)
10005574:	681a      	ldr	r2, [r3, #0]
10005576:	2a00      	cmp	r2, #0
10005578:	d016      	beq.n	100055a8 <low_priority_worker_irq+0x48>
1000557a:	f3ef 8110 	mrs	r1, PRIMASK
1000557e:	b672      	cpsid	i
10005580:	6810      	ldr	r0, [r2, #0]
10005582:	2800      	cmp	r0, #0
10005584:	d0fc      	beq.n	10005580 <low_priority_worker_irq+0x20>
10005586:	f3bf 8f5f 	dmb	sy
1000558a:	2401      	movs	r4, #1
1000558c:	481b      	ldr	r0, [pc, #108]	; (100055fc <low_priority_worker_irq+0x9c>)
1000558e:	6059      	str	r1, [r3, #4]
10005590:	7802      	ldrb	r2, [r0, #0]
10005592:	681b      	ldr	r3, [r3, #0]
10005594:	b2d2      	uxtb	r2, r2
10005596:	7004      	strb	r4, [r0, #0]
10005598:	f3bf 8f5f 	dmb	sy
1000559c:	2000      	movs	r0, #0
1000559e:	6018      	str	r0, [r3, #0]
100055a0:	f381 8810 	msr	PRIMASK, r1
100055a4:	2a00      	cmp	r2, #0
100055a6:	d00a      	beq.n	100055be <low_priority_worker_irq+0x5e>
100055a8:	b004      	add	sp, #16
100055aa:	bd10      	pop	{r4, pc}
100055ac:	2001      	movs	r0, #1
100055ae:	2100      	movs	r1, #0
100055b0:	4240      	negs	r0, r0
100055b2:	f000 fbff 	bl	10005db4 <tud_task_ext>
100055b6:	0020      	movs	r0, r4
100055b8:	f002 fa2e 	bl	10007a18 <__mutex_exit_veneer>
100055bc:	e7f4      	b.n	100055a8 <low_priority_worker_irq+0x48>
100055be:	f7fc f9ef 	bl	100019a0 <alarm_pool_get_default>
100055c2:	0004      	movs	r4, r0
100055c4:	f7fc fc0c 	bl	10001de0 <time_us_64>
100055c8:	22fa      	movs	r2, #250	; 0xfa
100055ca:	2300      	movs	r3, #0
100055cc:	0092      	lsls	r2, r2, #2
100055ce:	1812      	adds	r2, r2, r0
100055d0:	414b      	adcs	r3, r1
100055d2:	2b00      	cmp	r3, #0
100055d4:	db09      	blt.n	100055ea <low_priority_worker_irq+0x8a>
100055d6:	2101      	movs	r1, #1
100055d8:	9102      	str	r1, [sp, #8]
100055da:	2100      	movs	r1, #0
100055dc:	9101      	str	r1, [sp, #4]
100055de:	4908      	ldr	r1, [pc, #32]	; (10005600 <low_priority_worker_irq+0xa0>)
100055e0:	0020      	movs	r0, r4
100055e2:	9100      	str	r1, [sp, #0]
100055e4:	f7fc f9e0 	bl	100019a8 <alarm_pool_add_alarm_at>
100055e8:	e7de      	b.n	100055a8 <low_priority_worker_irq+0x48>
100055ea:	2201      	movs	r2, #1
100055ec:	4b05      	ldr	r3, [pc, #20]	; (10005604 <low_priority_worker_irq+0xa4>)
100055ee:	4252      	negs	r2, r2
100055f0:	e7f1      	b.n	100055d6 <low_priority_worker_irq+0x76>
100055f2:	46c0      	nop			; (mov r8, r8)
100055f4:	200020e8 	.word	0x200020e8
100055f8:	200020c0 	.word	0x200020c0
100055fc:	20002118 	.word	0x20002118
10005600:	1000537d 	.word	0x1000537d
10005604:	7fffffff 	.word	0x7fffffff

10005608 <tud_cdc_rx_cb>:
10005608:	4b05      	ldr	r3, [pc, #20]	; (10005620 <tud_cdc_rx_cb+0x18>)
1000560a:	b510      	push	{r4, lr}
1000560c:	6818      	ldr	r0, [r3, #0]
1000560e:	2800      	cmp	r0, #0
10005610:	d004      	beq.n	1000561c <tud_cdc_rx_cb+0x14>
10005612:	4b04      	ldr	r3, [pc, #16]	; (10005624 <tud_cdc_rx_cb+0x1c>)
10005614:	2200      	movs	r2, #0
10005616:	6819      	ldr	r1, [r3, #0]
10005618:	f001 f844 	bl	100066a4 <usbd_defer_func>
1000561c:	bd10      	pop	{r4, pc}
1000561e:	46c0      	nop			; (mov r8, r8)
10005620:	20001be8 	.word	0x20001be8
10005624:	20001bec 	.word	0x20001bec

10005628 <stdio_usb_init>:
10005628:	23d0      	movs	r3, #208	; 0xd0
1000562a:	b510      	push	{r4, lr}
1000562c:	061b      	lsls	r3, r3, #24
1000562e:	b084      	sub	sp, #16
10005630:	681c      	ldr	r4, [r3, #0]
10005632:	f7fc f9b5 	bl	100019a0 <alarm_pool_get_default>
10005636:	f7fc faaf 	bl	10001b98 <alarm_pool_core_num>
1000563a:	42a0      	cmp	r0, r4
1000563c:	d002      	beq.n	10005644 <stdio_usb_init+0x1c>
1000563e:	2000      	movs	r0, #0
10005640:	b004      	add	sp, #16
10005642:	bd10      	pop	{r4, pc}
10005644:	4b26      	ldr	r3, [pc, #152]	; (100056e0 <stdio_usb_init+0xb8>)
10005646:	781b      	ldrb	r3, [r3, #0]
10005648:	f001 fc66 	bl	10006f18 <tusb_init>
1000564c:	4825      	ldr	r0, [pc, #148]	; (100056e4 <stdio_usb_init+0xbc>)
1000564e:	f7fb ffad 	bl	100015ac <mutex_init>
10005652:	2001      	movs	r0, #1
10005654:	f7fb ff8e 	bl	10001574 <user_irq_claim_unused>
10005658:	23ff      	movs	r3, #255	; 0xff
1000565a:	4c23      	ldr	r4, [pc, #140]	; (100056e8 <stdio_usb_init+0xc0>)
1000565c:	4923      	ldr	r1, [pc, #140]	; (100056ec <stdio_usb_init+0xc4>)
1000565e:	7020      	strb	r0, [r4, #0]
10005660:	4018      	ands	r0, r3
10005662:	f7fb fd25 	bl	100010b0 <irq_set_exclusive_handler>
10005666:	7820      	ldrb	r0, [r4, #0]
10005668:	2101      	movs	r1, #1
1000566a:	f7fb fce9 	bl	10001040 <irq_set_enabled>
1000566e:	2005      	movs	r0, #5
10005670:	f7fb fd00 	bl	10001074 <irq_has_shared_handler>
10005674:	2800      	cmp	r0, #0
10005676:	d122      	bne.n	100056be <stdio_usb_init+0x96>
10005678:	f7fc f992 	bl	100019a0 <alarm_pool_get_default>
1000567c:	0004      	movs	r4, r0
1000567e:	f7fc fbaf 	bl	10001de0 <time_us_64>
10005682:	22fa      	movs	r2, #250	; 0xfa
10005684:	2300      	movs	r3, #0
10005686:	0092      	lsls	r2, r2, #2
10005688:	1812      	adds	r2, r2, r0
1000568a:	414b      	adcs	r3, r1
1000568c:	2b00      	cmp	r3, #0
1000568e:	db22      	blt.n	100056d6 <stdio_usb_init+0xae>
10005690:	2101      	movs	r1, #1
10005692:	9102      	str	r1, [sp, #8]
10005694:	2100      	movs	r1, #0
10005696:	9101      	str	r1, [sp, #4]
10005698:	4915      	ldr	r1, [pc, #84]	; (100056f0 <stdio_usb_init+0xc8>)
1000569a:	0020      	movs	r0, r4
1000569c:	9100      	str	r1, [sp, #0]
1000569e:	f7fc f983 	bl	100019a8 <alarm_pool_add_alarm_at>
100056a2:	2208      	movs	r2, #8
100056a4:	0004      	movs	r4, r0
100056a6:	2100      	movs	r1, #0
100056a8:	4812      	ldr	r0, [pc, #72]	; (100056f4 <stdio_usb_init+0xcc>)
100056aa:	f7ff fbc9 	bl	10004e40 <__wrap_memset>
100056ae:	2c00      	cmp	r4, #0
100056b0:	dbc5      	blt.n	1000563e <stdio_usb_init+0x16>
100056b2:	4811      	ldr	r0, [pc, #68]	; (100056f8 <stdio_usb_init+0xd0>)
100056b4:	2101      	movs	r1, #1
100056b6:	f7ff fd4b 	bl	10005150 <stdio_set_driver_enabled>
100056ba:	2001      	movs	r0, #1
100056bc:	e7c0      	b.n	10005640 <stdio_usb_init+0x18>
100056be:	2200      	movs	r2, #0
100056c0:	490e      	ldr	r1, [pc, #56]	; (100056fc <stdio_usb_init+0xd4>)
100056c2:	2005      	movs	r0, #5
100056c4:	f7fb fd1e 	bl	10001104 <irq_add_shared_handler>
100056c8:	f7fb fc9e 	bl	10001008 <next_striped_spin_lock_num>
100056cc:	0001      	movs	r1, r0
100056ce:	4809      	ldr	r0, [pc, #36]	; (100056f4 <stdio_usb_init+0xcc>)
100056d0:	f7fb ff98 	bl	10001604 <critical_section_init_with_lock_num>
100056d4:	e7ed      	b.n	100056b2 <stdio_usb_init+0x8a>
100056d6:	2201      	movs	r2, #1
100056d8:	4b09      	ldr	r3, [pc, #36]	; (10005700 <stdio_usb_init+0xd8>)
100056da:	4252      	negs	r2, r2
100056dc:	e7d8      	b.n	10005690 <stdio_usb_init+0x68>
100056de:	46c0      	nop			; (mov r8, r8)
100056e0:	10008264 	.word	0x10008264
100056e4:	200020e8 	.word	0x200020e8
100056e8:	20002117 	.word	0x20002117
100056ec:	10005561 	.word	0x10005561
100056f0:	1000537d 	.word	0x1000537d
100056f4:	200020c0 	.word	0x200020c0
100056f8:	20000ed0 	.word	0x20000ed0
100056fc:	1000536d 	.word	0x1000536d
10005700:	7fffffff 	.word	0x7fffffff

10005704 <tud_descriptor_device_cb>:
10005704:	4800      	ldr	r0, [pc, #0]	; (10005708 <tud_descriptor_device_cb+0x4>)
10005706:	4770      	bx	lr
10005708:	100080f4 	.word	0x100080f4

1000570c <tud_descriptor_configuration_cb>:
1000570c:	4800      	ldr	r0, [pc, #0]	; (10005710 <tud_descriptor_configuration_cb+0x4>)
1000570e:	4770      	bx	lr
10005710:	100080a0 	.word	0x100080a0

10005714 <tud_descriptor_string_cb>:
10005714:	b570      	push	{r4, r5, r6, lr}
10005716:	0004      	movs	r4, r0
10005718:	4817      	ldr	r0, [pc, #92]	; (10005778 <tud_descriptor_string_cb+0x64>)
1000571a:	7803      	ldrb	r3, [r0, #0]
1000571c:	2b00      	cmp	r3, #0
1000571e:	d021      	beq.n	10005764 <tud_descriptor_string_cb+0x50>
10005720:	2c00      	cmp	r4, #0
10005722:	d106      	bne.n	10005732 <tud_descriptor_string_cb+0x1e>
10005724:	24c1      	movs	r4, #193	; 0xc1
10005726:	4815      	ldr	r0, [pc, #84]	; (1000577c <tud_descriptor_string_cb+0x68>)
10005728:	4b15      	ldr	r3, [pc, #84]	; (10005780 <tud_descriptor_string_cb+0x6c>)
1000572a:	00a4      	lsls	r4, r4, #2
1000572c:	8043      	strh	r3, [r0, #2]
1000572e:	8004      	strh	r4, [r0, #0]
10005730:	bd70      	pop	{r4, r5, r6, pc}
10005732:	2c05      	cmp	r4, #5
10005734:	d81d      	bhi.n	10005772 <tud_descriptor_string_cb+0x5e>
10005736:	4b13      	ldr	r3, [pc, #76]	; (10005784 <tud_descriptor_string_cb+0x70>)
10005738:	4810      	ldr	r0, [pc, #64]	; (1000577c <tud_descriptor_string_cb+0x68>)
1000573a:	00a4      	lsls	r4, r4, #2
1000573c:	58e5      	ldr	r5, [r4, r3]
1000573e:	1c81      	adds	r1, r0, #2
10005740:	2300      	movs	r3, #0
10005742:	e004      	b.n	1000574e <tud_descriptor_string_cb+0x3a>
10005744:	3301      	adds	r3, #1
10005746:	800a      	strh	r2, [r1, #0]
10005748:	3102      	adds	r1, #2
1000574a:	2b13      	cmp	r3, #19
1000574c:	d00e      	beq.n	1000576c <tud_descriptor_string_cb+0x58>
1000574e:	5cea      	ldrb	r2, [r5, r3]
10005750:	b2dc      	uxtb	r4, r3
10005752:	2a00      	cmp	r2, #0
10005754:	d1f6      	bne.n	10005744 <tud_descriptor_string_cb+0x30>
10005756:	23c0      	movs	r3, #192	; 0xc0
10005758:	3401      	adds	r4, #1
1000575a:	b2e4      	uxtb	r4, r4
1000575c:	0064      	lsls	r4, r4, #1
1000575e:	009b      	lsls	r3, r3, #2
10005760:	431c      	orrs	r4, r3
10005762:	e7e4      	b.n	1000572e <tud_descriptor_string_cb+0x1a>
10005764:	2111      	movs	r1, #17
10005766:	f000 f817 	bl	10005798 <pico_get_unique_board_id_string>
1000576a:	e7d9      	b.n	10005720 <tud_descriptor_string_cb+0xc>
1000576c:	24ca      	movs	r4, #202	; 0xca
1000576e:	00a4      	lsls	r4, r4, #2
10005770:	e7dd      	b.n	1000572e <tud_descriptor_string_cb+0x1a>
10005772:	2000      	movs	r0, #0
10005774:	e7dc      	b.n	10005730 <tud_descriptor_string_cb+0x1c>
10005776:	46c0      	nop			; (mov r8, r8)
10005778:	20002100 	.word	0x20002100
1000577c:	20001c5c 	.word	0x20001c5c
10005780:	00000409 	.word	0x00000409
10005784:	10008108 	.word	0x10008108

10005788 <_retrieve_unique_id_on_boot>:
10005788:	b510      	push	{r4, lr}
1000578a:	4802      	ldr	r0, [pc, #8]	; (10005794 <_retrieve_unique_id_on_boot+0xc>)
1000578c:	f000 f8d8 	bl	10005940 <flash_get_unique_id>
10005790:	bd10      	pop	{r4, pc}
10005792:	46c0      	nop			; (mov r8, r8)
10005794:	200020d8 	.word	0x200020d8

10005798 <pico_get_unique_board_id_string>:
10005798:	b530      	push	{r4, r5, lr}
1000579a:	1e4b      	subs	r3, r1, #1
1000579c:	2901      	cmp	r1, #1
1000579e:	d100      	bne.n	100057a2 <pico_get_unique_board_id_string+0xa>
100057a0:	e0a7      	b.n	100058f2 <pico_get_unique_board_id_string+0x15a>
100057a2:	4a66      	ldr	r2, [pc, #408]	; (1000593c <pico_get_unique_board_id_string+0x1a4>)
100057a4:	7811      	ldrb	r1, [r2, #0]
100057a6:	110d      	asrs	r5, r1, #4
100057a8:	002c      	movs	r4, r5
100057aa:	3430      	adds	r4, #48	; 0x30
100057ac:	299f      	cmp	r1, #159	; 0x9f
100057ae:	d900      	bls.n	100057b2 <pico_get_unique_board_id_string+0x1a>
100057b0:	e0a2      	b.n	100058f8 <pico_get_unique_board_id_string+0x160>
100057b2:	7004      	strb	r4, [r0, #0]
100057b4:	2b01      	cmp	r3, #1
100057b6:	d100      	bne.n	100057ba <pico_get_unique_board_id_string+0x22>
100057b8:	e0be      	b.n	10005938 <pico_get_unique_board_id_string+0x1a0>
100057ba:	210f      	movs	r1, #15
100057bc:	7814      	ldrb	r4, [r2, #0]
100057be:	4021      	ands	r1, r4
100057c0:	000c      	movs	r4, r1
100057c2:	3430      	adds	r4, #48	; 0x30
100057c4:	2909      	cmp	r1, #9
100057c6:	dd00      	ble.n	100057ca <pico_get_unique_board_id_string+0x32>
100057c8:	e098      	b.n	100058fc <pico_get_unique_board_id_string+0x164>
100057ca:	7044      	strb	r4, [r0, #1]
100057cc:	2b02      	cmp	r3, #2
100057ce:	d100      	bne.n	100057d2 <pico_get_unique_board_id_string+0x3a>
100057d0:	e0b2      	b.n	10005938 <pico_get_unique_board_id_string+0x1a0>
100057d2:	7854      	ldrb	r4, [r2, #1]
100057d4:	1125      	asrs	r5, r4, #4
100057d6:	0029      	movs	r1, r5
100057d8:	3130      	adds	r1, #48	; 0x30
100057da:	2c9f      	cmp	r4, #159	; 0x9f
100057dc:	d900      	bls.n	100057e0 <pico_get_unique_board_id_string+0x48>
100057de:	e090      	b.n	10005902 <pico_get_unique_board_id_string+0x16a>
100057e0:	7081      	strb	r1, [r0, #2]
100057e2:	2b03      	cmp	r3, #3
100057e4:	d100      	bne.n	100057e8 <pico_get_unique_board_id_string+0x50>
100057e6:	e0a7      	b.n	10005938 <pico_get_unique_board_id_string+0x1a0>
100057e8:	210f      	movs	r1, #15
100057ea:	4021      	ands	r1, r4
100057ec:	000c      	movs	r4, r1
100057ee:	3430      	adds	r4, #48	; 0x30
100057f0:	2909      	cmp	r1, #9
100057f2:	dd00      	ble.n	100057f6 <pico_get_unique_board_id_string+0x5e>
100057f4:	e087      	b.n	10005906 <pico_get_unique_board_id_string+0x16e>
100057f6:	70c4      	strb	r4, [r0, #3]
100057f8:	2b04      	cmp	r3, #4
100057fa:	d100      	bne.n	100057fe <pico_get_unique_board_id_string+0x66>
100057fc:	e09c      	b.n	10005938 <pico_get_unique_board_id_string+0x1a0>
100057fe:	7894      	ldrb	r4, [r2, #2]
10005800:	1125      	asrs	r5, r4, #4
10005802:	0029      	movs	r1, r5
10005804:	3130      	adds	r1, #48	; 0x30
10005806:	2c9f      	cmp	r4, #159	; 0x9f
10005808:	d900      	bls.n	1000580c <pico_get_unique_board_id_string+0x74>
1000580a:	e07f      	b.n	1000590c <pico_get_unique_board_id_string+0x174>
1000580c:	7101      	strb	r1, [r0, #4]
1000580e:	2b05      	cmp	r3, #5
10005810:	d100      	bne.n	10005814 <pico_get_unique_board_id_string+0x7c>
10005812:	e091      	b.n	10005938 <pico_get_unique_board_id_string+0x1a0>
10005814:	210f      	movs	r1, #15
10005816:	4021      	ands	r1, r4
10005818:	000c      	movs	r4, r1
1000581a:	3430      	adds	r4, #48	; 0x30
1000581c:	2909      	cmp	r1, #9
1000581e:	dd00      	ble.n	10005822 <pico_get_unique_board_id_string+0x8a>
10005820:	e076      	b.n	10005910 <pico_get_unique_board_id_string+0x178>
10005822:	7144      	strb	r4, [r0, #5]
10005824:	2b06      	cmp	r3, #6
10005826:	d100      	bne.n	1000582a <pico_get_unique_board_id_string+0x92>
10005828:	e086      	b.n	10005938 <pico_get_unique_board_id_string+0x1a0>
1000582a:	78d4      	ldrb	r4, [r2, #3]
1000582c:	1125      	asrs	r5, r4, #4
1000582e:	0029      	movs	r1, r5
10005830:	3130      	adds	r1, #48	; 0x30
10005832:	2c9f      	cmp	r4, #159	; 0x9f
10005834:	d900      	bls.n	10005838 <pico_get_unique_board_id_string+0xa0>
10005836:	e06e      	b.n	10005916 <pico_get_unique_board_id_string+0x17e>
10005838:	7181      	strb	r1, [r0, #6]
1000583a:	2b07      	cmp	r3, #7
1000583c:	d100      	bne.n	10005840 <pico_get_unique_board_id_string+0xa8>
1000583e:	e07b      	b.n	10005938 <pico_get_unique_board_id_string+0x1a0>
10005840:	210f      	movs	r1, #15
10005842:	4021      	ands	r1, r4
10005844:	000c      	movs	r4, r1
10005846:	3430      	adds	r4, #48	; 0x30
10005848:	2909      	cmp	r1, #9
1000584a:	dc66      	bgt.n	1000591a <pico_get_unique_board_id_string+0x182>
1000584c:	71c4      	strb	r4, [r0, #7]
1000584e:	2b08      	cmp	r3, #8
10005850:	d100      	bne.n	10005854 <pico_get_unique_board_id_string+0xbc>
10005852:	e071      	b.n	10005938 <pico_get_unique_board_id_string+0x1a0>
10005854:	7914      	ldrb	r4, [r2, #4]
10005856:	1125      	asrs	r5, r4, #4
10005858:	0029      	movs	r1, r5
1000585a:	3130      	adds	r1, #48	; 0x30
1000585c:	2c9f      	cmp	r4, #159	; 0x9f
1000585e:	d85f      	bhi.n	10005920 <pico_get_unique_board_id_string+0x188>
10005860:	7201      	strb	r1, [r0, #8]
10005862:	2b09      	cmp	r3, #9
10005864:	d068      	beq.n	10005938 <pico_get_unique_board_id_string+0x1a0>
10005866:	210f      	movs	r1, #15
10005868:	4021      	ands	r1, r4
1000586a:	000c      	movs	r4, r1
1000586c:	3430      	adds	r4, #48	; 0x30
1000586e:	2909      	cmp	r1, #9
10005870:	dc58      	bgt.n	10005924 <pico_get_unique_board_id_string+0x18c>
10005872:	7244      	strb	r4, [r0, #9]
10005874:	2b0a      	cmp	r3, #10
10005876:	d05f      	beq.n	10005938 <pico_get_unique_board_id_string+0x1a0>
10005878:	7954      	ldrb	r4, [r2, #5]
1000587a:	1125      	asrs	r5, r4, #4
1000587c:	0029      	movs	r1, r5
1000587e:	3130      	adds	r1, #48	; 0x30
10005880:	2c9f      	cmp	r4, #159	; 0x9f
10005882:	d852      	bhi.n	1000592a <pico_get_unique_board_id_string+0x192>
10005884:	7281      	strb	r1, [r0, #10]
10005886:	2b0b      	cmp	r3, #11
10005888:	d056      	beq.n	10005938 <pico_get_unique_board_id_string+0x1a0>
1000588a:	210f      	movs	r1, #15
1000588c:	4021      	ands	r1, r4
1000588e:	000c      	movs	r4, r1
10005890:	3430      	adds	r4, #48	; 0x30
10005892:	2909      	cmp	r1, #9
10005894:	dc4b      	bgt.n	1000592e <pico_get_unique_board_id_string+0x196>
10005896:	72c4      	strb	r4, [r0, #11]
10005898:	2b0c      	cmp	r3, #12
1000589a:	d04d      	beq.n	10005938 <pico_get_unique_board_id_string+0x1a0>
1000589c:	7994      	ldrb	r4, [r2, #6]
1000589e:	1125      	asrs	r5, r4, #4
100058a0:	0029      	movs	r1, r5
100058a2:	3130      	adds	r1, #48	; 0x30
100058a4:	2c9f      	cmp	r4, #159	; 0x9f
100058a6:	d900      	bls.n	100058aa <pico_get_unique_board_id_string+0x112>
100058a8:	3107      	adds	r1, #7
100058aa:	7301      	strb	r1, [r0, #12]
100058ac:	2b0d      	cmp	r3, #13
100058ae:	d043      	beq.n	10005938 <pico_get_unique_board_id_string+0x1a0>
100058b0:	210f      	movs	r1, #15
100058b2:	4021      	ands	r1, r4
100058b4:	000c      	movs	r4, r1
100058b6:	3430      	adds	r4, #48	; 0x30
100058b8:	2909      	cmp	r1, #9
100058ba:	dd01      	ble.n	100058c0 <pico_get_unique_board_id_string+0x128>
100058bc:	3137      	adds	r1, #55	; 0x37
100058be:	000c      	movs	r4, r1
100058c0:	7344      	strb	r4, [r0, #13]
100058c2:	2b0e      	cmp	r3, #14
100058c4:	d038      	beq.n	10005938 <pico_get_unique_board_id_string+0x1a0>
100058c6:	79d1      	ldrb	r1, [r2, #7]
100058c8:	110c      	asrs	r4, r1, #4
100058ca:	0022      	movs	r2, r4
100058cc:	3230      	adds	r2, #48	; 0x30
100058ce:	299f      	cmp	r1, #159	; 0x9f
100058d0:	d900      	bls.n	100058d4 <pico_get_unique_board_id_string+0x13c>
100058d2:	3207      	adds	r2, #7
100058d4:	7382      	strb	r2, [r0, #14]
100058d6:	2b0f      	cmp	r3, #15
100058d8:	d02e      	beq.n	10005938 <pico_get_unique_board_id_string+0x1a0>
100058da:	220f      	movs	r2, #15
100058dc:	400a      	ands	r2, r1
100058de:	0011      	movs	r1, r2
100058e0:	3137      	adds	r1, #55	; 0x37
100058e2:	2a09      	cmp	r2, #9
100058e4:	dc01      	bgt.n	100058ea <pico_get_unique_board_id_string+0x152>
100058e6:	3230      	adds	r2, #48	; 0x30
100058e8:	0011      	movs	r1, r2
100058ea:	73c1      	strb	r1, [r0, #15]
100058ec:	2b10      	cmp	r3, #16
100058ee:	d023      	beq.n	10005938 <pico_get_unique_board_id_string+0x1a0>
100058f0:	3010      	adds	r0, #16
100058f2:	2300      	movs	r3, #0
100058f4:	7003      	strb	r3, [r0, #0]
100058f6:	bd30      	pop	{r4, r5, pc}
100058f8:	3407      	adds	r4, #7
100058fa:	e75a      	b.n	100057b2 <pico_get_unique_board_id_string+0x1a>
100058fc:	3137      	adds	r1, #55	; 0x37
100058fe:	000c      	movs	r4, r1
10005900:	e763      	b.n	100057ca <pico_get_unique_board_id_string+0x32>
10005902:	3107      	adds	r1, #7
10005904:	e76c      	b.n	100057e0 <pico_get_unique_board_id_string+0x48>
10005906:	3137      	adds	r1, #55	; 0x37
10005908:	000c      	movs	r4, r1
1000590a:	e774      	b.n	100057f6 <pico_get_unique_board_id_string+0x5e>
1000590c:	3107      	adds	r1, #7
1000590e:	e77d      	b.n	1000580c <pico_get_unique_board_id_string+0x74>
10005910:	3137      	adds	r1, #55	; 0x37
10005912:	000c      	movs	r4, r1
10005914:	e785      	b.n	10005822 <pico_get_unique_board_id_string+0x8a>
10005916:	3107      	adds	r1, #7
10005918:	e78e      	b.n	10005838 <pico_get_unique_board_id_string+0xa0>
1000591a:	3137      	adds	r1, #55	; 0x37
1000591c:	000c      	movs	r4, r1
1000591e:	e795      	b.n	1000584c <pico_get_unique_board_id_string+0xb4>
10005920:	3107      	adds	r1, #7
10005922:	e79d      	b.n	10005860 <pico_get_unique_board_id_string+0xc8>
10005924:	3137      	adds	r1, #55	; 0x37
10005926:	000c      	movs	r4, r1
10005928:	e7a3      	b.n	10005872 <pico_get_unique_board_id_string+0xda>
1000592a:	3107      	adds	r1, #7
1000592c:	e7aa      	b.n	10005884 <pico_get_unique_board_id_string+0xec>
1000592e:	3137      	adds	r1, #55	; 0x37
10005930:	000c      	movs	r4, r1
10005932:	72c4      	strb	r4, [r0, #11]
10005934:	2b0c      	cmp	r3, #12
10005936:	d1b1      	bne.n	1000589c <pico_get_unique_board_id_string+0x104>
10005938:	18c0      	adds	r0, r0, r3
1000593a:	e7da      	b.n	100058f2 <pico_get_unique_board_id_string+0x15a>
1000593c:	200020d8 	.word	0x200020d8

10005940 <flash_get_unique_id>:
10005940:	b530      	push	{r4, r5, lr}
10005942:	2500      	movs	r5, #0
10005944:	b089      	sub	sp, #36	; 0x24
10005946:	0004      	movs	r4, r0
10005948:	2209      	movs	r2, #9
1000594a:	2100      	movs	r1, #0
1000594c:	a801      	add	r0, sp, #4
1000594e:	9500      	str	r5, [sp, #0]
10005950:	f7ff fa76 	bl	10004e40 <__wrap_memset>
10005954:	2209      	movs	r2, #9
10005956:	2100      	movs	r1, #0
10005958:	a805      	add	r0, sp, #20
1000595a:	9504      	str	r5, [sp, #16]
1000595c:	f7ff fa70 	bl	10004e40 <__wrap_memset>
10005960:	234b      	movs	r3, #75	; 0x4b
10005962:	466a      	mov	r2, sp
10005964:	4668      	mov	r0, sp
10005966:	7013      	strb	r3, [r2, #0]
10005968:	a904      	add	r1, sp, #16
1000596a:	220d      	movs	r2, #13
1000596c:	f002 f84c 	bl	10007a08 <__flash_do_cmd_veneer>
10005970:	2115      	movs	r1, #21
10005972:	2208      	movs	r2, #8
10005974:	0020      	movs	r0, r4
10005976:	4469      	add	r1, sp
10005978:	f7ff fa68 	bl	10004e4c <__wrap___aeabi_memcpy>
1000597c:	b009      	add	sp, #36	; 0x24
1000597e:	bd30      	pop	{r4, r5, pc}

10005980 <dcd_int_enable>:
10005980:	b510      	push	{r4, lr}
10005982:	2101      	movs	r1, #1
10005984:	2005      	movs	r0, #5
10005986:	f7fb fb5b 	bl	10001040 <irq_set_enabled>
1000598a:	bd10      	pop	{r4, pc}

1000598c <dcd_set_address>:
1000598c:	b510      	push	{r4, lr}
1000598e:	2200      	movs	r2, #0
10005990:	2100      	movs	r1, #0
10005992:	4802      	ldr	r0, [pc, #8]	; (1000599c <dcd_set_address+0x10>)
10005994:	f000 f95a 	bl	10005c4c <hw_endpoint_xfer_start>
10005998:	bd10      	pop	{r4, pc}
1000599a:	46c0      	nop			; (mov r8, r8)
1000599c:	20001cb0 	.word	0x20001cb0

100059a0 <dcd_connect>:
100059a0:	2280      	movs	r2, #128	; 0x80
100059a2:	4b02      	ldr	r3, [pc, #8]	; (100059ac <dcd_connect+0xc>)
100059a4:	0252      	lsls	r2, r2, #9
100059a6:	64da      	str	r2, [r3, #76]	; 0x4c
100059a8:	4770      	bx	lr
100059aa:	46c0      	nop			; (mov r8, r8)
100059ac:	50112000 	.word	0x50112000

100059b0 <dcd_init>:
100059b0:	b5f0      	push	{r4, r5, r6, r7, lr}
100059b2:	46c6      	mov	lr, r8
100059b4:	b500      	push	{lr}
100059b6:	0006      	movs	r6, r0
100059b8:	f000 f922 	bl	10005c00 <rp2040_usb_init>
100059bc:	230c      	movs	r3, #12
100059be:	4d1b      	ldr	r5, [pc, #108]	; (10005a2c <dcd_init+0x7c>)
100059c0:	22ff      	movs	r2, #255	; 0xff
100059c2:	67ab      	str	r3, [r5, #120]	; 0x78
100059c4:	2005      	movs	r0, #5
100059c6:	491a      	ldr	r1, [pc, #104]	; (10005a30 <dcd_init+0x80>)
100059c8:	f7fb fb9c 	bl	10001104 <irq_add_shared_handler>
100059cc:	2340      	movs	r3, #64	; 0x40
100059ce:	4698      	mov	r8, r3
100059d0:	4c18      	ldr	r4, [pc, #96]	; (10005a34 <dcd_init+0x84>)
100059d2:	2240      	movs	r2, #64	; 0x40
100059d4:	2100      	movs	r1, #0
100059d6:	0020      	movs	r0, r4
100059d8:	f7ff fa32 	bl	10004e40 <__wrap_memset>
100059dc:	4643      	mov	r3, r8
100059de:	2701      	movs	r7, #1
100059e0:	8323      	strh	r3, [r4, #24]
100059e2:	2121      	movs	r1, #33	; 0x21
100059e4:	2300      	movs	r3, #0
100059e6:	4a14      	ldr	r2, [pc, #80]	; (10005a38 <dcd_init+0x88>)
100059e8:	7067      	strb	r7, [r4, #1]
100059ea:	60a2      	str	r2, [r4, #8]
100059ec:	6013      	str	r3, [r2, #0]
100059ee:	5463      	strb	r3, [r4, r1]
100059f0:	315f      	adds	r1, #95	; 0x5f
100059f2:	8461      	strh	r1, [r4, #34]	; 0x22
100059f4:	4641      	mov	r1, r8
100059f6:	8721      	strh	r1, [r4, #56]	; 0x38
100059f8:	3905      	subs	r1, #5
100059fa:	5463      	strb	r3, [r4, r1]
100059fc:	4a0f      	ldr	r2, [pc, #60]	; (10005a3c <dcd_init+0x8c>)
100059fe:	4910      	ldr	r1, [pc, #64]	; (10005a40 <dcd_init+0x90>)
10005a00:	6063      	str	r3, [r4, #4]
10005a02:	60e2      	str	r2, [r4, #12]
10005a04:	62a1      	str	r1, [r4, #40]	; 0x28
10005a06:	600b      	str	r3, [r1, #0]
10005a08:	6263      	str	r3, [r4, #36]	; 0x24
10005a0a:	62e2      	str	r2, [r4, #44]	; 0x2c
10005a0c:	f002 f83c 	bl	10007a88 <__reset_non_control_endpoints_veneer>
10005a10:	2380      	movs	r3, #128	; 0x80
10005a12:	059b      	lsls	r3, r3, #22
10005a14:	642f      	str	r7, [r5, #64]	; 0x40
10005a16:	64eb      	str	r3, [r5, #76]	; 0x4c
10005a18:	2390      	movs	r3, #144	; 0x90
10005a1a:	4a0a      	ldr	r2, [pc, #40]	; (10005a44 <dcd_init+0x94>)
10005a1c:	0030      	movs	r0, r6
10005a1e:	50ea      	str	r2, [r5, r3]
10005a20:	f7ff ffbe 	bl	100059a0 <dcd_connect>
10005a24:	bc80      	pop	{r7}
10005a26:	46b8      	mov	r8, r7
10005a28:	bdf0      	pop	{r4, r5, r6, r7, pc}
10005a2a:	46c0      	nop			; (mov r8, r8)
10005a2c:	50110000 	.word	0x50110000
10005a30:	200004f9 	.word	0x200004f9
10005a34:	20001c90 	.word	0x20001c90
10005a38:	50100084 	.word	0x50100084
10005a3c:	50100100 	.word	0x50100100
10005a40:	50100080 	.word	0x50100080
10005a44:	0001d010 	.word	0x0001d010

10005a48 <dcd_edpt0_status_complete>:
10005a48:	780b      	ldrb	r3, [r1, #0]
10005a4a:	065b      	lsls	r3, r3, #25
10005a4c:	d102      	bne.n	10005a54 <dcd_edpt0_status_complete+0xc>
10005a4e:	784b      	ldrb	r3, [r1, #1]
10005a50:	2b05      	cmp	r3, #5
10005a52:	d000      	beq.n	10005a56 <dcd_edpt0_status_complete+0xe>
10005a54:	4770      	bx	lr
10005a56:	788a      	ldrb	r2, [r1, #2]
10005a58:	4b01      	ldr	r3, [pc, #4]	; (10005a60 <dcd_edpt0_status_complete+0x18>)
10005a5a:	601a      	str	r2, [r3, #0]
10005a5c:	e7fa      	b.n	10005a54 <dcd_edpt0_status_complete+0xc>
10005a5e:	46c0      	nop			; (mov r8, r8)
10005a60:	50110000 	.word	0x50110000

10005a64 <dcd_edpt_open>:
10005a64:	b5f0      	push	{r4, r5, r6, r7, lr}
10005a66:	46c6      	mov	lr, r8
10005a68:	b500      	push	{lr}
10005a6a:	794b      	ldrb	r3, [r1, #5]
10005a6c:	790c      	ldrb	r4, [r1, #4]
10005a6e:	021b      	lsls	r3, r3, #8
10005a70:	7888      	ldrb	r0, [r1, #2]
10005a72:	4323      	orrs	r3, r4
10005a74:	78cc      	ldrb	r4, [r1, #3]
10005a76:	217f      	movs	r1, #127	; 0x7f
10005a78:	07a4      	lsls	r4, r4, #30
10005a7a:	4001      	ands	r1, r0
10005a7c:	09c5      	lsrs	r5, r0, #7
10005a7e:	0fa2      	lsrs	r2, r4, #30
10005a80:	004f      	lsls	r7, r1, #1
10005a82:	0014      	movs	r4, r2
10005a84:	4e32      	ldr	r6, [pc, #200]	; (10005b50 <dcd_edpt_open+0xec>)
10005a86:	197a      	adds	r2, r7, r5
10005a88:	0152      	lsls	r2, r2, #5
10005a8a:	18b2      	adds	r2, r6, r2
10005a8c:	7090      	strb	r0, [r2, #2]
10005a8e:	2001      	movs	r0, #1
10005a90:	4068      	eors	r0, r5
10005a92:	7050      	strb	r0, [r2, #1]
10005a94:	2000      	movs	r0, #0
10005a96:	055b      	lsls	r3, r3, #21
10005a98:	0d5b      	lsrs	r3, r3, #21
10005a9a:	70d0      	strb	r0, [r2, #3]
10005a9c:	8313      	strh	r3, [r2, #24]
10005a9e:	76d4      	strb	r4, [r2, #27]
10005aa0:	4680      	mov	r8, r0
10005aa2:	00ca      	lsls	r2, r1, #3
10005aa4:	2d01      	cmp	r5, #1
10005aa6:	d033      	beq.n	10005b10 <dcd_edpt_open+0xac>
10005aa8:	482a      	ldr	r0, [pc, #168]	; (10005b54 <dcd_edpt_open+0xf0>)
10005aaa:	4684      	mov	ip, r0
10005aac:	0188      	lsls	r0, r1, #6
10005aae:	4462      	add	r2, ip
10005ab0:	4684      	mov	ip, r0
10005ab2:	44b4      	add	ip, r6
10005ab4:	4660      	mov	r0, ip
10005ab6:	6082      	str	r2, [r0, #8]
10005ab8:	4640      	mov	r0, r8
10005aba:	6010      	str	r0, [r2, #0]
10005abc:	2900      	cmp	r1, #0
10005abe:	d033      	beq.n	10005b28 <dcd_edpt_open+0xc4>
10005ac0:	4a25      	ldr	r2, [pc, #148]	; (10005b58 <dcd_edpt_open+0xf4>)
10005ac2:	00c9      	lsls	r1, r1, #3
10005ac4:	4690      	mov	r8, r2
10005ac6:	4662      	mov	r2, ip
10005ac8:	4441      	add	r1, r8
10005aca:	6051      	str	r1, [r2, #4]
10005acc:	223f      	movs	r2, #63	; 0x3f
10005ace:	333f      	adds	r3, #63	; 0x3f
10005ad0:	4393      	bics	r3, r2
10005ad2:	2c02      	cmp	r4, #2
10005ad4:	d100      	bne.n	10005ad8 <dcd_edpt_open+0x74>
10005ad6:	005b      	lsls	r3, r3, #1
10005ad8:	4820      	ldr	r0, [pc, #128]	; (10005b5c <dcd_edpt_open+0xf8>)
10005ada:	197a      	adds	r2, r7, r5
10005adc:	6801      	ldr	r1, [r0, #0]
10005ade:	0152      	lsls	r2, r2, #5
10005ae0:	18b2      	adds	r2, r6, r2
10005ae2:	60d1      	str	r1, [r2, #12]
10005ae4:	4a1e      	ldr	r2, [pc, #120]	; (10005b60 <dcd_edpt_open+0xfc>)
10005ae6:	18cb      	adds	r3, r1, r3
10005ae8:	6003      	str	r3, [r0, #0]
10005aea:	4051      	eors	r1, r2
10005aec:	4053      	eors	r3, r2
10005aee:	2280      	movs	r2, #128	; 0x80
10005af0:	4688      	mov	r8, r1
10005af2:	0152      	lsls	r2, r2, #5
10005af4:	4293      	cmp	r3, r2
10005af6:	d828      	bhi.n	10005b4a <dcd_edpt_open+0xe6>
10005af8:	4643      	mov	r3, r8
10005afa:	06a4      	lsls	r4, r4, #26
10005afc:	431c      	orrs	r4, r3
10005afe:	2380      	movs	r3, #128	; 0x80
10005b00:	197f      	adds	r7, r7, r5
10005b02:	017f      	lsls	r7, r7, #5
10005b04:	061b      	lsls	r3, r3, #24
10005b06:	19f6      	adds	r6, r6, r7
10005b08:	431c      	orrs	r4, r3
10005b0a:	6873      	ldr	r3, [r6, #4]
10005b0c:	601c      	str	r4, [r3, #0]
10005b0e:	e011      	b.n	10005b34 <dcd_edpt_open+0xd0>
10005b10:	4814      	ldr	r0, [pc, #80]	; (10005b64 <dcd_edpt_open+0x100>)
10005b12:	4684      	mov	ip, r0
10005b14:	0188      	lsls	r0, r1, #6
10005b16:	4462      	add	r2, ip
10005b18:	4684      	mov	ip, r0
10005b1a:	44b4      	add	ip, r6
10005b1c:	4660      	mov	r0, ip
10005b1e:	6282      	str	r2, [r0, #40]	; 0x28
10005b20:	4640      	mov	r0, r8
10005b22:	6010      	str	r0, [r2, #0]
10005b24:	2900      	cmp	r1, #0
10005b26:	d109      	bne.n	10005b3c <dcd_edpt_open+0xd8>
10005b28:	2300      	movs	r3, #0
10005b2a:	016d      	lsls	r5, r5, #5
10005b2c:	1976      	adds	r6, r6, r5
10005b2e:	6073      	str	r3, [r6, #4]
10005b30:	4b0d      	ldr	r3, [pc, #52]	; (10005b68 <dcd_edpt_open+0x104>)
10005b32:	60f3      	str	r3, [r6, #12]
10005b34:	2001      	movs	r0, #1
10005b36:	bc80      	pop	{r7}
10005b38:	46b8      	mov	r8, r7
10005b3a:	bdf0      	pop	{r4, r5, r6, r7, pc}
10005b3c:	4a08      	ldr	r2, [pc, #32]	; (10005b60 <dcd_edpt_open+0xfc>)
10005b3e:	00c9      	lsls	r1, r1, #3
10005b40:	4690      	mov	r8, r2
10005b42:	4662      	mov	r2, ip
10005b44:	4441      	add	r1, r8
10005b46:	6251      	str	r1, [r2, #36]	; 0x24
10005b48:	e7c0      	b.n	10005acc <dcd_edpt_open+0x68>
10005b4a:	f7fc ff55 	bl	100029f8 <hard_assertion_failure>
10005b4e:	e7d3      	b.n	10005af8 <dcd_edpt_open+0x94>
10005b50:	20001c90 	.word	0x20001c90
10005b54:	50100084 	.word	0x50100084
10005b58:	50100004 	.word	0x50100004
10005b5c:	200020bc 	.word	0x200020bc
10005b60:	50100000 	.word	0x50100000
10005b64:	50100080 	.word	0x50100080
10005b68:	50100100 	.word	0x50100100

10005b6c <dcd_edpt_close_all>:
10005b6c:	b510      	push	{r4, lr}
10005b6e:	f001 ff8b 	bl	10007a88 <__reset_non_control_endpoints_veneer>
10005b72:	bd10      	pop	{r4, pc}

10005b74 <dcd_edpt_xfer>:
10005b74:	b510      	push	{r4, lr}
10005b76:	207f      	movs	r0, #127	; 0x7f
10005b78:	000c      	movs	r4, r1
10005b7a:	4020      	ands	r0, r4
10005b7c:	0040      	lsls	r0, r0, #1
10005b7e:	09e4      	lsrs	r4, r4, #7
10005b80:	0011      	movs	r1, r2
10005b82:	1900      	adds	r0, r0, r4
10005b84:	001a      	movs	r2, r3
10005b86:	4b03      	ldr	r3, [pc, #12]	; (10005b94 <dcd_edpt_xfer+0x20>)
10005b88:	0140      	lsls	r0, r0, #5
10005b8a:	18c0      	adds	r0, r0, r3
10005b8c:	f000 f85e 	bl	10005c4c <hw_endpoint_xfer_start>
10005b90:	2001      	movs	r0, #1
10005b92:	bd10      	pop	{r4, pc}
10005b94:	20001c90 	.word	0x20001c90

10005b98 <dcd_edpt_stall>:
10005b98:	227f      	movs	r2, #127	; 0x7f
10005b9a:	0013      	movs	r3, r2
10005b9c:	b510      	push	{r4, lr}
10005b9e:	400b      	ands	r3, r1
10005ba0:	420a      	tst	r2, r1
10005ba2:	d00b      	beq.n	10005bbc <dcd_edpt_stall+0x24>
10005ba4:	09c9      	lsrs	r1, r1, #7
10005ba6:	2280      	movs	r2, #128	; 0x80
10005ba8:	0058      	lsls	r0, r3, #1
10005baa:	1840      	adds	r0, r0, r1
10005bac:	4906      	ldr	r1, [pc, #24]	; (10005bc8 <dcd_edpt_stall+0x30>)
10005bae:	0140      	lsls	r0, r0, #5
10005bb0:	1840      	adds	r0, r0, r1
10005bb2:	0112      	lsls	r2, r2, #4
10005bb4:	2100      	movs	r1, #0
10005bb6:	f001 ff87 	bl	10007ac8 <___hw_endpoint_buffer_control_update32_veneer>
10005bba:	bd10      	pop	{r4, pc}
10005bbc:	2202      	movs	r2, #2
10005bbe:	4803      	ldr	r0, [pc, #12]	; (10005bcc <dcd_edpt_stall+0x34>)
10005bc0:	09c9      	lsrs	r1, r1, #7
10005bc2:	1a52      	subs	r2, r2, r1
10005bc4:	6682      	str	r2, [r0, #104]	; 0x68
10005bc6:	e7ee      	b.n	10005ba6 <dcd_edpt_stall+0xe>
10005bc8:	20001c90 	.word	0x20001c90
10005bcc:	50112000 	.word	0x50112000

10005bd0 <dcd_edpt_clear_stall>:
10005bd0:	227f      	movs	r2, #127	; 0x7f
10005bd2:	0010      	movs	r0, r2
10005bd4:	b510      	push	{r4, lr}
10005bd6:	4008      	ands	r0, r1
10005bd8:	420a      	tst	r2, r1
10005bda:	d100      	bne.n	10005bde <dcd_edpt_clear_stall+0xe>
10005bdc:	bd10      	pop	{r4, pc}
10005bde:	2300      	movs	r3, #0
10005be0:	09c9      	lsrs	r1, r1, #7
10005be2:	0040      	lsls	r0, r0, #1
10005be4:	1840      	adds	r0, r0, r1
10005be6:	4904      	ldr	r1, [pc, #16]	; (10005bf8 <dcd_edpt_clear_stall+0x28>)
10005be8:	0140      	lsls	r0, r0, #5
10005bea:	1808      	adds	r0, r1, r0
10005bec:	2200      	movs	r2, #0
10005bee:	4903      	ldr	r1, [pc, #12]	; (10005bfc <dcd_edpt_clear_stall+0x2c>)
10005bf0:	70c3      	strb	r3, [r0, #3]
10005bf2:	f001 ff69 	bl	10007ac8 <___hw_endpoint_buffer_control_update32_veneer>
10005bf6:	e7f1      	b.n	10005bdc <dcd_edpt_clear_stall+0xc>
10005bf8:	20001c90 	.word	0x20001c90
10005bfc:	fffff7ff 	.word	0xfffff7ff

10005c00 <rp2040_usb_init>:
10005c00:	2280      	movs	r2, #128	; 0x80
10005c02:	4b0d      	ldr	r3, [pc, #52]	; (10005c38 <rp2040_usb_init+0x38>)
10005c04:	0452      	lsls	r2, r2, #17
10005c06:	b510      	push	{r4, lr}
10005c08:	601a      	str	r2, [r3, #0]
10005c0a:	4b0c      	ldr	r3, [pc, #48]	; (10005c3c <rp2040_usb_init+0x3c>)
10005c0c:	490c      	ldr	r1, [pc, #48]	; (10005c40 <rp2040_usb_init+0x40>)
10005c0e:	601a      	str	r2, [r3, #0]
10005c10:	0010      	movs	r0, r2
10005c12:	688b      	ldr	r3, [r1, #8]
10005c14:	4398      	bics	r0, r3
10005c16:	d1fb      	bne.n	10005c10 <rp2040_usb_init+0x10>
10005c18:	4c0a      	ldr	r4, [pc, #40]	; (10005c44 <rp2040_usb_init+0x44>)
10005c1a:	229c      	movs	r2, #156	; 0x9c
10005c1c:	2100      	movs	r1, #0
10005c1e:	0020      	movs	r0, r4
10005c20:	f7ff f90e 	bl	10004e40 <__wrap_memset>
10005c24:	2280      	movs	r2, #128	; 0x80
10005c26:	2100      	movs	r1, #0
10005c28:	0152      	lsls	r2, r2, #5
10005c2a:	4807      	ldr	r0, [pc, #28]	; (10005c48 <rp2040_usb_init+0x48>)
10005c2c:	f7ff f908 	bl	10004e40 <__wrap_memset>
10005c30:	2309      	movs	r3, #9
10005c32:	6763      	str	r3, [r4, #116]	; 0x74
10005c34:	bd10      	pop	{r4, pc}
10005c36:	46c0      	nop			; (mov r8, r8)
10005c38:	4000e000 	.word	0x4000e000
10005c3c:	4000f000 	.word	0x4000f000
10005c40:	4000c000 	.word	0x4000c000
10005c44:	50110000 	.word	0x50110000
10005c48:	50100000 	.word	0x50100000

10005c4c <hw_endpoint_xfer_start>:
10005c4c:	b570      	push	{r4, r5, r6, lr}
10005c4e:	7e83      	ldrb	r3, [r0, #26]
10005c50:	0004      	movs	r4, r0
10005c52:	000d      	movs	r5, r1
10005c54:	0016      	movs	r6, r2
10005c56:	2b00      	cmp	r3, #0
10005c58:	d117      	bne.n	10005c8a <hw_endpoint_xfer_start+0x3e>
10005c5a:	2300      	movs	r3, #0
10005c5c:	82e3      	strh	r3, [r4, #22]
10005c5e:	3301      	adds	r3, #1
10005c60:	0020      	movs	r0, r4
10005c62:	82a6      	strh	r6, [r4, #20]
10005c64:	76a3      	strb	r3, [r4, #26]
10005c66:	6125      	str	r5, [r4, #16]
10005c68:	f001 fef6 	bl	10007a58 <__e15_is_bulkin_ep_veneer>
10005c6c:	2800      	cmp	r0, #0
10005c6e:	d004      	beq.n	10005c7a <hw_endpoint_xfer_start+0x2e>
10005c70:	2180      	movs	r1, #128	; 0x80
10005c72:	2390      	movs	r3, #144	; 0x90
10005c74:	4a08      	ldr	r2, [pc, #32]	; (10005c98 <hw_endpoint_xfer_start+0x4c>)
10005c76:	0289      	lsls	r1, r1, #10
10005c78:	50d1      	str	r1, [r2, r3]
10005c7a:	0020      	movs	r0, r4
10005c7c:	f001 fedc 	bl	10007a38 <__e15_is_critical_frame_period_veneer>
10005c80:	2800      	cmp	r0, #0
10005c82:	d005      	beq.n	10005c90 <hw_endpoint_xfer_start+0x44>
10005c84:	2301      	movs	r3, #1
10005c86:	7723      	strb	r3, [r4, #28]
10005c88:	bd70      	pop	{r4, r5, r6, pc}
10005c8a:	f001 ff15 	bl	10007ab8 <__hw_endpoint_reset_transfer_veneer>
10005c8e:	e7e4      	b.n	10005c5a <hw_endpoint_xfer_start+0xe>
10005c90:	0020      	movs	r0, r4
10005c92:	f001 ff09 	bl	10007aa8 <__hw_endpoint_start_next_buffer_veneer>
10005c96:	e7f7      	b.n	10005c88 <hw_endpoint_xfer_start+0x3c>
10005c98:	50112000 	.word	0x50112000

10005c9c <tud_mounted>:
10005c9c:	4b02      	ldr	r3, [pc, #8]	; (10005ca8 <tud_mounted+0xc>)
10005c9e:	7858      	ldrb	r0, [r3, #1]
10005ca0:	1e43      	subs	r3, r0, #1
10005ca2:	4198      	sbcs	r0, r3
10005ca4:	b2c0      	uxtb	r0, r0
10005ca6:	4770      	bx	lr
10005ca8:	200019b4 	.word	0x200019b4

10005cac <tud_suspended>:
10005cac:	4b02      	ldr	r3, [pc, #8]	; (10005cb8 <tud_suspended+0xc>)
10005cae:	7818      	ldrb	r0, [r3, #0]
10005cb0:	0740      	lsls	r0, r0, #29
10005cb2:	0fc0      	lsrs	r0, r0, #31
10005cb4:	4770      	bx	lr
10005cb6:	46c0      	nop			; (mov r8, r8)
10005cb8:	200019b4 	.word	0x200019b4

10005cbc <tud_inited>:
10005cbc:	4b03      	ldr	r3, [pc, #12]	; (10005ccc <tud_inited+0x10>)
10005cbe:	7818      	ldrb	r0, [r3, #0]
10005cc0:	38ff      	subs	r0, #255	; 0xff
10005cc2:	1e43      	subs	r3, r0, #1
10005cc4:	4198      	sbcs	r0, r3
10005cc6:	b2c0      	uxtb	r0, r0
10005cc8:	4770      	bx	lr
10005cca:	46c0      	nop			; (mov r8, r8)
10005ccc:	20000f0c 	.word	0x20000f0c

10005cd0 <tud_init>:
10005cd0:	b5f8      	push	{r3, r4, r5, r6, r7, lr}
10005cd2:	46ce      	mov	lr, r9
10005cd4:	4647      	mov	r7, r8
10005cd6:	b580      	push	{r7, lr}
10005cd8:	4e2c      	ldr	r6, [pc, #176]	; (10005d8c <tud_init+0xbc>)
10005cda:	0005      	movs	r5, r0
10005cdc:	7833      	ldrb	r3, [r6, #0]
10005cde:	2001      	movs	r0, #1
10005ce0:	2bff      	cmp	r3, #255	; 0xff
10005ce2:	d003      	beq.n	10005cec <tud_init+0x1c>
10005ce4:	bcc0      	pop	{r6, r7}
10005ce6:	46b9      	mov	r9, r7
10005ce8:	46b0      	mov	r8, r6
10005cea:	bdf8      	pop	{r3, r4, r5, r6, r7, pc}
10005cec:	2253      	movs	r2, #83	; 0x53
10005cee:	2100      	movs	r1, #0
10005cf0:	4827      	ldr	r0, [pc, #156]	; (10005d90 <tud_init+0xc0>)
10005cf2:	f7ff f8a5 	bl	10004e40 <__wrap_memset>
10005cf6:	4c27      	ldr	r4, [pc, #156]	; (10005d94 <tud_init+0xc4>)
10005cf8:	0020      	movs	r0, r4
10005cfa:	f7fb fc57 	bl	100015ac <mutex_init>
10005cfe:	4b26      	ldr	r3, [pc, #152]	; (10005d98 <tud_init+0xc8>)
10005d00:	601c      	str	r4, [r3, #0]
10005d02:	4c26      	ldr	r4, [pc, #152]	; (10005d9c <tud_init+0xcc>)
10005d04:	0020      	movs	r0, r4
10005d06:	3014      	adds	r0, #20
10005d08:	f7fb fc6c 	bl	100015e4 <critical_section_init>
10005d0c:	0020      	movs	r0, r4
10005d0e:	f001 fbd1 	bl	100074b4 <tu_fifo_clear>
10005d12:	4b23      	ldr	r3, [pc, #140]	; (10005da0 <tud_init+0xd0>)
10005d14:	4f23      	ldr	r7, [pc, #140]	; (10005da4 <tud_init+0xd4>)
10005d16:	601c      	str	r4, [r3, #0]
10005d18:	4b23      	ldr	r3, [pc, #140]	; (10005da8 <tud_init+0xd8>)
10005d1a:	4698      	mov	r8, r3
10005d1c:	2b00      	cmp	r3, #0
10005d1e:	d004      	beq.n	10005d2a <tud_init+0x5a>
10005d20:	0038      	movs	r0, r7
10005d22:	f7ff faf9 	bl	10005318 <usbd_app_driver_get_cb>
10005d26:	4b21      	ldr	r3, [pc, #132]	; (10005dac <tud_init+0xdc>)
10005d28:	6018      	str	r0, [r3, #0]
10005d2a:	4642      	mov	r2, r8
10005d2c:	2400      	movs	r4, #0
10005d2e:	783b      	ldrb	r3, [r7, #0]
10005d30:	2a00      	cmp	r2, #0
10005d32:	d023      	beq.n	10005d7c <tud_init+0xac>
10005d34:	4a1e      	ldr	r2, [pc, #120]	; (10005db0 <tud_init+0xe0>)
10005d36:	4690      	mov	r8, r2
10005d38:	4a1c      	ldr	r2, [pc, #112]	; (10005dac <tud_init+0xdc>)
10005d3a:	4691      	mov	r9, r2
10005d3c:	42a3      	cmp	r3, r4
10005d3e:	d812      	bhi.n	10005d66 <tud_init+0x96>
10005d40:	d10f      	bne.n	10005d62 <tud_init+0x92>
10005d42:	4643      	mov	r3, r8
10005d44:	4798      	blx	r3
10005d46:	3401      	adds	r4, #1
10005d48:	783b      	ldrb	r3, [r7, #0]
10005d4a:	b2e4      	uxtb	r4, r4
10005d4c:	42a3      	cmp	r3, r4
10005d4e:	d2f5      	bcs.n	10005d3c <tud_init+0x6c>
10005d50:	0028      	movs	r0, r5
10005d52:	7035      	strb	r5, [r6, #0]
10005d54:	f7ff fe2c 	bl	100059b0 <dcd_init>
10005d58:	0028      	movs	r0, r5
10005d5a:	f7ff fe11 	bl	10005980 <dcd_int_enable>
10005d5e:	2001      	movs	r0, #1
10005d60:	e7c0      	b.n	10005ce4 <tud_init+0x14>
10005d62:	2000      	movs	r0, #0
10005d64:	e7be      	b.n	10005ce4 <tud_init+0x14>
10005d66:	464a      	mov	r2, r9
10005d68:	6812      	ldr	r2, [r2, #0]
10005d6a:	0063      	lsls	r3, r4, #1
10005d6c:	4694      	mov	ip, r2
10005d6e:	191b      	adds	r3, r3, r4
10005d70:	00db      	lsls	r3, r3, #3
10005d72:	4463      	add	r3, ip
10005d74:	2b00      	cmp	r3, #0
10005d76:	d0f4      	beq.n	10005d62 <tud_init+0x92>
10005d78:	681b      	ldr	r3, [r3, #0]
10005d7a:	e7e3      	b.n	10005d44 <tud_init+0x74>
10005d7c:	f000 feee 	bl	10006b5c <cdcd_init>
10005d80:	783b      	ldrb	r3, [r7, #0]
10005d82:	2000      	movs	r0, #0
10005d84:	2b00      	cmp	r3, #0
10005d86:	d1ad      	bne.n	10005ce4 <tud_init+0x14>
10005d88:	e7e2      	b.n	10005d50 <tud_init+0x80>
10005d8a:	46c0      	nop			; (mov r8, r8)
10005d8c:	20000f0c 	.word	0x20000f0c
10005d90:	200019b4 	.word	0x200019b4
10005d94:	2000196c 	.word	0x2000196c
10005d98:	20001a08 	.word	0x20001a08
10005d9c:	20000ef0 	.word	0x20000ef0
10005da0:	20001a0c 	.word	0x20001a0c
10005da4:	20002111 	.word	0x20002111
10005da8:	10005319 	.word	0x10005319
10005dac:	2000168c 	.word	0x2000168c
10005db0:	10006b5d 	.word	0x10006b5d

10005db4 <tud_task_ext>:
10005db4:	b5f0      	push	{r4, r5, r6, r7, lr}
10005db6:	46de      	mov	lr, fp
10005db8:	4657      	mov	r7, sl
10005dba:	464e      	mov	r6, r9
10005dbc:	4645      	mov	r5, r8
10005dbe:	b5e0      	push	{r5, r6, r7, lr}
10005dc0:	b08b      	sub	sp, #44	; 0x2c
10005dc2:	f001 f8af 	bl	10006f24 <tusb_inited>
10005dc6:	2800      	cmp	r0, #0
10005dc8:	d100      	bne.n	10005dcc <tud_task_ext+0x18>
10005dca:	e10f      	b.n	10005fec <tud_task_ext+0x238>
10005dcc:	4bcd      	ldr	r3, [pc, #820]	; (10006104 <tud_task_ext+0x350>)
10005dce:	4dce      	ldr	r5, [pc, #824]	; (10006108 <tud_task_ext+0x354>)
10005dd0:	4699      	mov	r9, r3
10005dd2:	4bce      	ldr	r3, [pc, #824]	; (1000610c <tud_task_ext+0x358>)
10005dd4:	ac07      	add	r4, sp, #28
10005dd6:	469b      	mov	fp, r3
10005dd8:	682e      	ldr	r6, [r5, #0]
10005dda:	6972      	ldr	r2, [r6, #20]
10005ddc:	f3ef 8110 	mrs	r1, PRIMASK
10005de0:	b672      	cpsid	i
10005de2:	6813      	ldr	r3, [r2, #0]
10005de4:	2b00      	cmp	r3, #0
10005de6:	d0fc      	beq.n	10005de2 <tud_task_ext+0x2e>
10005de8:	f3bf 8f5f 	dmb	sy
10005dec:	61b1      	str	r1, [r6, #24]
10005dee:	0030      	movs	r0, r6
10005df0:	0021      	movs	r1, r4
10005df2:	f001 f9a1 	bl	10007138 <tu_fifo_read>
10005df6:	6972      	ldr	r2, [r6, #20]
10005df8:	69b3      	ldr	r3, [r6, #24]
10005dfa:	f3bf 8f5f 	dmb	sy
10005dfe:	2100      	movs	r1, #0
10005e00:	6011      	str	r1, [r2, #0]
10005e02:	f383 8810 	msr	PRIMASK, r3
10005e06:	2800      	cmp	r0, #0
10005e08:	d100      	bne.n	10005e0c <tud_task_ext+0x58>
10005e0a:	e0ef      	b.n	10005fec <tud_task_ext+0x238>
10005e0c:	7863      	ldrb	r3, [r4, #1]
10005e0e:	2b08      	cmp	r3, #8
10005e10:	d8e2      	bhi.n	10005dd8 <tud_task_ext+0x24>
10005e12:	464a      	mov	r2, r9
10005e14:	009b      	lsls	r3, r3, #2
10005e16:	58d3      	ldr	r3, [r2, r3]
10005e18:	469f      	mov	pc, r3
10005e1a:	6863      	ldr	r3, [r4, #4]
10005e1c:	2b00      	cmp	r3, #0
10005e1e:	d0db      	beq.n	10005dd8 <tud_task_ext+0x24>
10005e20:	68a0      	ldr	r0, [r4, #8]
10005e22:	4798      	blx	r3
10005e24:	e7d8      	b.n	10005dd8 <tud_task_ext+0x24>
10005e26:	227f      	movs	r2, #127	; 0x7f
10005e28:	7921      	ldrb	r1, [r4, #4]
10005e2a:	4eb8      	ldr	r6, [pc, #736]	; (1000610c <tud_task_ext+0x358>)
10005e2c:	400a      	ands	r2, r1
10005e2e:	0050      	lsls	r0, r2, #1
10005e30:	09cb      	lsrs	r3, r1, #7
10005e32:	1836      	adds	r6, r6, r0
10005e34:	18f6      	adds	r6, r6, r3
10005e36:	0030      	movs	r0, r6
10005e38:	2701      	movs	r7, #1
10005e3a:	3030      	adds	r0, #48	; 0x30
10005e3c:	78c3      	ldrb	r3, [r0, #3]
10005e3e:	43bb      	bics	r3, r7
10005e40:	70c3      	strb	r3, [r0, #3]
10005e42:	78c3      	ldrb	r3, [r0, #3]
10005e44:	3703      	adds	r7, #3
10005e46:	43bb      	bics	r3, r7
10005e48:	70c3      	strb	r3, [r0, #3]
10005e4a:	2a00      	cmp	r2, #0
10005e4c:	d100      	bne.n	10005e50 <tud_task_ext+0x9c>
10005e4e:	e0f2      	b.n	10006036 <tud_task_ext+0x282>
10005e50:	4aaf      	ldr	r2, [pc, #700]	; (10006110 <tud_task_ext+0x35c>)
10005e52:	7cf3      	ldrb	r3, [r6, #19]
10005e54:	2a00      	cmp	r2, #0
10005e56:	d006      	beq.n	10005e66 <tud_task_ext+0xb2>
10005e58:	4aae      	ldr	r2, [pc, #696]	; (10006114 <tud_task_ext+0x360>)
10005e5a:	7812      	ldrb	r2, [r2, #0]
10005e5c:	4293      	cmp	r3, r2
10005e5e:	d200      	bcs.n	10005e62 <tud_task_ext+0xae>
10005e60:	e144      	b.n	100060ec <tud_task_ext+0x338>
10005e62:	1a9b      	subs	r3, r3, r2
10005e64:	b2db      	uxtb	r3, r3
10005e66:	2b00      	cmp	r3, #0
10005e68:	d000      	beq.n	10005e6c <tud_task_ext+0xb8>
10005e6a:	e0bf      	b.n	10005fec <tud_task_ext+0x238>
10005e6c:	4eaa      	ldr	r6, [pc, #680]	; (10006118 <tud_task_ext+0x364>)
10005e6e:	7962      	ldrb	r2, [r4, #5]
10005e70:	7820      	ldrb	r0, [r4, #0]
10005e72:	68a3      	ldr	r3, [r4, #8]
10005e74:	47b0      	blx	r6
10005e76:	e7af      	b.n	10005dd8 <tud_task_ext+0x24>
10005e78:	465b      	mov	r3, fp
10005e7a:	2201      	movs	r2, #1
10005e7c:	781b      	ldrb	r3, [r3, #0]
10005e7e:	2101      	movs	r1, #1
10005e80:	4313      	orrs	r3, r2
10005e82:	465a      	mov	r2, fp
10005e84:	7013      	strb	r3, [r2, #0]
10005e86:	2333      	movs	r3, #51	; 0x33
10005e88:	4658      	mov	r0, fp
10005e8a:	5cd2      	ldrb	r2, [r2, r3]
10005e8c:	465e      	mov	r6, fp
10005e8e:	438a      	bics	r2, r1
10005e90:	54c2      	strb	r2, [r0, r3]
10005e92:	5cc2      	ldrb	r2, [r0, r3]
10005e94:	2004      	movs	r0, #4
10005e96:	4382      	bics	r2, r0
10005e98:	54f2      	strb	r2, [r6, r3]
10005e9a:	3301      	adds	r3, #1
10005e9c:	5cf2      	ldrb	r2, [r6, r3]
10005e9e:	438a      	bics	r2, r1
10005ea0:	54f2      	strb	r2, [r6, r3]
10005ea2:	5cf2      	ldrb	r2, [r6, r3]
10005ea4:	4382      	bics	r2, r0
10005ea6:	54f2      	strb	r2, [r6, r3]
10005ea8:	7823      	ldrb	r3, [r4, #0]
10005eaa:	2000      	movs	r0, #0
10005eac:	469a      	mov	sl, r3
10005eae:	f000 fd05 	bl	100068bc <usbd_control_set_complete_callback>
10005eb2:	2260      	movs	r2, #96	; 0x60
10005eb4:	7923      	ldrb	r3, [r4, #4]
10005eb6:	401a      	ands	r2, r3
10005eb8:	2a60      	cmp	r2, #96	; 0x60
10005eba:	d00d      	beq.n	10005ed8 <tud_task_ext+0x124>
10005ebc:	2a40      	cmp	r2, #64	; 0x40
10005ebe:	d100      	bne.n	10005ec2 <tud_task_ext+0x10e>
10005ec0:	e0bf      	b.n	10006042 <tud_task_ext+0x28e>
10005ec2:	06db      	lsls	r3, r3, #27
10005ec4:	0edb      	lsrs	r3, r3, #27
10005ec6:	2b01      	cmp	r3, #1
10005ec8:	d100      	bne.n	10005ecc <tud_task_ext+0x118>
10005eca:	e137      	b.n	1000613c <tud_task_ext+0x388>
10005ecc:	2b02      	cmp	r3, #2
10005ece:	d100      	bne.n	10005ed2 <tud_task_ext+0x11e>
10005ed0:	e0d4      	b.n	1000607c <tud_task_ext+0x2c8>
10005ed2:	2b00      	cmp	r3, #0
10005ed4:	d100      	bne.n	10005ed8 <tud_task_ext+0x124>
10005ed6:	e0c3      	b.n	10006060 <tud_task_ext+0x2ac>
10005ed8:	7820      	ldrb	r0, [r4, #0]
10005eda:	2100      	movs	r1, #0
10005edc:	f7ff fe5c 	bl	10005b98 <dcd_edpt_stall>
10005ee0:	2180      	movs	r1, #128	; 0x80
10005ee2:	7820      	ldrb	r0, [r4, #0]
10005ee4:	f7ff fe58 	bl	10005b98 <dcd_edpt_stall>
10005ee8:	e776      	b.n	10005dd8 <tud_task_ext+0x24>
10005eea:	4e88      	ldr	r6, [pc, #544]	; (1000610c <tud_task_ext+0x358>)
10005eec:	7833      	ldrb	r3, [r6, #0]
10005eee:	07db      	lsls	r3, r3, #31
10005ef0:	d400      	bmi.n	10005ef4 <tud_task_ext+0x140>
10005ef2:	e771      	b.n	10005dd8 <tud_task_ext+0x24>
10005ef4:	4b89      	ldr	r3, [pc, #548]	; (1000611c <tud_task_ext+0x368>)
10005ef6:	2b00      	cmp	r3, #0
10005ef8:	d100      	bne.n	10005efc <tud_task_ext+0x148>
10005efa:	e76d      	b.n	10005dd8 <tud_task_ext+0x24>
10005efc:	e000      	b.n	10005f00 <tud_task_ext+0x14c>
10005efe:	bf00      	nop
10005f00:	e76a      	b.n	10005dd8 <tud_task_ext+0x24>
10005f02:	4e82      	ldr	r6, [pc, #520]	; (1000610c <tud_task_ext+0x358>)
10005f04:	7833      	ldrb	r3, [r6, #0]
10005f06:	07db      	lsls	r3, r3, #31
10005f08:	d400      	bmi.n	10005f0c <tud_task_ext+0x158>
10005f0a:	e765      	b.n	10005dd8 <tud_task_ext+0x24>
10005f0c:	4b84      	ldr	r3, [pc, #528]	; (10006120 <tud_task_ext+0x36c>)
10005f0e:	2b00      	cmp	r3, #0
10005f10:	d100      	bne.n	10005f14 <tud_task_ext+0x160>
10005f12:	e761      	b.n	10005dd8 <tud_task_ext+0x24>
10005f14:	7830      	ldrb	r0, [r6, #0]
10005f16:	0700      	lsls	r0, r0, #28
10005f18:	0fc0      	lsrs	r0, r0, #31
10005f1a:	e000      	b.n	10005f1e <tud_task_ext+0x16a>
10005f1c:	bf00      	nop
10005f1e:	e75b      	b.n	10005dd8 <tud_task_ext+0x24>
10005f20:	4b7c      	ldr	r3, [pc, #496]	; (10006114 <tud_task_ext+0x360>)
10005f22:	4a7b      	ldr	r2, [pc, #492]	; (10006110 <tud_task_ext+0x35c>)
10005f24:	4698      	mov	r8, r3
10005f26:	2600      	movs	r6, #0
10005f28:	7827      	ldrb	r7, [r4, #0]
10005f2a:	781b      	ldrb	r3, [r3, #0]
10005f2c:	2a00      	cmp	r2, #0
10005f2e:	d100      	bne.n	10005f32 <tud_task_ext+0x17e>
10005f30:	e079      	b.n	10006026 <tud_task_ext+0x272>
10005f32:	4a7c      	ldr	r2, [pc, #496]	; (10006124 <tud_task_ext+0x370>)
10005f34:	4692      	mov	sl, r2
10005f36:	429e      	cmp	r6, r3
10005f38:	d35f      	bcc.n	10005ffa <tud_task_ext+0x246>
10005f3a:	d119      	bne.n	10005f70 <tud_task_ext+0x1bc>
10005f3c:	4b7a      	ldr	r3, [pc, #488]	; (10006128 <tud_task_ext+0x374>)
10005f3e:	0038      	movs	r0, r7
10005f40:	4798      	blx	r3
10005f42:	4643      	mov	r3, r8
10005f44:	3601      	adds	r6, #1
10005f46:	781b      	ldrb	r3, [r3, #0]
10005f48:	b2f6      	uxtb	r6, r6
10005f4a:	42b3      	cmp	r3, r6
10005f4c:	d2f3      	bcs.n	10005f36 <tud_task_ext+0x182>
10005f4e:	4e6f      	ldr	r6, [pc, #444]	; (1000610c <tud_task_ext+0x358>)
10005f50:	2253      	movs	r2, #83	; 0x53
10005f52:	2100      	movs	r1, #0
10005f54:	0030      	movs	r0, r6
10005f56:	f7fe ff73 	bl	10004e40 <__wrap_memset>
10005f5a:	2210      	movs	r2, #16
10005f5c:	21ff      	movs	r1, #255	; 0xff
10005f5e:	1cf0      	adds	r0, r6, #3
10005f60:	f7fe ff6e 	bl	10004e40 <__wrap_memset>
10005f64:	0030      	movs	r0, r6
10005f66:	2220      	movs	r2, #32
10005f68:	21ff      	movs	r1, #255	; 0xff
10005f6a:	3013      	adds	r0, #19
10005f6c:	f7fe ff68 	bl	10004e40 <__wrap_memset>
10005f70:	f000 fc9a 	bl	100068a8 <usbd_control_reset>
10005f74:	4b6d      	ldr	r3, [pc, #436]	; (1000612c <tud_task_ext+0x378>)
10005f76:	2b00      	cmp	r3, #0
10005f78:	d100      	bne.n	10005f7c <tud_task_ext+0x1c8>
10005f7a:	e72d      	b.n	10005dd8 <tud_task_ext+0x24>
10005f7c:	e000      	b.n	10005f80 <tud_task_ext+0x1cc>
10005f7e:	bf00      	nop
10005f80:	e72a      	b.n	10005dd8 <tud_task_ext+0x24>
10005f82:	4b64      	ldr	r3, [pc, #400]	; (10006114 <tud_task_ext+0x360>)
10005f84:	4a62      	ldr	r2, [pc, #392]	; (10006110 <tud_task_ext+0x35c>)
10005f86:	4698      	mov	r8, r3
10005f88:	2600      	movs	r6, #0
10005f8a:	7827      	ldrb	r7, [r4, #0]
10005f8c:	781b      	ldrb	r3, [r3, #0]
10005f8e:	2a00      	cmp	r2, #0
10005f90:	d01f      	beq.n	10005fd2 <tud_task_ext+0x21e>
10005f92:	4a64      	ldr	r2, [pc, #400]	; (10006124 <tud_task_ext+0x370>)
10005f94:	4692      	mov	sl, r2
10005f96:	429e      	cmp	r6, r3
10005f98:	d33a      	bcc.n	10006010 <tud_task_ext+0x25c>
10005f9a:	d121      	bne.n	10005fe0 <tud_task_ext+0x22c>
10005f9c:	4b62      	ldr	r3, [pc, #392]	; (10006128 <tud_task_ext+0x374>)
10005f9e:	0038      	movs	r0, r7
10005fa0:	4798      	blx	r3
10005fa2:	4643      	mov	r3, r8
10005fa4:	3601      	adds	r6, #1
10005fa6:	781b      	ldrb	r3, [r3, #0]
10005fa8:	b2f6      	uxtb	r6, r6
10005faa:	42b3      	cmp	r3, r6
10005fac:	d2f3      	bcs.n	10005f96 <tud_task_ext+0x1e2>
10005fae:	4e57      	ldr	r6, [pc, #348]	; (1000610c <tud_task_ext+0x358>)
10005fb0:	2253      	movs	r2, #83	; 0x53
10005fb2:	2100      	movs	r1, #0
10005fb4:	0030      	movs	r0, r6
10005fb6:	f7fe ff43 	bl	10004e40 <__wrap_memset>
10005fba:	2210      	movs	r2, #16
10005fbc:	21ff      	movs	r1, #255	; 0xff
10005fbe:	1cf0      	adds	r0, r6, #3
10005fc0:	f7fe ff3e 	bl	10004e40 <__wrap_memset>
10005fc4:	0030      	movs	r0, r6
10005fc6:	2220      	movs	r2, #32
10005fc8:	21ff      	movs	r1, #255	; 0xff
10005fca:	3013      	adds	r0, #19
10005fcc:	f7fe ff38 	bl	10004e40 <__wrap_memset>
10005fd0:	e007      	b.n	10005fe2 <tud_task_ext+0x22e>
10005fd2:	0038      	movs	r0, r7
10005fd4:	f000 fe00 	bl	10006bd8 <cdcd_reset>
10005fd8:	4643      	mov	r3, r8
10005fda:	781b      	ldrb	r3, [r3, #0]
10005fdc:	2b00      	cmp	r3, #0
10005fde:	d0e6      	beq.n	10005fae <tud_task_ext+0x1fa>
10005fe0:	4e4a      	ldr	r6, [pc, #296]	; (1000610c <tud_task_ext+0x358>)
10005fe2:	f000 fc61 	bl	100068a8 <usbd_control_reset>
10005fe6:	7923      	ldrb	r3, [r4, #4]
10005fe8:	70b3      	strb	r3, [r6, #2]
10005fea:	e6f5      	b.n	10005dd8 <tud_task_ext+0x24>
10005fec:	b00b      	add	sp, #44	; 0x2c
10005fee:	bcf0      	pop	{r4, r5, r6, r7}
10005ff0:	46bb      	mov	fp, r7
10005ff2:	46b2      	mov	sl, r6
10005ff4:	46a9      	mov	r9, r5
10005ff6:	46a0      	mov	r8, r4
10005ff8:	bdf0      	pop	{r4, r5, r6, r7, pc}
10005ffa:	4652      	mov	r2, sl
10005ffc:	6812      	ldr	r2, [r2, #0]
10005ffe:	0073      	lsls	r3, r6, #1
10006000:	4694      	mov	ip, r2
10006002:	199b      	adds	r3, r3, r6
10006004:	00db      	lsls	r3, r3, #3
10006006:	4463      	add	r3, ip
10006008:	2b00      	cmp	r3, #0
1000600a:	d0b1      	beq.n	10005f70 <tud_task_ext+0x1bc>
1000600c:	685b      	ldr	r3, [r3, #4]
1000600e:	e796      	b.n	10005f3e <tud_task_ext+0x18a>
10006010:	4652      	mov	r2, sl
10006012:	6812      	ldr	r2, [r2, #0]
10006014:	0073      	lsls	r3, r6, #1
10006016:	4694      	mov	ip, r2
10006018:	199b      	adds	r3, r3, r6
1000601a:	00db      	lsls	r3, r3, #3
1000601c:	4463      	add	r3, ip
1000601e:	2b00      	cmp	r3, #0
10006020:	d0de      	beq.n	10005fe0 <tud_task_ext+0x22c>
10006022:	685b      	ldr	r3, [r3, #4]
10006024:	e7bb      	b.n	10005f9e <tud_task_ext+0x1ea>
10006026:	0038      	movs	r0, r7
10006028:	f000 fdd6 	bl	10006bd8 <cdcd_reset>
1000602c:	4643      	mov	r3, r8
1000602e:	781b      	ldrb	r3, [r3, #0]
10006030:	2b00      	cmp	r3, #0
10006032:	d19d      	bne.n	10005f70 <tud_task_ext+0x1bc>
10006034:	e78b      	b.n	10005f4e <tud_task_ext+0x19a>
10006036:	7962      	ldrb	r2, [r4, #5]
10006038:	7820      	ldrb	r0, [r4, #0]
1000603a:	68a3      	ldr	r3, [r4, #8]
1000603c:	f000 fc52 	bl	100068e4 <usbd_control_xfer_cb>
10006040:	e6ca      	b.n	10005dd8 <tud_task_ext+0x24>
10006042:	483b      	ldr	r0, [pc, #236]	; (10006130 <tud_task_ext+0x37c>)
10006044:	2800      	cmp	r0, #0
10006046:	d100      	bne.n	1000604a <tud_task_ext+0x296>
10006048:	e746      	b.n	10005ed8 <tud_task_ext+0x124>
1000604a:	f000 fc37 	bl	100068bc <usbd_control_set_complete_callback>
1000604e:	2101      	movs	r1, #1
10006050:	4650      	mov	r0, sl
10006052:	aa08      	add	r2, sp, #32
10006054:	e000      	b.n	10006058 <tud_task_ext+0x2a4>
10006056:	bf00      	nop
10006058:	2800      	cmp	r0, #0
1000605a:	d000      	beq.n	1000605e <tud_task_ext+0x2aa>
1000605c:	e6bc      	b.n	10005dd8 <tud_task_ext+0x24>
1000605e:	e73b      	b.n	10005ed8 <tud_task_ext+0x124>
10006060:	2a20      	cmp	r2, #32
10006062:	d100      	bne.n	10006066 <tud_task_ext+0x2b2>
10006064:	e09f      	b.n	100061a6 <tud_task_ext+0x3f2>
10006066:	2a00      	cmp	r2, #0
10006068:	d000      	beq.n	1000606c <tud_task_ext+0x2b8>
1000606a:	e735      	b.n	10005ed8 <tud_task_ext+0x124>
1000606c:	7963      	ldrb	r3, [r4, #5]
1000606e:	2b09      	cmp	r3, #9
10006070:	d900      	bls.n	10006074 <tud_task_ext+0x2c0>
10006072:	e731      	b.n	10005ed8 <tud_task_ext+0x124>
10006074:	4a2f      	ldr	r2, [pc, #188]	; (10006134 <tud_task_ext+0x380>)
10006076:	009b      	lsls	r3, r3, #2
10006078:	58d3      	ldr	r3, [r2, r3]
1000607a:	469f      	mov	pc, r3
1000607c:	2370      	movs	r3, #112	; 0x70
1000607e:	7a21      	ldrb	r1, [r4, #8]
10006080:	420b      	tst	r3, r1
10006082:	d000      	beq.n	10006086 <tud_task_ext+0x2d2>
10006084:	e728      	b.n	10005ed8 <tud_task_ext+0x124>
10006086:	4658      	mov	r0, fp
10006088:	330f      	adds	r3, #15
1000608a:	400b      	ands	r3, r1
1000608c:	005b      	lsls	r3, r3, #1
1000608e:	09ce      	lsrs	r6, r1, #7
10006090:	18c0      	adds	r0, r0, r3
10006092:	4f1f      	ldr	r7, [pc, #124]	; (10006110 <tud_task_ext+0x35c>)
10006094:	1980      	adds	r0, r0, r6
10006096:	7cc0      	ldrb	r0, [r0, #19]
10006098:	2f00      	cmp	r7, #0
1000609a:	d006      	beq.n	100060aa <tud_task_ext+0x2f6>
1000609c:	4f1d      	ldr	r7, [pc, #116]	; (10006114 <tud_task_ext+0x360>)
1000609e:	783f      	ldrb	r7, [r7, #0]
100060a0:	42b8      	cmp	r0, r7
100060a2:	d200      	bcs.n	100060a6 <tud_task_ext+0x2f2>
100060a4:	e0a1      	b.n	100061ea <tud_task_ext+0x436>
100060a6:	1bc0      	subs	r0, r0, r7
100060a8:	b2c0      	uxtb	r0, r0
100060aa:	2800      	cmp	r0, #0
100060ac:	d000      	beq.n	100060b0 <tud_task_ext+0x2fc>
100060ae:	e097      	b.n	100061e0 <tud_task_ext+0x42c>
100060b0:	2a00      	cmp	r2, #0
100060b2:	d000      	beq.n	100060b6 <tud_task_ext+0x302>
100060b4:	e148      	b.n	10006348 <tud_task_ext+0x594>
100060b6:	4f20      	ldr	r7, [pc, #128]	; (10006138 <tud_task_ext+0x384>)
100060b8:	2002      	movs	r0, #2
100060ba:	7962      	ldrb	r2, [r4, #5]
100060bc:	4690      	mov	r8, r2
100060be:	4382      	bics	r2, r0
100060c0:	2a01      	cmp	r2, #1
100060c2:	d100      	bne.n	100060c6 <tud_task_ext+0x312>
100060c4:	e143      	b.n	1000634e <tud_task_ext+0x59a>
100060c6:	4642      	mov	r2, r8
100060c8:	2a00      	cmp	r2, #0
100060ca:	d000      	beq.n	100060ce <tud_task_ext+0x31a>
100060cc:	e704      	b.n	10005ed8 <tud_task_ext+0x124>
100060ce:	445b      	add	r3, fp
100060d0:	199e      	adds	r6, r3, r6
100060d2:	3630      	adds	r6, #48	; 0x30
100060d4:	78f3      	ldrb	r3, [r6, #3]
100060d6:	aa06      	add	r2, sp, #24
100060d8:	079b      	lsls	r3, r3, #30
100060da:	0fdb      	lsrs	r3, r3, #31
100060dc:	3202      	adds	r2, #2
100060de:	8013      	strh	r3, [r2, #0]
100060e0:	4650      	mov	r0, sl
100060e2:	2302      	movs	r3, #2
100060e4:	a908      	add	r1, sp, #32
100060e6:	f000 fb81 	bl	100067ec <tud_control_xfer>
100060ea:	e675      	b.n	10005dd8 <tud_task_ext+0x24>
100060ec:	005a      	lsls	r2, r3, #1
100060ee:	18d3      	adds	r3, r2, r3
100060f0:	4a0c      	ldr	r2, [pc, #48]	; (10006124 <tud_task_ext+0x370>)
100060f2:	00db      	lsls	r3, r3, #3
100060f4:	6812      	ldr	r2, [r2, #0]
100060f6:	18d3      	adds	r3, r2, r3
100060f8:	2b00      	cmp	r3, #0
100060fa:	d100      	bne.n	100060fe <tud_task_ext+0x34a>
100060fc:	e776      	b.n	10005fec <tud_task_ext+0x238>
100060fe:	691e      	ldr	r6, [r3, #16]
10006100:	e6b5      	b.n	10005e6e <tud_task_ext+0xba>
10006102:	46c0      	nop			; (mov r8, r8)
10006104:	10008188 	.word	0x10008188
10006108:	20001a0c 	.word	0x20001a0c
1000610c:	200019b4 	.word	0x200019b4
10006110:	10005319 	.word	0x10005319
10006114:	20002111 	.word	0x20002111
10006118:	10006dd1 	.word	0x10006dd1
	...
10006124:	2000168c 	.word	0x2000168c
10006128:	10006bd9 	.word	0x10006bd9
	...
10006134:	100081ac 	.word	0x100081ac
10006138:	10008214 	.word	0x10008214
1000613c:	7a23      	ldrb	r3, [r4, #8]
1000613e:	2b0f      	cmp	r3, #15
10006140:	d900      	bls.n	10006144 <tud_task_ext+0x390>
10006142:	e6c9      	b.n	10005ed8 <tud_task_ext+0x124>
10006144:	4aaa      	ldr	r2, [pc, #680]	; (100063f0 <tud_task_ext+0x63c>)
10006146:	445b      	add	r3, fp
10006148:	78db      	ldrb	r3, [r3, #3]
1000614a:	2a00      	cmp	r2, #0
1000614c:	d005      	beq.n	1000615a <tud_task_ext+0x3a6>
1000614e:	4aa9      	ldr	r2, [pc, #676]	; (100063f4 <tud_task_ext+0x640>)
10006150:	7812      	ldrb	r2, [r2, #0]
10006152:	4293      	cmp	r3, r2
10006154:	d35e      	bcc.n	10006214 <tud_task_ext+0x460>
10006156:	1a9b      	subs	r3, r3, r2
10006158:	b2db      	uxtb	r3, r3
1000615a:	2b00      	cmp	r3, #0
1000615c:	d000      	beq.n	10006160 <tud_task_ext+0x3ac>
1000615e:	e6bb      	b.n	10005ed8 <tud_task_ext+0x124>
10006160:	48a5      	ldr	r0, [pc, #660]	; (100063f8 <tud_task_ext+0x644>)
10006162:	4ea6      	ldr	r6, [pc, #664]	; (100063fc <tud_task_ext+0x648>)
10006164:	f000 fbaa 	bl	100068bc <usbd_control_set_complete_callback>
10006168:	2101      	movs	r1, #1
1000616a:	4650      	mov	r0, sl
1000616c:	68f3      	ldr	r3, [r6, #12]
1000616e:	aa08      	add	r2, sp, #32
10006170:	4798      	blx	r3
10006172:	2800      	cmp	r0, #0
10006174:	d000      	beq.n	10006178 <tud_task_ext+0x3c4>
10006176:	e62f      	b.n	10005dd8 <tud_task_ext+0x24>
10006178:	2260      	movs	r2, #96	; 0x60
1000617a:	0016      	movs	r6, r2
1000617c:	7923      	ldrb	r3, [r4, #4]
1000617e:	401e      	ands	r6, r3
10006180:	421a      	tst	r2, r3
10006182:	d000      	beq.n	10006186 <tud_task_ext+0x3d2>
10006184:	e6a8      	b.n	10005ed8 <tud_task_ext+0x124>
10006186:	7963      	ldrb	r3, [r4, #5]
10006188:	3b0a      	subs	r3, #10
1000618a:	2b01      	cmp	r3, #1
1000618c:	d900      	bls.n	10006190 <tud_task_ext+0x3dc>
1000618e:	e6a3      	b.n	10005ed8 <tud_task_ext+0x124>
10006190:	f000 fb94 	bl	100068bc <usbd_control_set_complete_callback>
10006194:	7963      	ldrb	r3, [r4, #5]
10006196:	2b0a      	cmp	r3, #10
10006198:	d100      	bne.n	1000619c <tud_task_ext+0x3e8>
1000619a:	e120      	b.n	100063de <tud_task_ext+0x62a>
1000619c:	4650      	mov	r0, sl
1000619e:	a908      	add	r1, sp, #32
100061a0:	f000 fb0c 	bl	100067bc <tud_control_status>
100061a4:	e618      	b.n	10005dd8 <tud_task_ext+0x24>
100061a6:	7a23      	ldrb	r3, [r4, #8]
100061a8:	2b0f      	cmp	r3, #15
100061aa:	d900      	bls.n	100061ae <tud_task_ext+0x3fa>
100061ac:	e694      	b.n	10005ed8 <tud_task_ext+0x124>
100061ae:	4a90      	ldr	r2, [pc, #576]	; (100063f0 <tud_task_ext+0x63c>)
100061b0:	445b      	add	r3, fp
100061b2:	78db      	ldrb	r3, [r3, #3]
100061b4:	2a00      	cmp	r2, #0
100061b6:	d006      	beq.n	100061c6 <tud_task_ext+0x412>
100061b8:	4a8e      	ldr	r2, [pc, #568]	; (100063f4 <tud_task_ext+0x640>)
100061ba:	7812      	ldrb	r2, [r2, #0]
100061bc:	4293      	cmp	r3, r2
100061be:	d200      	bcs.n	100061c2 <tud_task_ext+0x40e>
100061c0:	e0e6      	b.n	10006390 <tud_task_ext+0x5dc>
100061c2:	1a9b      	subs	r3, r3, r2
100061c4:	b2db      	uxtb	r3, r3
100061c6:	2b00      	cmp	r3, #0
100061c8:	d000      	beq.n	100061cc <tud_task_ext+0x418>
100061ca:	e685      	b.n	10005ed8 <tud_task_ext+0x124>
100061cc:	488a      	ldr	r0, [pc, #552]	; (100063f8 <tud_task_ext+0x644>)
100061ce:	4e8b      	ldr	r6, [pc, #556]	; (100063fc <tud_task_ext+0x648>)
100061d0:	f000 fb74 	bl	100068bc <usbd_control_set_complete_callback>
100061d4:	2101      	movs	r1, #1
100061d6:	4650      	mov	r0, sl
100061d8:	68f3      	ldr	r3, [r6, #12]
100061da:	aa08      	add	r2, sp, #32
100061dc:	4798      	blx	r3
100061de:	e73b      	b.n	10006058 <tud_task_ext+0x2a4>
100061e0:	2700      	movs	r7, #0
100061e2:	2a00      	cmp	r2, #0
100061e4:	d100      	bne.n	100061e8 <tud_task_ext+0x434>
100061e6:	e767      	b.n	100060b8 <tud_task_ext+0x304>
100061e8:	e676      	b.n	10005ed8 <tud_task_ext+0x124>
100061ea:	0047      	lsls	r7, r0, #1
100061ec:	1838      	adds	r0, r7, r0
100061ee:	4f84      	ldr	r7, [pc, #528]	; (10006400 <tud_task_ext+0x64c>)
100061f0:	00c0      	lsls	r0, r0, #3
100061f2:	683f      	ldr	r7, [r7, #0]
100061f4:	183f      	adds	r7, r7, r0
100061f6:	2a00      	cmp	r2, #0
100061f8:	d100      	bne.n	100061fc <tud_task_ext+0x448>
100061fa:	e75d      	b.n	100060b8 <tud_task_ext+0x304>
100061fc:	2f00      	cmp	r7, #0
100061fe:	d100      	bne.n	10006202 <tud_task_ext+0x44e>
10006200:	e66a      	b.n	10005ed8 <tud_task_ext+0x124>
10006202:	68f8      	ldr	r0, [r7, #12]
10006204:	f000 fb5a 	bl	100068bc <usbd_control_set_complete_callback>
10006208:	2101      	movs	r1, #1
1000620a:	4650      	mov	r0, sl
1000620c:	68fb      	ldr	r3, [r7, #12]
1000620e:	aa08      	add	r2, sp, #32
10006210:	4798      	blx	r3
10006212:	e721      	b.n	10006058 <tud_task_ext+0x2a4>
10006214:	4a7a      	ldr	r2, [pc, #488]	; (10006400 <tud_task_ext+0x64c>)
10006216:	005e      	lsls	r6, r3, #1
10006218:	18f3      	adds	r3, r6, r3
1000621a:	6816      	ldr	r6, [r2, #0]
1000621c:	00db      	lsls	r3, r3, #3
1000621e:	18f6      	adds	r6, r6, r3
10006220:	2e00      	cmp	r6, #0
10006222:	d100      	bne.n	10006226 <tud_task_ext+0x472>
10006224:	e658      	b.n	10005ed8 <tud_task_ext+0x124>
10006226:	68f0      	ldr	r0, [r6, #12]
10006228:	e79c      	b.n	10006164 <tud_task_ext+0x3b0>
1000622a:	79a2      	ldrb	r2, [r4, #6]
1000622c:	9201      	str	r2, [sp, #4]
1000622e:	7873      	ldrb	r3, [r6, #1]
10006230:	429a      	cmp	r2, r3
10006232:	d007      	beq.n	10006244 <tud_task_ext+0x490>
10006234:	7873      	ldrb	r3, [r6, #1]
10006236:	2b00      	cmp	r3, #0
10006238:	d000      	beq.n	1000623c <tud_task_ext+0x488>
1000623a:	e145      	b.n	100064c8 <tud_task_ext+0x714>
1000623c:	9b01      	ldr	r3, [sp, #4]
1000623e:	2b00      	cmp	r3, #0
10006240:	d000      	beq.n	10006244 <tud_task_ext+0x490>
10006242:	e0e9      	b.n	10006418 <tud_task_ext+0x664>
10006244:	465b      	mov	r3, fp
10006246:	9a01      	ldr	r2, [sp, #4]
10006248:	4650      	mov	r0, sl
1000624a:	a908      	add	r1, sp, #32
1000624c:	705a      	strb	r2, [r3, #1]
1000624e:	f000 fab5 	bl	100067bc <tud_control_status>
10006252:	e5c1      	b.n	10005dd8 <tud_task_ext+0x24>
10006254:	7873      	ldrb	r3, [r6, #1]
10006256:	aa06      	add	r2, sp, #24
10006258:	3202      	adds	r2, #2
1000625a:	7013      	strb	r3, [r2, #0]
1000625c:	4650      	mov	r0, sl
1000625e:	2301      	movs	r3, #1
10006260:	a908      	add	r1, sp, #32
10006262:	f000 fac3 	bl	100067ec <tud_control_xfer>
10006266:	e5b7      	b.n	10005dd8 <tud_task_ext+0x24>
10006268:	88e0      	ldrh	r0, [r4, #6]
1000626a:	0a03      	lsrs	r3, r0, #8
1000626c:	b2c0      	uxtb	r0, r0
1000626e:	2b0f      	cmp	r3, #15
10006270:	d900      	bls.n	10006274 <tud_task_ext+0x4c0>
10006272:	e631      	b.n	10005ed8 <tud_task_ext+0x124>
10006274:	4963      	ldr	r1, [pc, #396]	; (10006404 <tud_task_ext+0x650>)
10006276:	009a      	lsls	r2, r3, #2
10006278:	588a      	ldr	r2, [r1, r2]
1000627a:	4697      	mov	pc, r2
1000627c:	a808      	add	r0, sp, #32
1000627e:	f000 fb23 	bl	100068c8 <usbd_control_set_request>
10006282:	4650      	mov	r0, sl
10006284:	79a1      	ldrb	r1, [r4, #6]
10006286:	f7ff fb81 	bl	1000598c <dcd_set_address>
1000628a:	2202      	movs	r2, #2
1000628c:	7833      	ldrb	r3, [r6, #0]
1000628e:	4313      	orrs	r3, r2
10006290:	7033      	strb	r3, [r6, #0]
10006292:	e5a1      	b.n	10005dd8 <tud_task_ext+0x24>
10006294:	88e3      	ldrh	r3, [r4, #6]
10006296:	2b01      	cmp	r3, #1
10006298:	d000      	beq.n	1000629c <tud_task_ext+0x4e8>
1000629a:	e61d      	b.n	10005ed8 <tud_task_ext+0x124>
1000629c:	2208      	movs	r2, #8
1000629e:	7833      	ldrb	r3, [r6, #0]
100062a0:	4393      	bics	r3, r2
100062a2:	465a      	mov	r2, fp
100062a4:	7013      	strb	r3, [r2, #0]
100062a6:	e779      	b.n	1000619c <tud_task_ext+0x3e8>
100062a8:	2002      	movs	r0, #2
100062aa:	7831      	ldrb	r1, [r6, #0]
100062ac:	ab06      	add	r3, sp, #24
100062ae:	1c9a      	adds	r2, r3, #2
100062b0:	068b      	lsls	r3, r1, #26
100062b2:	0889      	lsrs	r1, r1, #2
100062b4:	0fdb      	lsrs	r3, r3, #31
100062b6:	4001      	ands	r1, r0
100062b8:	430b      	orrs	r3, r1
100062ba:	e710      	b.n	100060de <tud_task_ext+0x32a>
100062bc:	88e3      	ldrh	r3, [r4, #6]
100062be:	2b01      	cmp	r3, #1
100062c0:	d000      	beq.n	100062c4 <tud_task_ext+0x510>
100062c2:	e609      	b.n	10005ed8 <tud_task_ext+0x124>
100062c4:	2208      	movs	r2, #8
100062c6:	7833      	ldrb	r3, [r6, #0]
100062c8:	4313      	orrs	r3, r2
100062ca:	e7ea      	b.n	100062a2 <tud_task_ext+0x4ee>
100062cc:	4b4e      	ldr	r3, [pc, #312]	; (10006408 <tud_task_ext+0x654>)
100062ce:	2b00      	cmp	r3, #0
100062d0:	d100      	bne.n	100062d4 <tud_task_ext+0x520>
100062d2:	e601      	b.n	10005ed8 <tud_task_ext+0x124>
100062d4:	e000      	b.n	100062d8 <tud_task_ext+0x524>
100062d6:	bf00      	nop
100062d8:	1e02      	subs	r2, r0, #0
100062da:	d100      	bne.n	100062de <tud_task_ext+0x52a>
100062dc:	e5fc      	b.n	10005ed8 <tud_task_ext+0x124>
100062de:	78d3      	ldrb	r3, [r2, #3]
100062e0:	7891      	ldrb	r1, [r2, #2]
100062e2:	021b      	lsls	r3, r3, #8
100062e4:	430b      	orrs	r3, r1
100062e6:	4650      	mov	r0, sl
100062e8:	a908      	add	r1, sp, #32
100062ea:	f000 fa7f 	bl	100067ec <tud_control_xfer>
100062ee:	e6b3      	b.n	10006058 <tud_task_ext+0x2a4>
100062f0:	4b46      	ldr	r3, [pc, #280]	; (1000640c <tud_task_ext+0x658>)
100062f2:	2b00      	cmp	r3, #0
100062f4:	d100      	bne.n	100062f8 <tud_task_ext+0x544>
100062f6:	e5ef      	b.n	10005ed8 <tud_task_ext+0x124>
100062f8:	e000      	b.n	100062fc <tud_task_ext+0x548>
100062fa:	bf00      	nop
100062fc:	1e02      	subs	r2, r0, #0
100062fe:	d100      	bne.n	10006302 <tud_task_ext+0x54e>
10006300:	e5ea      	b.n	10005ed8 <tud_task_ext+0x124>
10006302:	4650      	mov	r0, sl
10006304:	7813      	ldrb	r3, [r2, #0]
10006306:	a908      	add	r1, sp, #32
10006308:	f000 fa70 	bl	100067ec <tud_control_xfer>
1000630c:	e6a4      	b.n	10006058 <tud_task_ext+0x2a4>
1000630e:	8921      	ldrh	r1, [r4, #8]
10006310:	f7ff fa00 	bl	10005714 <tud_descriptor_string_cb>
10006314:	1e02      	subs	r2, r0, #0
10006316:	d1f4      	bne.n	10006302 <tud_task_ext+0x54e>
10006318:	e5de      	b.n	10005ed8 <tud_task_ext+0x124>
1000631a:	2b02      	cmp	r3, #2
1000631c:	d100      	bne.n	10006320 <tud_task_ext+0x56c>
1000631e:	e111      	b.n	10006544 <tud_task_ext+0x790>
10006320:	4b3b      	ldr	r3, [pc, #236]	; (10006410 <tud_task_ext+0x65c>)
10006322:	2b00      	cmp	r3, #0
10006324:	d100      	bne.n	10006328 <tud_task_ext+0x574>
10006326:	e5d7      	b.n	10005ed8 <tud_task_ext+0x124>
10006328:	e000      	b.n	1000632c <tud_task_ext+0x578>
1000632a:	bf00      	nop
1000632c:	0002      	movs	r2, r0
1000632e:	2a00      	cmp	r2, #0
10006330:	d100      	bne.n	10006334 <tud_task_ext+0x580>
10006332:	e5d1      	b.n	10005ed8 <tud_task_ext+0x124>
10006334:	e7d3      	b.n	100062de <tud_task_ext+0x52a>
10006336:	f7ff f9e5 	bl	10005704 <tud_descriptor_device_cb>
1000633a:	2312      	movs	r3, #18
1000633c:	0002      	movs	r2, r0
1000633e:	a908      	add	r1, sp, #32
10006340:	4650      	mov	r0, sl
10006342:	f000 fa53 	bl	100067ec <tud_control_xfer>
10006346:	e687      	b.n	10006058 <tud_task_ext+0x2a4>
10006348:	482b      	ldr	r0, [pc, #172]	; (100063f8 <tud_task_ext+0x644>)
1000634a:	4f2c      	ldr	r7, [pc, #176]	; (100063fc <tud_task_ext+0x648>)
1000634c:	e75a      	b.n	10006204 <tud_task_ext+0x450>
1000634e:	88e2      	ldrh	r2, [r4, #6]
10006350:	2a00      	cmp	r2, #0
10006352:	d108      	bne.n	10006366 <tud_task_ext+0x5b2>
10006354:	4642      	mov	r2, r8
10006356:	445b      	add	r3, fp
10006358:	199e      	adds	r6, r3, r6
1000635a:	3630      	adds	r6, #48	; 0x30
1000635c:	78f3      	ldrb	r3, [r6, #3]
1000635e:	2a01      	cmp	r2, #1
10006360:	d021      	beq.n	100063a6 <tud_task_ext+0x5f2>
10006362:	079b      	lsls	r3, r3, #30
10006364:	d52e      	bpl.n	100063c4 <tud_task_ext+0x610>
10006366:	2f00      	cmp	r7, #0
10006368:	d100      	bne.n	1000636c <tud_task_ext+0x5b8>
1000636a:	e535      	b.n	10005dd8 <tud_task_ext+0x24>
1000636c:	68f8      	ldr	r0, [r7, #12]
1000636e:	f000 faa5 	bl	100068bc <usbd_control_set_complete_callback>
10006372:	68fb      	ldr	r3, [r7, #12]
10006374:	aa08      	add	r2, sp, #32
10006376:	2101      	movs	r1, #1
10006378:	4650      	mov	r0, sl
1000637a:	4798      	blx	r3
1000637c:	2000      	movs	r0, #0
1000637e:	f000 fa9d 	bl	100068bc <usbd_control_set_complete_callback>
10006382:	2334      	movs	r3, #52	; 0x34
10006384:	465a      	mov	r2, fp
10006386:	5cd3      	ldrb	r3, [r2, r3]
10006388:	07db      	lsls	r3, r3, #31
1000638a:	d500      	bpl.n	1000638e <tud_task_ext+0x5da>
1000638c:	e524      	b.n	10005dd8 <tud_task_ext+0x24>
1000638e:	e705      	b.n	1000619c <tud_task_ext+0x3e8>
10006390:	4a1b      	ldr	r2, [pc, #108]	; (10006400 <tud_task_ext+0x64c>)
10006392:	005e      	lsls	r6, r3, #1
10006394:	18f3      	adds	r3, r6, r3
10006396:	6816      	ldr	r6, [r2, #0]
10006398:	00db      	lsls	r3, r3, #3
1000639a:	18f6      	adds	r6, r6, r3
1000639c:	2e00      	cmp	r6, #0
1000639e:	d100      	bne.n	100063a2 <tud_task_ext+0x5ee>
100063a0:	e59a      	b.n	10005ed8 <tud_task_ext+0x124>
100063a2:	68f0      	ldr	r0, [r6, #12]
100063a4:	e714      	b.n	100061d0 <tud_task_ext+0x41c>
100063a6:	079b      	lsls	r3, r3, #30
100063a8:	d5dd      	bpl.n	10006366 <tud_task_ext+0x5b2>
100063aa:	4b1a      	ldr	r3, [pc, #104]	; (10006414 <tud_task_ext+0x660>)
100063ac:	7818      	ldrb	r0, [r3, #0]
100063ae:	f7ff fc0f 	bl	10005bd0 <dcd_edpt_clear_stall>
100063b2:	2202      	movs	r2, #2
100063b4:	78f3      	ldrb	r3, [r6, #3]
100063b6:	4393      	bics	r3, r2
100063b8:	4642      	mov	r2, r8
100063ba:	70f3      	strb	r3, [r6, #3]
100063bc:	78f3      	ldrb	r3, [r6, #3]
100063be:	4393      	bics	r3, r2
100063c0:	70f3      	strb	r3, [r6, #3]
100063c2:	e7d0      	b.n	10006366 <tud_task_ext+0x5b2>
100063c4:	4b13      	ldr	r3, [pc, #76]	; (10006414 <tud_task_ext+0x660>)
100063c6:	7818      	ldrb	r0, [r3, #0]
100063c8:	f7ff fbe6 	bl	10005b98 <dcd_edpt_stall>
100063cc:	2202      	movs	r2, #2
100063ce:	78f3      	ldrb	r3, [r6, #3]
100063d0:	4313      	orrs	r3, r2
100063d2:	2201      	movs	r2, #1
100063d4:	70f3      	strb	r3, [r6, #3]
100063d6:	78f3      	ldrb	r3, [r6, #3]
100063d8:	4313      	orrs	r3, r2
100063da:	70f3      	strb	r3, [r6, #3]
100063dc:	e7c3      	b.n	10006366 <tud_task_ext+0x5b2>
100063de:	ab06      	add	r3, sp, #24
100063e0:	1c9a      	adds	r2, r3, #2
100063e2:	4650      	mov	r0, sl
100063e4:	2301      	movs	r3, #1
100063e6:	a908      	add	r1, sp, #32
100063e8:	7016      	strb	r6, [r2, #0]
100063ea:	f000 f9ff 	bl	100067ec <tud_control_xfer>
100063ee:	e4f3      	b.n	10005dd8 <tud_task_ext+0x24>
100063f0:	10005319 	.word	0x10005319
100063f4:	20002111 	.word	0x20002111
100063f8:	10006ced 	.word	0x10006ced
100063fc:	10008214 	.word	0x10008214
10006400:	2000168c 	.word	0x2000168c
10006404:	100081d4 	.word	0x100081d4
	...
10006414:	20000f0c 	.word	0x20000f0c
10006418:	1e58      	subs	r0, r3, #1
1000641a:	b2c0      	uxtb	r0, r0
1000641c:	f7ff f976 	bl	1000570c <tud_descriptor_configuration_cb>
10006420:	2800      	cmp	r0, #0
10006422:	d100      	bne.n	10006426 <tud_task_ext+0x672>
10006424:	e558      	b.n	10005ed8 <tud_task_ext+0x124>
10006426:	7843      	ldrb	r3, [r0, #1]
10006428:	9305      	str	r3, [sp, #20]
1000642a:	2b02      	cmp	r3, #2
1000642c:	d000      	beq.n	10006430 <tud_task_ext+0x67c>
1000642e:	e553      	b.n	10005ed8 <tud_task_ext+0x124>
10006430:	2101      	movs	r1, #1
10006432:	79c2      	ldrb	r2, [r0, #7]
10006434:	0007      	movs	r7, r0
10006436:	1193      	asrs	r3, r2, #6
10006438:	1152      	asrs	r2, r2, #5
1000643a:	400b      	ands	r3, r1
1000643c:	400a      	ands	r2, r1
1000643e:	0112      	lsls	r2, r2, #4
10006440:	015b      	lsls	r3, r3, #5
10006442:	4313      	orrs	r3, r2
10006444:	465a      	mov	r2, fp
10006446:	7812      	ldrb	r2, [r2, #0]
10006448:	312f      	adds	r1, #47	; 0x2f
1000644a:	438a      	bics	r2, r1
1000644c:	4313      	orrs	r3, r2
1000644e:	465a      	mov	r2, fp
10006450:	7013      	strb	r3, [r2, #0]
10006452:	78c3      	ldrb	r3, [r0, #3]
10006454:	7882      	ldrb	r2, [r0, #2]
10006456:	021b      	lsls	r3, r3, #8
10006458:	4313      	orrs	r3, r2
1000645a:	18c3      	adds	r3, r0, r3
1000645c:	3709      	adds	r7, #9
1000645e:	9303      	str	r3, [sp, #12]
10006460:	9b03      	ldr	r3, [sp, #12]
10006462:	42bb      	cmp	r3, r7
10006464:	d800      	bhi.n	10006468 <tud_task_ext+0x6b4>
10006466:	e0ac      	b.n	100065c2 <tud_task_ext+0x80e>
10006468:	2201      	movs	r2, #1
1000646a:	787b      	ldrb	r3, [r7, #1]
1000646c:	9200      	str	r2, [sp, #0]
1000646e:	2b0b      	cmp	r3, #11
10006470:	d103      	bne.n	1000647a <tud_task_ext+0x6c6>
10006472:	78fb      	ldrb	r3, [r7, #3]
10006474:	9300      	str	r3, [sp, #0]
10006476:	783b      	ldrb	r3, [r7, #0]
10006478:	18ff      	adds	r7, r7, r3
1000647a:	787b      	ldrb	r3, [r7, #1]
1000647c:	2b04      	cmp	r3, #4
1000647e:	d000      	beq.n	10006482 <tud_task_ext+0x6ce>
10006480:	e52a      	b.n	10005ed8 <tud_task_ext+0x124>
10006482:	2600      	movs	r6, #0
10006484:	9b03      	ldr	r3, [sp, #12]
10006486:	4a58      	ldr	r2, [pc, #352]	; (100065e8 <tud_task_ext+0x834>)
10006488:	1bdb      	subs	r3, r3, r7
1000648a:	b29b      	uxth	r3, r3
1000648c:	9302      	str	r3, [sp, #8]
1000648e:	4b57      	ldr	r3, [pc, #348]	; (100065ec <tud_task_ext+0x838>)
10006490:	9304      	str	r3, [sp, #16]
10006492:	781b      	ldrb	r3, [r3, #0]
10006494:	42b2      	cmp	r2, r6
10006496:	d063      	beq.n	10006560 <tud_task_ext+0x7ac>
10006498:	46b8      	mov	r8, r7
1000649a:	42b3      	cmp	r3, r6
1000649c:	d856      	bhi.n	1000654c <tud_task_ext+0x798>
1000649e:	d000      	beq.n	100064a2 <tud_task_ext+0x6ee>
100064a0:	e51a      	b.n	10005ed8 <tud_task_ext+0x124>
100064a2:	4b53      	ldr	r3, [pc, #332]	; (100065f0 <tud_task_ext+0x83c>)
100064a4:	4f53      	ldr	r7, [pc, #332]	; (100065f4 <tud_task_ext+0x840>)
100064a6:	4641      	mov	r1, r8
100064a8:	4650      	mov	r0, sl
100064aa:	9a02      	ldr	r2, [sp, #8]
100064ac:	4798      	blx	r3
100064ae:	2808      	cmp	r0, #8
100064b0:	d903      	bls.n	100064ba <tud_task_ext+0x706>
100064b2:	9a02      	ldr	r2, [sp, #8]
100064b4:	4282      	cmp	r2, r0
100064b6:	d300      	bcc.n	100064ba <tud_task_ext+0x706>
100064b8:	e08a      	b.n	100065d0 <tud_task_ext+0x81c>
100064ba:	9b04      	ldr	r3, [sp, #16]
100064bc:	3601      	adds	r6, #1
100064be:	781b      	ldrb	r3, [r3, #0]
100064c0:	b2f6      	uxtb	r6, r6
100064c2:	42b3      	cmp	r3, r6
100064c4:	d2e9      	bcs.n	1000649a <tud_task_ext+0x6e6>
100064c6:	e507      	b.n	10005ed8 <tud_task_ext+0x124>
100064c8:	4650      	mov	r0, sl
100064ca:	f7ff fb4f 	bl	10005b6c <dcd_edpt_close_all>
100064ce:	78b3      	ldrb	r3, [r6, #2]
100064d0:	4a45      	ldr	r2, [pc, #276]	; (100065e8 <tud_task_ext+0x834>)
100064d2:	9300      	str	r3, [sp, #0]
100064d4:	4b45      	ldr	r3, [pc, #276]	; (100065ec <tud_task_ext+0x838>)
100064d6:	2600      	movs	r6, #0
100064d8:	4698      	mov	r8, r3
100064da:	781b      	ldrb	r3, [r3, #0]
100064dc:	2a00      	cmp	r2, #0
100064de:	d00d      	beq.n	100064fc <tud_task_ext+0x748>
100064e0:	4f45      	ldr	r7, [pc, #276]	; (100065f8 <tud_task_ext+0x844>)
100064e2:	42b3      	cmp	r3, r6
100064e4:	d825      	bhi.n	10006532 <tud_task_ext+0x77e>
100064e6:	d120      	bne.n	1000652a <tud_task_ext+0x776>
100064e8:	4b44      	ldr	r3, [pc, #272]	; (100065fc <tud_task_ext+0x848>)
100064ea:	4650      	mov	r0, sl
100064ec:	4798      	blx	r3
100064ee:	4643      	mov	r3, r8
100064f0:	3601      	adds	r6, #1
100064f2:	781b      	ldrb	r3, [r3, #0]
100064f4:	b2f6      	uxtb	r6, r6
100064f6:	42b3      	cmp	r3, r6
100064f8:	d2f3      	bcs.n	100064e2 <tud_task_ext+0x72e>
100064fa:	e006      	b.n	1000650a <tud_task_ext+0x756>
100064fc:	4650      	mov	r0, sl
100064fe:	f000 fb6b 	bl	10006bd8 <cdcd_reset>
10006502:	4643      	mov	r3, r8
10006504:	781b      	ldrb	r3, [r3, #0]
10006506:	2b00      	cmp	r3, #0
10006508:	d10f      	bne.n	1000652a <tud_task_ext+0x776>
1000650a:	2253      	movs	r2, #83	; 0x53
1000650c:	2100      	movs	r1, #0
1000650e:	4658      	mov	r0, fp
10006510:	f7fe fc96 	bl	10004e40 <__wrap_memset>
10006514:	465b      	mov	r3, fp
10006516:	2210      	movs	r2, #16
10006518:	21ff      	movs	r1, #255	; 0xff
1000651a:	1cd8      	adds	r0, r3, #3
1000651c:	f7fe fc90 	bl	10004e40 <__wrap_memset>
10006520:	2220      	movs	r2, #32
10006522:	21ff      	movs	r1, #255	; 0xff
10006524:	4836      	ldr	r0, [pc, #216]	; (10006600 <tud_task_ext+0x84c>)
10006526:	f7fe fc8b 	bl	10004e40 <__wrap_memset>
1000652a:	465b      	mov	r3, fp
1000652c:	9a00      	ldr	r2, [sp, #0]
1000652e:	709a      	strb	r2, [r3, #2]
10006530:	e684      	b.n	1000623c <tud_task_ext+0x488>
10006532:	2318      	movs	r3, #24
10006534:	683a      	ldr	r2, [r7, #0]
10006536:	4373      	muls	r3, r6
10006538:	4694      	mov	ip, r2
1000653a:	4463      	add	r3, ip
1000653c:	2b00      	cmp	r3, #0
1000653e:	d0f4      	beq.n	1000652a <tud_task_ext+0x776>
10006540:	685b      	ldr	r3, [r3, #4]
10006542:	e7d2      	b.n	100064ea <tud_task_ext+0x736>
10006544:	f7ff f8e2 	bl	1000570c <tud_descriptor_configuration_cb>
10006548:	0002      	movs	r2, r0
1000654a:	e6f0      	b.n	1000632e <tud_task_ext+0x57a>
1000654c:	4b2a      	ldr	r3, [pc, #168]	; (100065f8 <tud_task_ext+0x844>)
1000654e:	681f      	ldr	r7, [r3, #0]
10006550:	2318      	movs	r3, #24
10006552:	4373      	muls	r3, r6
10006554:	18ff      	adds	r7, r7, r3
10006556:	2f00      	cmp	r7, #0
10006558:	d100      	bne.n	1000655c <tud_task_ext+0x7a8>
1000655a:	e4bd      	b.n	10005ed8 <tud_task_ext+0x124>
1000655c:	68bb      	ldr	r3, [r7, #8]
1000655e:	e7a2      	b.n	100064a6 <tud_task_ext+0x6f2>
10006560:	9b02      	ldr	r3, [sp, #8]
10006562:	0039      	movs	r1, r7
10006564:	001a      	movs	r2, r3
10006566:	4650      	mov	r0, sl
10006568:	4698      	mov	r8, r3
1000656a:	f000 fb4b 	bl	10006c04 <cdcd_open>
1000656e:	2808      	cmp	r0, #8
10006570:	d800      	bhi.n	10006574 <tud_task_ext+0x7c0>
10006572:	e4b1      	b.n	10005ed8 <tud_task_ext+0x124>
10006574:	4642      	mov	r2, r8
10006576:	4282      	cmp	r2, r0
10006578:	d200      	bcs.n	1000657c <tud_task_ext+0x7c8>
1000657a:	e4ad      	b.n	10005ed8 <tud_task_ext+0x124>
1000657c:	4b1d      	ldr	r3, [pc, #116]	; (100065f4 <tud_task_ext+0x840>)
1000657e:	4698      	mov	r8, r3
10006580:	9b00      	ldr	r3, [sp, #0]
10006582:	2b01      	cmp	r3, #1
10006584:	d028      	beq.n	100065d8 <tud_task_ext+0x824>
10006586:	2200      	movs	r2, #0
10006588:	e00a      	b.n	100065a0 <tud_task_ext+0x7ec>
1000658a:	78bb      	ldrb	r3, [r7, #2]
1000658c:	18d3      	adds	r3, r2, r3
1000658e:	b2db      	uxtb	r3, r3
10006590:	445b      	add	r3, fp
10006592:	78d9      	ldrb	r1, [r3, #3]
10006594:	29ff      	cmp	r1, #255	; 0xff
10006596:	d000      	beq.n	1000659a <tud_task_ext+0x7e6>
10006598:	e49e      	b.n	10005ed8 <tud_task_ext+0x124>
1000659a:	3201      	adds	r2, #1
1000659c:	70de      	strb	r6, [r3, #3]
1000659e:	b2d2      	uxtb	r2, r2
100065a0:	9b00      	ldr	r3, [sp, #0]
100065a2:	429a      	cmp	r2, r3
100065a4:	d1f1      	bne.n	1000658a <tud_task_ext+0x7d6>
100065a6:	4680      	mov	r8, r0
100065a8:	0033      	movs	r3, r6
100065aa:	0002      	movs	r2, r0
100065ac:	0039      	movs	r1, r7
100065ae:	4814      	ldr	r0, [pc, #80]	; (10006600 <tud_task_ext+0x84c>)
100065b0:	f000 fd3c 	bl	1000702c <tu_edpt_bind_driver>
100065b4:	9b04      	ldr	r3, [sp, #16]
100065b6:	4447      	add	r7, r8
100065b8:	781b      	ldrb	r3, [r3, #0]
100065ba:	42b3      	cmp	r3, r6
100065bc:	d300      	bcc.n	100065c0 <tud_task_ext+0x80c>
100065be:	e74f      	b.n	10006460 <tud_task_ext+0x6ac>
100065c0:	e48a      	b.n	10005ed8 <tud_task_ext+0x124>
100065c2:	4b10      	ldr	r3, [pc, #64]	; (10006604 <tud_task_ext+0x850>)
100065c4:	2b00      	cmp	r3, #0
100065c6:	d100      	bne.n	100065ca <tud_task_ext+0x816>
100065c8:	e63c      	b.n	10006244 <tud_task_ext+0x490>
100065ca:	e000      	b.n	100065ce <tud_task_ext+0x81a>
100065cc:	bf00      	nop
100065ce:	e639      	b.n	10006244 <tud_task_ext+0x490>
100065d0:	003b      	movs	r3, r7
100065d2:	4647      	mov	r7, r8
100065d4:	4698      	mov	r8, r3
100065d6:	e7d3      	b.n	10006580 <tud_task_ext+0x7cc>
100065d8:	4642      	mov	r2, r8
100065da:	4b05      	ldr	r3, [pc, #20]	; (100065f0 <tud_task_ext+0x83c>)
100065dc:	6892      	ldr	r2, [r2, #8]
100065de:	429a      	cmp	r2, r3
100065e0:	d1d1      	bne.n	10006586 <tud_task_ext+0x7d2>
100065e2:	9b05      	ldr	r3, [sp, #20]
100065e4:	9300      	str	r3, [sp, #0]
100065e6:	e7ce      	b.n	10006586 <tud_task_ext+0x7d2>
100065e8:	10005319 	.word	0x10005319
100065ec:	20002111 	.word	0x20002111
100065f0:	10006c05 	.word	0x10006c05
100065f4:	10008214 	.word	0x10008214
100065f8:	2000168c 	.word	0x2000168c
100065fc:	10006bd9 	.word	0x10006bd9
10006600:	200019c7 	.word	0x200019c7
10006604:	00000000 	.word	0x00000000

10006608 <usbd_open_edpt_pair>:
10006608:	b5f8      	push	{r3, r4, r5, r6, r7, lr}
1000660a:	4657      	mov	r7, sl
1000660c:	464e      	mov	r6, r9
1000660e:	46de      	mov	lr, fp
10006610:	4645      	mov	r5, r8
10006612:	000c      	movs	r4, r1
10006614:	b5e0      	push	{r5, r6, r7, lr}
10006616:	0016      	movs	r6, r2
10006618:	001f      	movs	r7, r3
1000661a:	2a00      	cmp	r2, #0
1000661c:	d03c      	beq.n	10006698 <usbd_open_edpt_pair+0x90>
1000661e:	2370      	movs	r3, #112	; 0x70
10006620:	4698      	mov	r8, r3
10006622:	4b1e      	ldr	r3, [pc, #120]	; (1000669c <usbd_open_edpt_pair+0x94>)
10006624:	2500      	movs	r5, #0
10006626:	469b      	mov	fp, r3
10006628:	4b1d      	ldr	r3, [pc, #116]	; (100066a0 <usbd_open_edpt_pair+0x98>)
1000662a:	469a      	mov	sl, r3
1000662c:	e01a      	b.n	10006664 <usbd_open_edpt_pair+0x5c>
1000662e:	465b      	mov	r3, fp
10006630:	781b      	ldrb	r3, [r3, #0]
10006632:	0020      	movs	r0, r4
10006634:	4699      	mov	r9, r3
10006636:	4653      	mov	r3, sl
10006638:	7899      	ldrb	r1, [r3, #2]
1000663a:	f000 fcbb 	bl	10006fb4 <tu_edpt_validate>
1000663e:	2800      	cmp	r0, #0
10006640:	d01c      	beq.n	1000667c <usbd_open_edpt_pair+0x74>
10006642:	0021      	movs	r1, r4
10006644:	4648      	mov	r0, r9
10006646:	f7ff fa0d 	bl	10005a64 <dcd_edpt_open>
1000664a:	2800      	cmp	r0, #0
1000664c:	d016      	beq.n	1000667c <usbd_open_edpt_pair+0x74>
1000664e:	78a3      	ldrb	r3, [r4, #2]
10006650:	09da      	lsrs	r2, r3, #7
10006652:	2a01      	cmp	r2, #1
10006654:	d019      	beq.n	1000668a <usbd_open_edpt_pair+0x82>
10006656:	9a0a      	ldr	r2, [sp, #40]	; 0x28
10006658:	3501      	adds	r5, #1
1000665a:	7013      	strb	r3, [r2, #0]
1000665c:	7823      	ldrb	r3, [r4, #0]
1000665e:	18e4      	adds	r4, r4, r3
10006660:	42b5      	cmp	r5, r6
10006662:	da19      	bge.n	10006698 <usbd_open_edpt_pair+0x90>
10006664:	7863      	ldrb	r3, [r4, #1]
10006666:	2b05      	cmp	r3, #5
10006668:	d108      	bne.n	1000667c <usbd_open_edpt_pair+0x74>
1000666a:	78e3      	ldrb	r3, [r4, #3]
1000666c:	079b      	lsls	r3, r3, #30
1000666e:	0f9b      	lsrs	r3, r3, #30
10006670:	42bb      	cmp	r3, r7
10006672:	d103      	bne.n	1000667c <usbd_open_edpt_pair+0x74>
10006674:	4642      	mov	r2, r8
10006676:	78a3      	ldrb	r3, [r4, #2]
10006678:	421a      	tst	r2, r3
1000667a:	d0d8      	beq.n	1000662e <usbd_open_edpt_pair+0x26>
1000667c:	2000      	movs	r0, #0
1000667e:	bcf0      	pop	{r4, r5, r6, r7}
10006680:	46bb      	mov	fp, r7
10006682:	46b2      	mov	sl, r6
10006684:	46a9      	mov	r9, r5
10006686:	46a0      	mov	r8, r4
10006688:	bdf8      	pop	{r3, r4, r5, r6, r7, pc}
1000668a:	9a0b      	ldr	r2, [sp, #44]	; 0x2c
1000668c:	3501      	adds	r5, #1
1000668e:	7013      	strb	r3, [r2, #0]
10006690:	7823      	ldrb	r3, [r4, #0]
10006692:	18e4      	adds	r4, r4, r3
10006694:	42b5      	cmp	r5, r6
10006696:	dbe5      	blt.n	10006664 <usbd_open_edpt_pair+0x5c>
10006698:	2001      	movs	r0, #1
1000669a:	e7f0      	b.n	1000667e <usbd_open_edpt_pair+0x76>
1000669c:	20000f0c 	.word	0x20000f0c
100066a0:	200019b4 	.word	0x200019b4

100066a4 <usbd_defer_func>:
100066a4:	2380      	movs	r3, #128	; 0x80
100066a6:	b510      	push	{r4, lr}
100066a8:	011b      	lsls	r3, r3, #4
100066aa:	b084      	sub	sp, #16
100066ac:	9301      	str	r3, [sp, #4]
100066ae:	4b0e      	ldr	r3, [pc, #56]	; (100066e8 <usbd_defer_func+0x44>)
100066b0:	9002      	str	r0, [sp, #8]
100066b2:	681c      	ldr	r4, [r3, #0]
100066b4:	9103      	str	r1, [sp, #12]
100066b6:	6962      	ldr	r2, [r4, #20]
100066b8:	f3ef 8310 	mrs	r3, PRIMASK
100066bc:	b672      	cpsid	i
100066be:	6811      	ldr	r1, [r2, #0]
100066c0:	2900      	cmp	r1, #0
100066c2:	d0fc      	beq.n	100066be <usbd_defer_func+0x1a>
100066c4:	f3bf 8f5f 	dmb	sy
100066c8:	61a3      	str	r3, [r4, #24]
100066ca:	0020      	movs	r0, r4
100066cc:	a901      	add	r1, sp, #4
100066ce:	f000 fdf9 	bl	100072c4 <tu_fifo_write>
100066d2:	6962      	ldr	r2, [r4, #20]
100066d4:	69a3      	ldr	r3, [r4, #24]
100066d6:	f3bf 8f5f 	dmb	sy
100066da:	2100      	movs	r1, #0
100066dc:	6011      	str	r1, [r2, #0]
100066de:	f383 8810 	msr	PRIMASK, r3
100066e2:	b004      	add	sp, #16
100066e4:	bd10      	pop	{r4, pc}
100066e6:	46c0      	nop			; (mov r8, r8)
100066e8:	20001a0c 	.word	0x20001a0c

100066ec <usbd_edpt_open>:
100066ec:	2270      	movs	r2, #112	; 0x70
100066ee:	b570      	push	{r4, r5, r6, lr}
100066f0:	788b      	ldrb	r3, [r1, #2]
100066f2:	000c      	movs	r4, r1
100066f4:	421a      	tst	r2, r3
100066f6:	d001      	beq.n	100066fc <usbd_edpt_open+0x10>
100066f8:	2000      	movs	r0, #0
100066fa:	bd70      	pop	{r4, r5, r6, pc}
100066fc:	4b06      	ldr	r3, [pc, #24]	; (10006718 <usbd_edpt_open+0x2c>)
100066fe:	0020      	movs	r0, r4
10006700:	781d      	ldrb	r5, [r3, #0]
10006702:	4b06      	ldr	r3, [pc, #24]	; (1000671c <usbd_edpt_open+0x30>)
10006704:	7899      	ldrb	r1, [r3, #2]
10006706:	f000 fc55 	bl	10006fb4 <tu_edpt_validate>
1000670a:	2800      	cmp	r0, #0
1000670c:	d0f4      	beq.n	100066f8 <usbd_edpt_open+0xc>
1000670e:	0021      	movs	r1, r4
10006710:	0028      	movs	r0, r5
10006712:	f7ff f9a7 	bl	10005a64 <dcd_edpt_open>
10006716:	e7f0      	b.n	100066fa <usbd_edpt_open+0xe>
10006718:	20000f0c 	.word	0x20000f0c
1000671c:	200019b4 	.word	0x200019b4

10006720 <usbd_edpt_claim>:
10006720:	4b07      	ldr	r3, [pc, #28]	; (10006740 <usbd_edpt_claim+0x20>)
10006722:	0008      	movs	r0, r1
10006724:	6819      	ldr	r1, [r3, #0]
10006726:	237f      	movs	r3, #127	; 0x7f
10006728:	b510      	push	{r4, lr}
1000672a:	4003      	ands	r3, r0
1000672c:	09c0      	lsrs	r0, r0, #7
1000672e:	005b      	lsls	r3, r3, #1
10006730:	3033      	adds	r0, #51	; 0x33
10006732:	1818      	adds	r0, r3, r0
10006734:	4b03      	ldr	r3, [pc, #12]	; (10006744 <usbd_edpt_claim+0x24>)
10006736:	1818      	adds	r0, r3, r0
10006738:	f000 fbf8 	bl	10006f2c <tu_edpt_claim>
1000673c:	bd10      	pop	{r4, pc}
1000673e:	46c0      	nop			; (mov r8, r8)
10006740:	20001a08 	.word	0x20001a08
10006744:	200019b4 	.word	0x200019b4

10006748 <usbd_edpt_release>:
10006748:	4b07      	ldr	r3, [pc, #28]	; (10006768 <usbd_edpt_release+0x20>)
1000674a:	0008      	movs	r0, r1
1000674c:	6819      	ldr	r1, [r3, #0]
1000674e:	237f      	movs	r3, #127	; 0x7f
10006750:	b510      	push	{r4, lr}
10006752:	4003      	ands	r3, r0
10006754:	09c0      	lsrs	r0, r0, #7
10006756:	005b      	lsls	r3, r3, #1
10006758:	3033      	adds	r0, #51	; 0x33
1000675a:	1818      	adds	r0, r3, r0
1000675c:	4b03      	ldr	r3, [pc, #12]	; (1000676c <usbd_edpt_release+0x24>)
1000675e:	1818      	adds	r0, r3, r0
10006760:	f000 fc0c 	bl	10006f7c <tu_edpt_release>
10006764:	bd10      	pop	{r4, pc}
10006766:	46c0      	nop			; (mov r8, r8)
10006768:	20001a08 	.word	0x20001a08
1000676c:	200019b4 	.word	0x200019b4

10006770 <usbd_edpt_xfer>:
10006770:	207f      	movs	r0, #127	; 0x7f
10006772:	b570      	push	{r4, r5, r6, lr}
10006774:	4008      	ands	r0, r1
10006776:	4c0f      	ldr	r4, [pc, #60]	; (100067b4 <usbd_edpt_xfer+0x44>)
10006778:	0040      	lsls	r0, r0, #1
1000677a:	09cd      	lsrs	r5, r1, #7
1000677c:	1824      	adds	r4, r4, r0
1000677e:	1964      	adds	r4, r4, r5
10006780:	3430      	adds	r4, #48	; 0x30
10006782:	78e5      	ldrb	r5, [r4, #3]
10006784:	2000      	movs	r0, #0
10006786:	07ed      	lsls	r5, r5, #31
10006788:	d500      	bpl.n	1000678c <usbd_edpt_xfer+0x1c>
1000678a:	bd70      	pop	{r4, r5, r6, pc}
1000678c:	2601      	movs	r6, #1
1000678e:	78e5      	ldrb	r5, [r4, #3]
10006790:	4809      	ldr	r0, [pc, #36]	; (100067b8 <usbd_edpt_xfer+0x48>)
10006792:	4335      	orrs	r5, r6
10006794:	7800      	ldrb	r0, [r0, #0]
10006796:	70e5      	strb	r5, [r4, #3]
10006798:	f7ff f9ec 	bl	10005b74 <dcd_edpt_xfer>
1000679c:	2800      	cmp	r0, #0
1000679e:	d1f4      	bne.n	1000678a <usbd_edpt_xfer+0x1a>
100067a0:	2201      	movs	r2, #1
100067a2:	78e3      	ldrb	r3, [r4, #3]
100067a4:	4393      	bics	r3, r2
100067a6:	70e3      	strb	r3, [r4, #3]
100067a8:	78e3      	ldrb	r3, [r4, #3]
100067aa:	3203      	adds	r2, #3
100067ac:	4393      	bics	r3, r2
100067ae:	70e3      	strb	r3, [r4, #3]
100067b0:	e7eb      	b.n	1000678a <usbd_edpt_xfer+0x1a>
100067b2:	46c0      	nop			; (mov r8, r8)
100067b4:	200019b4 	.word	0x200019b4
100067b8:	20000f0c 	.word	0x20000f0c

100067bc <tud_control_status>:
100067bc:	b570      	push	{r4, r5, r6, lr}
100067be:	4e0a      	ldr	r6, [pc, #40]	; (100067e8 <tud_control_status+0x2c>)
100067c0:	0005      	movs	r5, r0
100067c2:	0030      	movs	r0, r6
100067c4:	2208      	movs	r2, #8
100067c6:	000c      	movs	r4, r1
100067c8:	f7fe fb40 	bl	10004e4c <__wrap___aeabi_memcpy>
100067cc:	2300      	movs	r3, #0
100067ce:	217f      	movs	r1, #127	; 0x7f
100067d0:	60f3      	str	r3, [r6, #12]
100067d2:	7822      	ldrb	r2, [r4, #0]
100067d4:	60b3      	str	r3, [r6, #8]
100067d6:	4291      	cmp	r1, r2
100067d8:	415b      	adcs	r3, r3
100067da:	0028      	movs	r0, r5
100067dc:	01d9      	lsls	r1, r3, #7
100067de:	2200      	movs	r2, #0
100067e0:	2300      	movs	r3, #0
100067e2:	f7ff ffc5 	bl	10006770 <usbd_edpt_xfer>
100067e6:	bd70      	pop	{r4, r5, r6, pc}
100067e8:	20001958 	.word	0x20001958

100067ec <tud_control_xfer>:
100067ec:	b5f8      	push	{r3, r4, r5, r6, r7, lr}
100067ee:	46ce      	mov	lr, r9
100067f0:	4647      	mov	r7, r8
100067f2:	4691      	mov	r9, r2
100067f4:	4e2a      	ldr	r6, [pc, #168]	; (100068a0 <tud_control_xfer+0xb4>)
100067f6:	b580      	push	{r7, lr}
100067f8:	2208      	movs	r2, #8
100067fa:	0007      	movs	r7, r0
100067fc:	0030      	movs	r0, r6
100067fe:	000d      	movs	r5, r1
10006800:	4698      	mov	r8, r3
10006802:	f7fe fb23 	bl	10004e4c <__wrap___aeabi_memcpy>
10006806:	464b      	mov	r3, r9
10006808:	60b3      	str	r3, [r6, #8]
1000680a:	2300      	movs	r3, #0
1000680c:	81f3      	strh	r3, [r6, #14]
1000680e:	79ec      	ldrb	r4, [r5, #7]
10006810:	79a9      	ldrb	r1, [r5, #6]
10006812:	0224      	lsls	r4, r4, #8
10006814:	430c      	orrs	r4, r1
10006816:	1c23      	adds	r3, r4, #0
10006818:	4544      	cmp	r4, r8
1000681a:	d900      	bls.n	1000681e <tud_control_xfer+0x32>
1000681c:	4643      	mov	r3, r8
1000681e:	b29a      	uxth	r2, r3
10006820:	4690      	mov	r8, r2
10006822:	81b3      	strh	r3, [r6, #12]
10006824:	2c00      	cmp	r4, #0
10006826:	d013      	beq.n	10006850 <tud_control_xfer+0x64>
10006828:	2a00      	cmp	r2, #0
1000682a:	d01f      	beq.n	1000686c <tud_control_xfer+0x80>
1000682c:	464b      	mov	r3, r9
1000682e:	2b00      	cmp	r3, #0
10006830:	d034      	beq.n	1000689c <tud_control_xfer+0xb0>
10006832:	1c13      	adds	r3, r2, #0
10006834:	2a40      	cmp	r2, #64	; 0x40
10006836:	d81f      	bhi.n	10006878 <tud_control_xfer+0x8c>
10006838:	b29b      	uxth	r3, r3
1000683a:	4698      	mov	r8, r3
1000683c:	7833      	ldrb	r3, [r6, #0]
1000683e:	2b7f      	cmp	r3, #127	; 0x7f
10006840:	d820      	bhi.n	10006884 <tud_control_xfer+0x98>
10006842:	2100      	movs	r1, #0
10006844:	4a17      	ldr	r2, [pc, #92]	; (100068a4 <tud_control_xfer+0xb8>)
10006846:	4643      	mov	r3, r8
10006848:	0038      	movs	r0, r7
1000684a:	f7ff ff91 	bl	10006770 <usbd_edpt_xfer>
1000684e:	e009      	b.n	10006864 <tud_control_xfer+0x78>
10006850:	227f      	movs	r2, #127	; 0x7f
10006852:	782b      	ldrb	r3, [r5, #0]
10006854:	0038      	movs	r0, r7
10006856:	429a      	cmp	r2, r3
10006858:	4164      	adcs	r4, r4
1000685a:	2300      	movs	r3, #0
1000685c:	2200      	movs	r2, #0
1000685e:	01e1      	lsls	r1, r4, #7
10006860:	f7ff ff86 	bl	10006770 <usbd_edpt_xfer>
10006864:	bcc0      	pop	{r6, r7}
10006866:	46b9      	mov	r9, r7
10006868:	46b0      	mov	r8, r6
1000686a:	bdf8      	pop	{r3, r4, r5, r6, r7, pc}
1000686c:	7833      	ldrb	r3, [r6, #0]
1000686e:	2b7f      	cmp	r3, #127	; 0x7f
10006870:	d911      	bls.n	10006896 <tud_control_xfer+0xaa>
10006872:	2180      	movs	r1, #128	; 0x80
10006874:	2200      	movs	r2, #0
10006876:	e7e6      	b.n	10006846 <tud_control_xfer+0x5a>
10006878:	2340      	movs	r3, #64	; 0x40
1000687a:	b29b      	uxth	r3, r3
1000687c:	4698      	mov	r8, r3
1000687e:	7833      	ldrb	r3, [r6, #0]
10006880:	2b7f      	cmp	r3, #127	; 0x7f
10006882:	d9de      	bls.n	10006842 <tud_control_xfer+0x56>
10006884:	4c07      	ldr	r4, [pc, #28]	; (100068a4 <tud_control_xfer+0xb8>)
10006886:	4642      	mov	r2, r8
10006888:	4649      	mov	r1, r9
1000688a:	0020      	movs	r0, r4
1000688c:	f7fe fade 	bl	10004e4c <__wrap___aeabi_memcpy>
10006890:	2180      	movs	r1, #128	; 0x80
10006892:	0022      	movs	r2, r4
10006894:	e7d7      	b.n	10006846 <tud_control_xfer+0x5a>
10006896:	2100      	movs	r1, #0
10006898:	2200      	movs	r2, #0
1000689a:	e7d4      	b.n	10006846 <tud_control_xfer+0x5a>
1000689c:	2000      	movs	r0, #0
1000689e:	e7e1      	b.n	10006864 <tud_control_xfer+0x78>
100068a0:	20001958 	.word	0x20001958
100068a4:	20001974 	.word	0x20001974

100068a8 <usbd_control_reset>:
100068a8:	b510      	push	{r4, lr}
100068aa:	2214      	movs	r2, #20
100068ac:	2100      	movs	r1, #0
100068ae:	4802      	ldr	r0, [pc, #8]	; (100068b8 <usbd_control_reset+0x10>)
100068b0:	f7fe fac6 	bl	10004e40 <__wrap_memset>
100068b4:	bd10      	pop	{r4, pc}
100068b6:	46c0      	nop			; (mov r8, r8)
100068b8:	20001958 	.word	0x20001958

100068bc <usbd_control_set_complete_callback>:
100068bc:	4b01      	ldr	r3, [pc, #4]	; (100068c4 <usbd_control_set_complete_callback+0x8>)
100068be:	6118      	str	r0, [r3, #16]
100068c0:	4770      	bx	lr
100068c2:	46c0      	nop			; (mov r8, r8)
100068c4:	20001958 	.word	0x20001958

100068c8 <usbd_control_set_request>:
100068c8:	b510      	push	{r4, lr}
100068ca:	4c05      	ldr	r4, [pc, #20]	; (100068e0 <usbd_control_set_request+0x18>)
100068cc:	0001      	movs	r1, r0
100068ce:	2208      	movs	r2, #8
100068d0:	0020      	movs	r0, r4
100068d2:	f7fe fabb 	bl	10004e4c <__wrap___aeabi_memcpy>
100068d6:	2300      	movs	r3, #0
100068d8:	60a3      	str	r3, [r4, #8]
100068da:	60e3      	str	r3, [r4, #12]
100068dc:	bd10      	pop	{r4, pc}
100068de:	46c0      	nop			; (mov r8, r8)
100068e0:	20001958 	.word	0x20001958

100068e4 <usbd_control_xfer_cb>:
100068e4:	b5f8      	push	{r3, r4, r5, r6, r7, lr}
100068e6:	4c3b      	ldr	r4, [pc, #236]	; (100069d4 <usbd_control_xfer_cb+0xf0>)
100068e8:	001d      	movs	r5, r3
100068ea:	7823      	ldrb	r3, [r4, #0]
100068ec:	0006      	movs	r6, r0
100068ee:	09da      	lsrs	r2, r3, #7
100068f0:	09c9      	lsrs	r1, r1, #7
100068f2:	428a      	cmp	r2, r1
100068f4:	d013      	beq.n	1000691e <usbd_control_xfer_cb+0x3a>
100068f6:	2000      	movs	r0, #0
100068f8:	2d00      	cmp	r5, #0
100068fa:	d000      	beq.n	100068fe <usbd_control_xfer_cb+0x1a>
100068fc:	bdf8      	pop	{r3, r4, r5, r6, r7, pc}
100068fe:	4b36      	ldr	r3, [pc, #216]	; (100069d8 <usbd_control_xfer_cb+0xf4>)
10006900:	2b00      	cmp	r3, #0
10006902:	d003      	beq.n	1000690c <usbd_control_xfer_cb+0x28>
10006904:	0021      	movs	r1, r4
10006906:	0030      	movs	r0, r6
10006908:	f7ff f89e 	bl	10005a48 <dcd_edpt0_status_complete>
1000690c:	6923      	ldr	r3, [r4, #16]
1000690e:	2b00      	cmp	r3, #0
10006910:	d044      	beq.n	1000699c <usbd_control_xfer_cb+0xb8>
10006912:	0022      	movs	r2, r4
10006914:	2103      	movs	r1, #3
10006916:	0030      	movs	r0, r6
10006918:	4798      	blx	r3
1000691a:	2001      	movs	r0, #1
1000691c:	e7ee      	b.n	100068fc <usbd_control_xfer_cb+0x18>
1000691e:	2b7f      	cmp	r3, #127	; 0x7f
10006920:	d806      	bhi.n	10006930 <usbd_control_xfer_cb+0x4c>
10006922:	68a0      	ldr	r0, [r4, #8]
10006924:	2800      	cmp	r0, #0
10006926:	d037      	beq.n	10006998 <usbd_control_xfer_cb+0xb4>
10006928:	002a      	movs	r2, r5
1000692a:	492c      	ldr	r1, [pc, #176]	; (100069dc <usbd_control_xfer_cb+0xf8>)
1000692c:	f7fe fa8e 	bl	10004e4c <__wrap___aeabi_memcpy>
10006930:	68a3      	ldr	r3, [r4, #8]
10006932:	89e2      	ldrh	r2, [r4, #14]
10006934:	1959      	adds	r1, r3, r5
10006936:	1952      	adds	r2, r2, r5
10006938:	88e3      	ldrh	r3, [r4, #6]
1000693a:	b292      	uxth	r2, r2
1000693c:	81e2      	strh	r2, [r4, #14]
1000693e:	60a1      	str	r1, [r4, #8]
10006940:	4293      	cmp	r3, r2
10006942:	d014      	beq.n	1000696e <usbd_control_xfer_cb+0x8a>
10006944:	2d3f      	cmp	r5, #63	; 0x3f
10006946:	d912      	bls.n	1000696e <usbd_control_xfer_cb+0x8a>
10006948:	89a5      	ldrh	r5, [r4, #12]
1000694a:	1aa8      	subs	r0, r5, r2
1000694c:	1c07      	adds	r7, r0, #0
1000694e:	b280      	uxth	r0, r0
10006950:	2840      	cmp	r0, #64	; 0x40
10006952:	d82f      	bhi.n	100069b4 <usbd_control_xfer_cb+0xd0>
10006954:	7823      	ldrb	r3, [r4, #0]
10006956:	b2bf      	uxth	r7, r7
10006958:	2b7f      	cmp	r3, #127	; 0x7f
1000695a:	d82d      	bhi.n	100069b8 <usbd_control_xfer_cb+0xd4>
1000695c:	2100      	movs	r1, #0
1000695e:	42aa      	cmp	r2, r5
10006960:	d035      	beq.n	100069ce <usbd_control_xfer_cb+0xea>
10006962:	4a1e      	ldr	r2, [pc, #120]	; (100069dc <usbd_control_xfer_cb+0xf8>)
10006964:	003b      	movs	r3, r7
10006966:	0030      	movs	r0, r6
10006968:	f7ff ff02 	bl	10006770 <usbd_edpt_xfer>
1000696c:	e7c6      	b.n	100068fc <usbd_control_xfer_cb+0x18>
1000696e:	6923      	ldr	r3, [r4, #16]
10006970:	2b00      	cmp	r3, #0
10006972:	d005      	beq.n	10006980 <usbd_control_xfer_cb+0x9c>
10006974:	0022      	movs	r2, r4
10006976:	2102      	movs	r1, #2
10006978:	0030      	movs	r0, r6
1000697a:	4798      	blx	r3
1000697c:	2800      	cmp	r0, #0
1000697e:	d00f      	beq.n	100069a0 <usbd_control_xfer_cb+0xbc>
10006980:	227f      	movs	r2, #127	; 0x7f
10006982:	2100      	movs	r1, #0
10006984:	7823      	ldrb	r3, [r4, #0]
10006986:	0030      	movs	r0, r6
10006988:	429a      	cmp	r2, r3
1000698a:	4149      	adcs	r1, r1
1000698c:	2300      	movs	r3, #0
1000698e:	2200      	movs	r2, #0
10006990:	01c9      	lsls	r1, r1, #7
10006992:	f7ff feed 	bl	10006770 <usbd_edpt_xfer>
10006996:	e7b1      	b.n	100068fc <usbd_control_xfer_cb+0x18>
10006998:	2000      	movs	r0, #0
1000699a:	e7af      	b.n	100068fc <usbd_control_xfer_cb+0x18>
1000699c:	2001      	movs	r0, #1
1000699e:	e7ad      	b.n	100068fc <usbd_control_xfer_cb+0x18>
100069a0:	2100      	movs	r1, #0
100069a2:	0030      	movs	r0, r6
100069a4:	f7ff f8f8 	bl	10005b98 <dcd_edpt_stall>
100069a8:	0030      	movs	r0, r6
100069aa:	2180      	movs	r1, #128	; 0x80
100069ac:	f7ff f8f4 	bl	10005b98 <dcd_edpt_stall>
100069b0:	2001      	movs	r0, #1
100069b2:	e7a3      	b.n	100068fc <usbd_control_xfer_cb+0x18>
100069b4:	2740      	movs	r7, #64	; 0x40
100069b6:	e7cd      	b.n	10006954 <usbd_control_xfer_cb+0x70>
100069b8:	42aa      	cmp	r2, r5
100069ba:	d007      	beq.n	100069cc <usbd_control_xfer_cb+0xe8>
100069bc:	4c07      	ldr	r4, [pc, #28]	; (100069dc <usbd_control_xfer_cb+0xf8>)
100069be:	003a      	movs	r2, r7
100069c0:	0020      	movs	r0, r4
100069c2:	f7fe fa43 	bl	10004e4c <__wrap___aeabi_memcpy>
100069c6:	2180      	movs	r1, #128	; 0x80
100069c8:	0022      	movs	r2, r4
100069ca:	e7cb      	b.n	10006964 <usbd_control_xfer_cb+0x80>
100069cc:	2180      	movs	r1, #128	; 0x80
100069ce:	2200      	movs	r2, #0
100069d0:	e7c8      	b.n	10006964 <usbd_control_xfer_cb+0x80>
100069d2:	46c0      	nop			; (mov r8, r8)
100069d4:	20001958 	.word	0x20001958
100069d8:	10005a49 	.word	0x10005a49
100069dc:	20001974 	.word	0x20001974

100069e0 <tud_cdc_n_connected>:
100069e0:	b510      	push	{r4, lr}
100069e2:	0004      	movs	r4, r0
100069e4:	f7ff f95a 	bl	10005c9c <tud_mounted>
100069e8:	2800      	cmp	r0, #0
100069ea:	d101      	bne.n	100069f0 <tud_cdc_n_connected+0x10>
100069ec:	2000      	movs	r0, #0
100069ee:	bd10      	pop	{r4, pc}
100069f0:	f7ff f95c 	bl	10005cac <tud_suspended>
100069f4:	2800      	cmp	r0, #0
100069f6:	d1f9      	bne.n	100069ec <tud_cdc_n_connected+0xc>
100069f8:	20b2      	movs	r0, #178	; 0xb2
100069fa:	0080      	lsls	r0, r0, #2
100069fc:	4344      	muls	r4, r0
100069fe:	4803      	ldr	r0, [pc, #12]	; (10006a0c <tud_cdc_n_connected+0x2c>)
10006a00:	1900      	adds	r0, r0, r4
10006a02:	7903      	ldrb	r3, [r0, #4]
10006a04:	2001      	movs	r0, #1
10006a06:	4018      	ands	r0, r3
10006a08:	e7f1      	b.n	100069ee <tud_cdc_n_connected+0xe>
10006a0a:	46c0      	nop			; (mov r8, r8)
10006a0c:	20001690 	.word	0x20001690

10006a10 <tud_cdc_n_available>:
10006a10:	23b2      	movs	r3, #178	; 0xb2
10006a12:	009b      	lsls	r3, r3, #2
10006a14:	4358      	muls	r0, r3
10006a16:	b510      	push	{r4, lr}
10006a18:	4b02      	ldr	r3, [pc, #8]	; (10006a24 <tud_cdc_n_available+0x14>)
10006a1a:	3010      	adds	r0, #16
10006a1c:	18c0      	adds	r0, r0, r3
10006a1e:	f000 fb57 	bl	100070d0 <tu_fifo_count>
10006a22:	bd10      	pop	{r4, pc}
10006a24:	20001690 	.word	0x20001690

10006a28 <tud_cdc_n_read>:
10006a28:	b5f0      	push	{r4, r5, r6, r7, lr}
10006a2a:	25b2      	movs	r5, #178	; 0xb2
10006a2c:	00ad      	lsls	r5, r5, #2
10006a2e:	4345      	muls	r5, r0
10006a30:	002c      	movs	r4, r5
10006a32:	46c6      	mov	lr, r8
10006a34:	4f17      	ldr	r7, [pc, #92]	; (10006a94 <tud_cdc_n_read+0x6c>)
10006a36:	3410      	adds	r4, #16
10006a38:	19e4      	adds	r4, r4, r7
10006a3a:	b500      	push	{lr}
10006a3c:	0020      	movs	r0, r4
10006a3e:	b292      	uxth	r2, r2
10006a40:	f000 fbca 	bl	100071d8 <tu_fifo_read_n>
10006a44:	0006      	movs	r6, r0
10006a46:	0020      	movs	r0, r4
10006a48:	f000 fb60 	bl	1000710c <tu_fifo_remaining>
10006a4c:	283f      	cmp	r0, #63	; 0x3f
10006a4e:	d803      	bhi.n	10006a58 <tud_cdc_n_read+0x30>
10006a50:	0030      	movs	r0, r6
10006a52:	bc80      	pop	{r7}
10006a54:	46b8      	mov	r8, r7
10006a56:	bdf0      	pop	{r4, r5, r6, r7, pc}
10006a58:	197b      	adds	r3, r7, r5
10006a5a:	2000      	movs	r0, #0
10006a5c:	78d9      	ldrb	r1, [r3, #3]
10006a5e:	4698      	mov	r8, r3
10006a60:	f7ff fe5e 	bl	10006720 <usbd_edpt_claim>
10006a64:	2800      	cmp	r0, #0
10006a66:	d0f3      	beq.n	10006a50 <tud_cdc_n_read+0x28>
10006a68:	0020      	movs	r0, r4
10006a6a:	f000 fb4f 	bl	1000710c <tu_fifo_remaining>
10006a6e:	283f      	cmp	r0, #63	; 0x3f
10006a70:	d90a      	bls.n	10006a88 <tud_cdc_n_read+0x60>
10006a72:	2392      	movs	r3, #146	; 0x92
10006a74:	009b      	lsls	r3, r3, #2
10006a76:	18ea      	adds	r2, r5, r3
10006a78:	4643      	mov	r3, r8
10006a7a:	19d2      	adds	r2, r2, r7
10006a7c:	78d9      	ldrb	r1, [r3, #3]
10006a7e:	2000      	movs	r0, #0
10006a80:	2340      	movs	r3, #64	; 0x40
10006a82:	f7ff fe75 	bl	10006770 <usbd_edpt_xfer>
10006a86:	e7e3      	b.n	10006a50 <tud_cdc_n_read+0x28>
10006a88:	4643      	mov	r3, r8
10006a8a:	2000      	movs	r0, #0
10006a8c:	78d9      	ldrb	r1, [r3, #3]
10006a8e:	f7ff fe5b 	bl	10006748 <usbd_edpt_release>
10006a92:	e7dd      	b.n	10006a50 <tud_cdc_n_read+0x28>
10006a94:	20001690 	.word	0x20001690

10006a98 <tud_cdc_n_write_flush>:
10006a98:	b5f8      	push	{r3, r4, r5, r6, r7, lr}
10006a9a:	0004      	movs	r4, r0
10006a9c:	f7ff f8fe 	bl	10005c9c <tud_mounted>
10006aa0:	2800      	cmp	r0, #0
10006aa2:	d101      	bne.n	10006aa8 <tud_cdc_n_write_flush+0x10>
10006aa4:	2000      	movs	r0, #0
10006aa6:	bdf8      	pop	{r3, r4, r5, r6, r7, pc}
10006aa8:	f7ff f900 	bl	10005cac <tud_suspended>
10006aac:	2800      	cmp	r0, #0
10006aae:	d1f9      	bne.n	10006aa4 <tud_cdc_n_write_flush+0xc>
10006ab0:	20b2      	movs	r0, #178	; 0xb2
10006ab2:	0080      	lsls	r0, r0, #2
10006ab4:	4344      	muls	r4, r0
10006ab6:	0025      	movs	r5, r4
10006ab8:	4e14      	ldr	r6, [pc, #80]	; (10006b0c <tud_cdc_n_write_flush+0x74>)
10006aba:	3524      	adds	r5, #36	; 0x24
10006abc:	19ad      	adds	r5, r5, r6
10006abe:	0028      	movs	r0, r5
10006ac0:	f000 fb06 	bl	100070d0 <tu_fifo_count>
10006ac4:	2800      	cmp	r0, #0
10006ac6:	d0ed      	beq.n	10006aa4 <tud_cdc_n_write_flush+0xc>
10006ac8:	1937      	adds	r7, r6, r4
10006aca:	2000      	movs	r0, #0
10006acc:	78b9      	ldrb	r1, [r7, #2]
10006ace:	f7ff fe27 	bl	10006720 <usbd_edpt_claim>
10006ad2:	2800      	cmp	r0, #0
10006ad4:	d0e6      	beq.n	10006aa4 <tud_cdc_n_write_flush+0xc>
10006ad6:	23a2      	movs	r3, #162	; 0xa2
10006ad8:	009b      	lsls	r3, r3, #2
10006ada:	469c      	mov	ip, r3
10006adc:	4464      	add	r4, ip
10006ade:	19a4      	adds	r4, r4, r6
10006ae0:	0021      	movs	r1, r4
10006ae2:	0028      	movs	r0, r5
10006ae4:	2240      	movs	r2, #64	; 0x40
10006ae6:	f000 fb77 	bl	100071d8 <tu_fifo_read_n>
10006aea:	78b9      	ldrb	r1, [r7, #2]
10006aec:	1e05      	subs	r5, r0, #0
10006aee:	d008      	beq.n	10006b02 <tud_cdc_n_write_flush+0x6a>
10006af0:	0003      	movs	r3, r0
10006af2:	0022      	movs	r2, r4
10006af4:	2000      	movs	r0, #0
10006af6:	f7ff fe3b 	bl	10006770 <usbd_edpt_xfer>
10006afa:	2800      	cmp	r0, #0
10006afc:	d0d2      	beq.n	10006aa4 <tud_cdc_n_write_flush+0xc>
10006afe:	0028      	movs	r0, r5
10006b00:	e7d1      	b.n	10006aa6 <tud_cdc_n_write_flush+0xe>
10006b02:	2000      	movs	r0, #0
10006b04:	f7ff fe20 	bl	10006748 <usbd_edpt_release>
10006b08:	e7cc      	b.n	10006aa4 <tud_cdc_n_write_flush+0xc>
10006b0a:	46c0      	nop			; (mov r8, r8)
10006b0c:	20001690 	.word	0x20001690

10006b10 <tud_cdc_n_write>:
10006b10:	b570      	push	{r4, r5, r6, lr}
10006b12:	24b2      	movs	r4, #178	; 0xb2
10006b14:	00a4      	lsls	r4, r4, #2
10006b16:	4344      	muls	r4, r0
10006b18:	4b09      	ldr	r3, [pc, #36]	; (10006b40 <tud_cdc_n_write+0x30>)
10006b1a:	3424      	adds	r4, #36	; 0x24
10006b1c:	18e4      	adds	r4, r4, r3
10006b1e:	0005      	movs	r5, r0
10006b20:	b292      	uxth	r2, r2
10006b22:	0020      	movs	r0, r4
10006b24:	f000 fc12 	bl	1000734c <tu_fifo_write_n>
10006b28:	0006      	movs	r6, r0
10006b2a:	0020      	movs	r0, r4
10006b2c:	f000 fad0 	bl	100070d0 <tu_fifo_count>
10006b30:	283f      	cmp	r0, #63	; 0x3f
10006b32:	d801      	bhi.n	10006b38 <tud_cdc_n_write+0x28>
10006b34:	0030      	movs	r0, r6
10006b36:	bd70      	pop	{r4, r5, r6, pc}
10006b38:	0028      	movs	r0, r5
10006b3a:	f7ff ffad 	bl	10006a98 <tud_cdc_n_write_flush>
10006b3e:	e7f9      	b.n	10006b34 <tud_cdc_n_write+0x24>
10006b40:	20001690 	.word	0x20001690

10006b44 <tud_cdc_n_write_available>:
10006b44:	23b2      	movs	r3, #178	; 0xb2
10006b46:	009b      	lsls	r3, r3, #2
10006b48:	4358      	muls	r0, r3
10006b4a:	b510      	push	{r4, lr}
10006b4c:	4b02      	ldr	r3, [pc, #8]	; (10006b58 <tud_cdc_n_write_available+0x14>)
10006b4e:	3024      	adds	r0, #36	; 0x24
10006b50:	18c0      	adds	r0, r0, r3
10006b52:	f000 fadb 	bl	1000710c <tu_fifo_remaining>
10006b56:	bd10      	pop	{r4, pc}
10006b58:	20001690 	.word	0x20001690

10006b5c <cdcd_init>:
10006b5c:	22b2      	movs	r2, #178	; 0xb2
10006b5e:	b5f0      	push	{r4, r5, r6, r7, lr}
10006b60:	4c1b      	ldr	r4, [pc, #108]	; (10006bd0 <cdcd_init+0x74>)
10006b62:	b083      	sub	sp, #12
10006b64:	2100      	movs	r1, #0
10006b66:	0020      	movs	r0, r4
10006b68:	0092      	lsls	r2, r2, #2
10006b6a:	f7fe f969 	bl	10004e40 <__wrap_memset>
10006b6e:	23ff      	movs	r3, #255	; 0xff
10006b70:	7163      	strb	r3, [r4, #5]
10006b72:	4b18      	ldr	r3, [pc, #96]	; (10006bd4 <cdcd_init+0x78>)
10006b74:	2680      	movs	r6, #128	; 0x80
10006b76:	2500      	movs	r5, #0
10006b78:	80e3      	strh	r3, [r4, #6]
10006b7a:	2701      	movs	r7, #1
10006b7c:	2308      	movs	r3, #8
10006b7e:	0021      	movs	r1, r4
10006b80:	0020      	movs	r0, r4
10006b82:	0076      	lsls	r6, r6, #1
10006b84:	7323      	strb	r3, [r4, #12]
10006b86:	0032      	movs	r2, r6
10006b88:	8127      	strh	r7, [r4, #8]
10006b8a:	3138      	adds	r1, #56	; 0x38
10006b8c:	9500      	str	r5, [sp, #0]
10006b8e:	3b07      	subs	r3, #7
10006b90:	3010      	adds	r0, #16
10006b92:	f000 fa65 	bl	10007060 <tu_fifo_config>
10006b96:	0021      	movs	r1, r4
10006b98:	0020      	movs	r0, r4
10006b9a:	3139      	adds	r1, #57	; 0x39
10006b9c:	0032      	movs	r2, r6
10006b9e:	31ff      	adds	r1, #255	; 0xff
10006ba0:	2301      	movs	r3, #1
10006ba2:	9700      	str	r7, [sp, #0]
10006ba4:	3024      	adds	r0, #36	; 0x24
10006ba6:	f000 fa5b 	bl	10007060 <tu_fifo_config>
10006baa:	238e      	movs	r3, #142	; 0x8e
10006bac:	009b      	lsls	r3, r3, #2
10006bae:	18e6      	adds	r6, r4, r3
10006bb0:	0030      	movs	r0, r6
10006bb2:	f7fa fcfb 	bl	100015ac <mutex_init>
10006bb6:	2390      	movs	r3, #144	; 0x90
10006bb8:	009b      	lsls	r3, r3, #2
10006bba:	6226      	str	r6, [r4, #32]
10006bbc:	18e6      	adds	r6, r4, r3
10006bbe:	0030      	movs	r0, r6
10006bc0:	61e5      	str	r5, [r4, #28]
10006bc2:	f7fa fcf3 	bl	100015ac <mutex_init>
10006bc6:	6326      	str	r6, [r4, #48]	; 0x30
10006bc8:	6365      	str	r5, [r4, #52]	; 0x34
10006bca:	b003      	add	sp, #12
10006bcc:	bdf0      	pop	{r4, r5, r6, r7, pc}
10006bce:	46c0      	nop			; (mov r8, r8)
10006bd0:	20001690 	.word	0x20001690
10006bd4:	ffffc200 	.word	0xffffc200

10006bd8 <cdcd_reset>:
10006bd8:	b510      	push	{r4, lr}
10006bda:	4c09      	ldr	r4, [pc, #36]	; (10006c00 <cdcd_reset+0x28>)
10006bdc:	2205      	movs	r2, #5
10006bde:	2100      	movs	r1, #0
10006be0:	0020      	movs	r0, r4
10006be2:	f7fe f92d 	bl	10004e40 <__wrap_memset>
10006be6:	0020      	movs	r0, r4
10006be8:	3424      	adds	r4, #36	; 0x24
10006bea:	3010      	adds	r0, #16
10006bec:	f000 fc62 	bl	100074b4 <tu_fifo_clear>
10006bf0:	0020      	movs	r0, r4
10006bf2:	f000 fc5f 	bl	100074b4 <tu_fifo_clear>
10006bf6:	2101      	movs	r1, #1
10006bf8:	0020      	movs	r0, r4
10006bfa:	f000 fc7b 	bl	100074f4 <tu_fifo_set_overwritable>
10006bfe:	bd10      	pop	{r4, pc}
10006c00:	20001690 	.word	0x20001690

10006c04 <cdcd_open>:
10006c04:	b5f0      	push	{r4, r5, r6, r7, lr}
10006c06:	794b      	ldrb	r3, [r1, #5]
10006c08:	0006      	movs	r6, r0
10006c0a:	b083      	sub	sp, #12
10006c0c:	2b02      	cmp	r3, #2
10006c0e:	d102      	bne.n	10006c16 <cdcd_open+0x12>
10006c10:	798b      	ldrb	r3, [r1, #6]
10006c12:	2b02      	cmp	r3, #2
10006c14:	d003      	beq.n	10006c1e <cdcd_open+0x1a>
10006c16:	2500      	movs	r5, #0
10006c18:	0028      	movs	r0, r5
10006c1a:	b003      	add	sp, #12
10006c1c:	bdf0      	pop	{r4, r5, r6, r7, pc}
10006c1e:	4f30      	ldr	r7, [pc, #192]	; (10006ce0 <cdcd_open+0xdc>)
10006c20:	78bb      	ldrb	r3, [r7, #2]
10006c22:	2b00      	cmp	r3, #0
10006c24:	d1f7      	bne.n	10006c16 <cdcd_open+0x12>
10006c26:	788b      	ldrb	r3, [r1, #2]
10006c28:	2509      	movs	r5, #9
10006c2a:	703b      	strb	r3, [r7, #0]
10006c2c:	780c      	ldrb	r4, [r1, #0]
10006c2e:	190c      	adds	r4, r1, r4
10006c30:	7863      	ldrb	r3, [r4, #1]
10006c32:	2b24      	cmp	r3, #36	; 0x24
10006c34:	d10b      	bne.n	10006c4e <cdcd_open+0x4a>
10006c36:	2a08      	cmp	r2, #8
10006c38:	d802      	bhi.n	10006c40 <cdcd_open+0x3c>
10006c3a:	e00f      	b.n	10006c5c <cdcd_open+0x58>
10006c3c:	42aa      	cmp	r2, r5
10006c3e:	d30d      	bcc.n	10006c5c <cdcd_open+0x58>
10006c40:	7823      	ldrb	r3, [r4, #0]
10006c42:	18e4      	adds	r4, r4, r3
10006c44:	18ed      	adds	r5, r5, r3
10006c46:	7863      	ldrb	r3, [r4, #1]
10006c48:	b2ad      	uxth	r5, r5
10006c4a:	2b24      	cmp	r3, #36	; 0x24
10006c4c:	d0f6      	beq.n	10006c3c <cdcd_open+0x38>
10006c4e:	2b05      	cmp	r3, #5
10006c50:	d021      	beq.n	10006c96 <cdcd_open+0x92>
10006c52:	2b04      	cmp	r3, #4
10006c54:	d102      	bne.n	10006c5c <cdcd_open+0x58>
10006c56:	7963      	ldrb	r3, [r4, #5]
10006c58:	2b0a      	cmp	r3, #10
10006c5a:	d02f      	beq.n	10006cbc <cdcd_open+0xb8>
10006c5c:	4c21      	ldr	r4, [pc, #132]	; (10006ce4 <cdcd_open+0xe0>)
10006c5e:	0020      	movs	r0, r4
10006c60:	f000 fa54 	bl	1000710c <tu_fifo_remaining>
10006c64:	283f      	cmp	r0, #63	; 0x3f
10006c66:	d9d7      	bls.n	10006c18 <cdcd_open+0x14>
10006c68:	0026      	movs	r6, r4
10006c6a:	3e10      	subs	r6, #16
10006c6c:	2000      	movs	r0, #0
10006c6e:	78f1      	ldrb	r1, [r6, #3]
10006c70:	f7ff fd56 	bl	10006720 <usbd_edpt_claim>
10006c74:	2800      	cmp	r0, #0
10006c76:	d0cf      	beq.n	10006c18 <cdcd_open+0x14>
10006c78:	0020      	movs	r0, r4
10006c7a:	f000 fa47 	bl	1000710c <tu_fifo_remaining>
10006c7e:	283f      	cmp	r0, #63	; 0x3f
10006c80:	d917      	bls.n	10006cb2 <cdcd_open+0xae>
10006c82:	238e      	movs	r3, #142	; 0x8e
10006c84:	009b      	lsls	r3, r3, #2
10006c86:	18e2      	adds	r2, r4, r3
10006c88:	3bf9      	subs	r3, #249	; 0xf9
10006c8a:	78f1      	ldrb	r1, [r6, #3]
10006c8c:	3bff      	subs	r3, #255	; 0xff
10006c8e:	2000      	movs	r0, #0
10006c90:	f7ff fd6e 	bl	10006770 <usbd_edpt_xfer>
10006c94:	e7c0      	b.n	10006c18 <cdcd_open+0x14>
10006c96:	0021      	movs	r1, r4
10006c98:	0030      	movs	r0, r6
10006c9a:	f7ff fd27 	bl	100066ec <usbd_edpt_open>
10006c9e:	2800      	cmp	r0, #0
10006ca0:	d0b9      	beq.n	10006c16 <cdcd_open+0x12>
10006ca2:	78a3      	ldrb	r3, [r4, #2]
10006ca4:	707b      	strb	r3, [r7, #1]
10006ca6:	7823      	ldrb	r3, [r4, #0]
10006ca8:	18ed      	adds	r5, r5, r3
10006caa:	18e4      	adds	r4, r4, r3
10006cac:	7863      	ldrb	r3, [r4, #1]
10006cae:	b2ad      	uxth	r5, r5
10006cb0:	e7cf      	b.n	10006c52 <cdcd_open+0x4e>
10006cb2:	78f1      	ldrb	r1, [r6, #3]
10006cb4:	2000      	movs	r0, #0
10006cb6:	f7ff fd47 	bl	10006748 <usbd_edpt_release>
10006cba:	e7ad      	b.n	10006c18 <cdcd_open+0x14>
10006cbc:	4b0a      	ldr	r3, [pc, #40]	; (10006ce8 <cdcd_open+0xe4>)
10006cbe:	7827      	ldrb	r7, [r4, #0]
10006cc0:	9301      	str	r3, [sp, #4]
10006cc2:	3301      	adds	r3, #1
10006cc4:	9300      	str	r3, [sp, #0]
10006cc6:	2202      	movs	r2, #2
10006cc8:	2302      	movs	r3, #2
10006cca:	0030      	movs	r0, r6
10006ccc:	19e1      	adds	r1, r4, r7
10006cce:	f7ff fc9b 	bl	10006608 <usbd_open_edpt_pair>
10006cd2:	2800      	cmp	r0, #0
10006cd4:	d09f      	beq.n	10006c16 <cdcd_open+0x12>
10006cd6:	350e      	adds	r5, #14
10006cd8:	19ed      	adds	r5, r5, r7
10006cda:	b2ad      	uxth	r5, r5
10006cdc:	e7be      	b.n	10006c5c <cdcd_open+0x58>
10006cde:	46c0      	nop			; (mov r8, r8)
10006ce0:	20001690 	.word	0x20001690
10006ce4:	200016a0 	.word	0x200016a0
10006ce8:	20001692 	.word	0x20001692

10006cec <cdcd_control_xfer_cb>:
10006cec:	b5f8      	push	{r3, r4, r5, r6, r7, lr}
10006cee:	2360      	movs	r3, #96	; 0x60
10006cf0:	0014      	movs	r4, r2
10006cf2:	7812      	ldrb	r2, [r2, #0]
10006cf4:	0005      	movs	r5, r0
10006cf6:	4013      	ands	r3, r2
10006cf8:	2000      	movs	r0, #0
10006cfa:	2b20      	cmp	r3, #32
10006cfc:	d112      	bne.n	10006d24 <cdcd_control_xfer_cb+0x38>
10006cfe:	4a2f      	ldr	r2, [pc, #188]	; (10006dbc <cdcd_control_xfer_cb+0xd0>)
10006d00:	7963      	ldrb	r3, [r4, #5]
10006d02:	7927      	ldrb	r7, [r4, #4]
10006d04:	7816      	ldrb	r6, [r2, #0]
10006d06:	021b      	lsls	r3, r3, #8
10006d08:	433b      	orrs	r3, r7
10006d0a:	429e      	cmp	r6, r3
10006d0c:	d10a      	bne.n	10006d24 <cdcd_control_xfer_cb+0x38>
10006d0e:	7863      	ldrb	r3, [r4, #1]
10006d10:	2b22      	cmp	r3, #34	; 0x22
10006d12:	d027      	beq.n	10006d64 <cdcd_control_xfer_cb+0x78>
10006d14:	d807      	bhi.n	10006d26 <cdcd_control_xfer_cb+0x3a>
10006d16:	2b20      	cmp	r3, #32
10006d18:	d017      	beq.n	10006d4a <cdcd_control_xfer_cb+0x5e>
10006d1a:	2b21      	cmp	r3, #33	; 0x21
10006d1c:	d102      	bne.n	10006d24 <cdcd_control_xfer_cb+0x38>
10006d1e:	2901      	cmp	r1, #1
10006d20:	d03d      	beq.n	10006d9e <cdcd_control_xfer_cb+0xb2>
10006d22:	2001      	movs	r0, #1
10006d24:	bdf8      	pop	{r3, r4, r5, r6, r7, pc}
10006d26:	2b23      	cmp	r3, #35	; 0x23
10006d28:	d1fc      	bne.n	10006d24 <cdcd_control_xfer_cb+0x38>
10006d2a:	2901      	cmp	r1, #1
10006d2c:	d03f      	beq.n	10006dae <cdcd_control_xfer_cb+0xc2>
10006d2e:	2903      	cmp	r1, #3
10006d30:	d1f7      	bne.n	10006d22 <cdcd_control_xfer_cb+0x36>
10006d32:	4b23      	ldr	r3, [pc, #140]	; (10006dc0 <cdcd_control_xfer_cb+0xd4>)
10006d34:	2b00      	cmp	r3, #0
10006d36:	d0f4      	beq.n	10006d22 <cdcd_control_xfer_cb+0x36>
10006d38:	78e1      	ldrb	r1, [r4, #3]
10006d3a:	78a3      	ldrb	r3, [r4, #2]
10006d3c:	0209      	lsls	r1, r1, #8
10006d3e:	2000      	movs	r0, #0
10006d40:	4319      	orrs	r1, r3
10006d42:	e000      	b.n	10006d46 <cdcd_control_xfer_cb+0x5a>
10006d44:	bf00      	nop
10006d46:	2001      	movs	r0, #1
10006d48:	e7ec      	b.n	10006d24 <cdcd_control_xfer_cb+0x38>
10006d4a:	2901      	cmp	r1, #1
10006d4c:	d027      	beq.n	10006d9e <cdcd_control_xfer_cb+0xb2>
10006d4e:	2903      	cmp	r1, #3
10006d50:	d1e7      	bne.n	10006d22 <cdcd_control_xfer_cb+0x36>
10006d52:	4b1c      	ldr	r3, [pc, #112]	; (10006dc4 <cdcd_control_xfer_cb+0xd8>)
10006d54:	2b00      	cmp	r3, #0
10006d56:	d0e4      	beq.n	10006d22 <cdcd_control_xfer_cb+0x36>
10006d58:	2000      	movs	r0, #0
10006d5a:	1d91      	adds	r1, r2, #6
10006d5c:	f7fe fae2 	bl	10005324 <tud_cdc_line_coding_cb>
10006d60:	2001      	movs	r0, #1
10006d62:	e7df      	b.n	10006d24 <cdcd_control_xfer_cb+0x38>
10006d64:	2901      	cmp	r1, #1
10006d66:	d022      	beq.n	10006dae <cdcd_control_xfer_cb+0xc2>
10006d68:	2903      	cmp	r1, #3
10006d6a:	d1da      	bne.n	10006d22 <cdcd_control_xfer_cb+0x36>
10006d6c:	2501      	movs	r5, #1
10006d6e:	002e      	movs	r6, r5
10006d70:	78a3      	ldrb	r3, [r4, #2]
10006d72:	78e4      	ldrb	r4, [r4, #3]
10006d74:	3902      	subs	r1, #2
10006d76:	0224      	lsls	r4, r4, #8
10006d78:	431c      	orrs	r4, r3
10006d7a:	7114      	strb	r4, [r2, #4]
10006d7c:	4026      	ands	r6, r4
10006d7e:	3224      	adds	r2, #36	; 0x24
10006d80:	0010      	movs	r0, r2
10006d82:	4071      	eors	r1, r6
10006d84:	f000 fbb6 	bl	100074f4 <tu_fifo_set_overwritable>
10006d88:	4b0f      	ldr	r3, [pc, #60]	; (10006dc8 <cdcd_control_xfer_cb+0xdc>)
10006d8a:	2b00      	cmp	r3, #0
10006d8c:	d0c9      	beq.n	10006d22 <cdcd_control_xfer_cb+0x36>
10006d8e:	0862      	lsrs	r2, r4, #1
10006d90:	2000      	movs	r0, #0
10006d92:	0031      	movs	r1, r6
10006d94:	402a      	ands	r2, r5
10006d96:	e000      	b.n	10006d9a <cdcd_control_xfer_cb+0xae>
10006d98:	bf00      	nop
10006d9a:	2001      	movs	r0, #1
10006d9c:	e7c2      	b.n	10006d24 <cdcd_control_xfer_cb+0x38>
10006d9e:	2307      	movs	r3, #7
10006da0:	0021      	movs	r1, r4
10006da2:	0028      	movs	r0, r5
10006da4:	4a09      	ldr	r2, [pc, #36]	; (10006dcc <cdcd_control_xfer_cb+0xe0>)
10006da6:	f7ff fd21 	bl	100067ec <tud_control_xfer>
10006daa:	2001      	movs	r0, #1
10006dac:	e7ba      	b.n	10006d24 <cdcd_control_xfer_cb+0x38>
10006dae:	0021      	movs	r1, r4
10006db0:	0028      	movs	r0, r5
10006db2:	f7ff fd03 	bl	100067bc <tud_control_status>
10006db6:	2001      	movs	r0, #1
10006db8:	e7b4      	b.n	10006d24 <cdcd_control_xfer_cb+0x38>
10006dba:	46c0      	nop			; (mov r8, r8)
10006dbc:	20001690 	.word	0x20001690
10006dc0:	00000000 	.word	0x00000000
10006dc4:	10005325 	.word	0x10005325
10006dc8:	00000000 	.word	0x00000000
10006dcc:	20001696 	.word	0x20001696

10006dd0 <cdcd_xfer_cb>:
10006dd0:	b5f8      	push	{r3, r4, r5, r6, r7, lr}
10006dd2:	4657      	mov	r7, sl
10006dd4:	464e      	mov	r6, r9
10006dd6:	4645      	mov	r5, r8
10006dd8:	46de      	mov	lr, fp
10006dda:	b5e0      	push	{r5, r6, r7, lr}
10006ddc:	4f49      	ldr	r7, [pc, #292]	; (10006f04 <cdcd_xfer_cb+0x134>)
10006dde:	4680      	mov	r8, r0
10006de0:	78fa      	ldrb	r2, [r7, #3]
10006de2:	000c      	movs	r4, r1
10006de4:	001e      	movs	r6, r3
10006de6:	428a      	cmp	r2, r1
10006de8:	d164      	bne.n	10006eb4 <cdcd_xfer_cb+0xe4>
10006dea:	b29a      	uxth	r2, r3
10006dec:	2392      	movs	r3, #146	; 0x92
10006dee:	009b      	lsls	r3, r3, #2
10006df0:	18fd      	adds	r5, r7, r3
10006df2:	2310      	movs	r3, #16
10006df4:	469b      	mov	fp, r3
10006df6:	44bb      	add	fp, r7
10006df8:	0029      	movs	r1, r5
10006dfa:	4658      	mov	r0, fp
10006dfc:	f000 faa6 	bl	1000734c <tu_fifo_write_n>
10006e00:	4b41      	ldr	r3, [pc, #260]	; (10006f08 <cdcd_xfer_cb+0x138>)
10006e02:	46d9      	mov	r9, fp
10006e04:	2b00      	cmp	r3, #0
10006e06:	d018      	beq.n	10006e3a <cdcd_xfer_cb+0x6a>
10006e08:	797b      	ldrb	r3, [r7, #5]
10006e0a:	46d9      	mov	r9, fp
10006e0c:	2bff      	cmp	r3, #255	; 0xff
10006e0e:	d014      	beq.n	10006e3a <cdcd_xfer_cb+0x6a>
10006e10:	2e00      	cmp	r6, #0
10006e12:	d012      	beq.n	10006e3a <cdcd_xfer_cb+0x6a>
10006e14:	19aa      	adds	r2, r5, r6
10006e16:	4692      	mov	sl, r2
10006e18:	e003      	b.n	10006e22 <cdcd_xfer_cb+0x52>
10006e1a:	3501      	adds	r5, #1
10006e1c:	4555      	cmp	r5, sl
10006e1e:	d00c      	beq.n	10006e3a <cdcd_xfer_cb+0x6a>
10006e20:	797b      	ldrb	r3, [r7, #5]
10006e22:	782a      	ldrb	r2, [r5, #0]
10006e24:	429a      	cmp	r2, r3
10006e26:	d1f8      	bne.n	10006e1a <cdcd_xfer_cb+0x4a>
10006e28:	4648      	mov	r0, r9
10006e2a:	f000 f967 	bl	100070fc <tu_fifo_empty>
10006e2e:	2800      	cmp	r0, #0
10006e30:	d1f3      	bne.n	10006e1a <cdcd_xfer_cb+0x4a>
10006e32:	7979      	ldrb	r1, [r7, #5]
10006e34:	e000      	b.n	10006e38 <cdcd_xfer_cb+0x68>
10006e36:	bf00      	nop
10006e38:	e7ef      	b.n	10006e1a <cdcd_xfer_cb+0x4a>
10006e3a:	4b34      	ldr	r3, [pc, #208]	; (10006f0c <cdcd_xfer_cb+0x13c>)
10006e3c:	2b00      	cmp	r3, #0
10006e3e:	d004      	beq.n	10006e4a <cdcd_xfer_cb+0x7a>
10006e40:	4648      	mov	r0, r9
10006e42:	f000 f95b 	bl	100070fc <tu_fifo_empty>
10006e46:	2800      	cmp	r0, #0
10006e48:	d052      	beq.n	10006ef0 <cdcd_xfer_cb+0x120>
10006e4a:	4648      	mov	r0, r9
10006e4c:	f000 f95e 	bl	1000710c <tu_fifo_remaining>
10006e50:	283f      	cmp	r0, #63	; 0x3f
10006e52:	d834      	bhi.n	10006ebe <cdcd_xfer_cb+0xee>
10006e54:	464a      	mov	r2, r9
10006e56:	3a10      	subs	r2, #16
10006e58:	7893      	ldrb	r3, [r2, #2]
10006e5a:	42a3      	cmp	r3, r4
10006e5c:	d007      	beq.n	10006e6e <cdcd_xfer_cb+0x9e>
10006e5e:	2401      	movs	r4, #1
10006e60:	0020      	movs	r0, r4
10006e62:	bcf0      	pop	{r4, r5, r6, r7}
10006e64:	46bb      	mov	fp, r7
10006e66:	46b2      	mov	sl, r6
10006e68:	46a9      	mov	r9, r5
10006e6a:	46a0      	mov	r8, r4
10006e6c:	bdf8      	pop	{r3, r4, r5, r6, r7, pc}
10006e6e:	4b28      	ldr	r3, [pc, #160]	; (10006f10 <cdcd_xfer_cb+0x140>)
10006e70:	2b00      	cmp	r3, #0
10006e72:	d002      	beq.n	10006e7a <cdcd_xfer_cb+0xaa>
10006e74:	2000      	movs	r0, #0
10006e76:	e000      	b.n	10006e7a <cdcd_xfer_cb+0xaa>
10006e78:	bf00      	nop
10006e7a:	2000      	movs	r0, #0
10006e7c:	f7ff fe0c 	bl	10006a98 <tud_cdc_n_write_flush>
10006e80:	2800      	cmp	r0, #0
10006e82:	d1ec      	bne.n	10006e5e <cdcd_xfer_cb+0x8e>
10006e84:	4d23      	ldr	r5, [pc, #140]	; (10006f14 <cdcd_xfer_cb+0x144>)
10006e86:	0028      	movs	r0, r5
10006e88:	f000 f922 	bl	100070d0 <tu_fifo_count>
10006e8c:	2800      	cmp	r0, #0
10006e8e:	d1e6      	bne.n	10006e5e <cdcd_xfer_cb+0x8e>
10006e90:	2e00      	cmp	r6, #0
10006e92:	d0e4      	beq.n	10006e5e <cdcd_xfer_cb+0x8e>
10006e94:	06b3      	lsls	r3, r6, #26
10006e96:	d1e2      	bne.n	10006e5e <cdcd_xfer_cb+0x8e>
10006e98:	3d24      	subs	r5, #36	; 0x24
10006e9a:	4640      	mov	r0, r8
10006e9c:	78a9      	ldrb	r1, [r5, #2]
10006e9e:	f7ff fc3f 	bl	10006720 <usbd_edpt_claim>
10006ea2:	1e04      	subs	r4, r0, #0
10006ea4:	d0db      	beq.n	10006e5e <cdcd_xfer_cb+0x8e>
10006ea6:	2300      	movs	r3, #0
10006ea8:	2200      	movs	r2, #0
10006eaa:	4640      	mov	r0, r8
10006eac:	78a9      	ldrb	r1, [r5, #2]
10006eae:	f7ff fc5f 	bl	10006770 <usbd_edpt_xfer>
10006eb2:	e7d5      	b.n	10006e60 <cdcd_xfer_cb+0x90>
10006eb4:	78bb      	ldrb	r3, [r7, #2]
10006eb6:	428b      	cmp	r3, r1
10006eb8:	d0d9      	beq.n	10006e6e <cdcd_xfer_cb+0x9e>
10006eba:	2400      	movs	r4, #0
10006ebc:	e7d0      	b.n	10006e60 <cdcd_xfer_cb+0x90>
10006ebe:	464d      	mov	r5, r9
10006ec0:	3d10      	subs	r5, #16
10006ec2:	2000      	movs	r0, #0
10006ec4:	78e9      	ldrb	r1, [r5, #3]
10006ec6:	f7ff fc2b 	bl	10006720 <usbd_edpt_claim>
10006eca:	2800      	cmp	r0, #0
10006ecc:	d101      	bne.n	10006ed2 <cdcd_xfer_cb+0x102>
10006ece:	78ab      	ldrb	r3, [r5, #2]
10006ed0:	e7c3      	b.n	10006e5a <cdcd_xfer_cb+0x8a>
10006ed2:	4648      	mov	r0, r9
10006ed4:	f000 f91a 	bl	1000710c <tu_fifo_remaining>
10006ed8:	283f      	cmp	r0, #63	; 0x3f
10006eda:	d90c      	bls.n	10006ef6 <cdcd_xfer_cb+0x126>
10006edc:	228e      	movs	r2, #142	; 0x8e
10006ede:	0092      	lsls	r2, r2, #2
10006ee0:	2340      	movs	r3, #64	; 0x40
10006ee2:	2000      	movs	r0, #0
10006ee4:	78e9      	ldrb	r1, [r5, #3]
10006ee6:	444a      	add	r2, r9
10006ee8:	f7ff fc42 	bl	10006770 <usbd_edpt_xfer>
10006eec:	78ab      	ldrb	r3, [r5, #2]
10006eee:	e7b4      	b.n	10006e5a <cdcd_xfer_cb+0x8a>
10006ef0:	f7fe fb8a 	bl	10005608 <tud_cdc_rx_cb>
10006ef4:	e7a9      	b.n	10006e4a <cdcd_xfer_cb+0x7a>
10006ef6:	2000      	movs	r0, #0
10006ef8:	78e9      	ldrb	r1, [r5, #3]
10006efa:	f7ff fc25 	bl	10006748 <usbd_edpt_release>
10006efe:	78ab      	ldrb	r3, [r5, #2]
10006f00:	e7ab      	b.n	10006e5a <cdcd_xfer_cb+0x8a>
10006f02:	46c0      	nop			; (mov r8, r8)
10006f04:	20001690 	.word	0x20001690
10006f08:	00000000 	.word	0x00000000
10006f0c:	10005609 	.word	0x10005609
10006f10:	00000000 	.word	0x00000000
10006f14:	200016b4 	.word	0x200016b4

10006f18 <tusb_init>:
10006f18:	b510      	push	{r4, lr}
10006f1a:	2000      	movs	r0, #0
10006f1c:	f7fe fed8 	bl	10005cd0 <tud_init>
10006f20:	bd10      	pop	{r4, pc}
10006f22:	46c0      	nop			; (mov r8, r8)

10006f24 <tusb_inited>:
10006f24:	b510      	push	{r4, lr}
10006f26:	f7fe fec9 	bl	10005cbc <tud_inited>
10006f2a:	bd10      	pop	{r4, pc}

10006f2c <tu_edpt_claim>:
10006f2c:	7803      	ldrb	r3, [r0, #0]
10006f2e:	b570      	push	{r4, r5, r6, lr}
10006f30:	07db      	lsls	r3, r3, #31
10006f32:	0004      	movs	r4, r0
10006f34:	000e      	movs	r6, r1
10006f36:	0fdd      	lsrs	r5, r3, #31
10006f38:	2b00      	cmp	r3, #0
10006f3a:	d117      	bne.n	10006f6c <tu_edpt_claim+0x40>
10006f3c:	7803      	ldrb	r3, [r0, #0]
10006f3e:	075b      	lsls	r3, r3, #29
10006f40:	d501      	bpl.n	10006f46 <tu_edpt_claim+0x1a>
10006f42:	0028      	movs	r0, r5
10006f44:	bd70      	pop	{r4, r5, r6, pc}
10006f46:	2101      	movs	r1, #1
10006f48:	0030      	movs	r0, r6
10006f4a:	4249      	negs	r1, r1
10006f4c:	f000 fd94 	bl	10007a78 <__mutex_enter_timeout_ms_veneer>
10006f50:	7823      	ldrb	r3, [r4, #0]
10006f52:	07db      	lsls	r3, r3, #31
10006f54:	0fdd      	lsrs	r5, r3, #31
10006f56:	2b00      	cmp	r3, #0
10006f58:	d10a      	bne.n	10006f70 <tu_edpt_claim+0x44>
10006f5a:	7823      	ldrb	r3, [r4, #0]
10006f5c:	075b      	lsls	r3, r3, #29
10006f5e:	d408      	bmi.n	10006f72 <tu_edpt_claim+0x46>
10006f60:	2204      	movs	r2, #4
10006f62:	7823      	ldrb	r3, [r4, #0]
10006f64:	2501      	movs	r5, #1
10006f66:	4313      	orrs	r3, r2
10006f68:	7023      	strb	r3, [r4, #0]
10006f6a:	e002      	b.n	10006f72 <tu_edpt_claim+0x46>
10006f6c:	2500      	movs	r5, #0
10006f6e:	e7e8      	b.n	10006f42 <tu_edpt_claim+0x16>
10006f70:	2500      	movs	r5, #0
10006f72:	0030      	movs	r0, r6
10006f74:	f000 fd50 	bl	10007a18 <__mutex_exit_veneer>
10006f78:	e7e3      	b.n	10006f42 <tu_edpt_claim+0x16>
10006f7a:	46c0      	nop			; (mov r8, r8)

10006f7c <tu_edpt_release>:
10006f7c:	b570      	push	{r4, r5, r6, lr}
10006f7e:	000d      	movs	r5, r1
10006f80:	2101      	movs	r1, #1
10006f82:	0004      	movs	r4, r0
10006f84:	4249      	negs	r1, r1
10006f86:	0028      	movs	r0, r5
10006f88:	f000 fd76 	bl	10007a78 <__mutex_enter_timeout_ms_veneer>
10006f8c:	7823      	ldrb	r3, [r4, #0]
10006f8e:	075b      	lsls	r3, r3, #29
10006f90:	0fde      	lsrs	r6, r3, #31
10006f92:	2b00      	cmp	r3, #0
10006f94:	db04      	blt.n	10006fa0 <tu_edpt_release+0x24>
10006f96:	0028      	movs	r0, r5
10006f98:	f000 fd3e 	bl	10007a18 <__mutex_exit_veneer>
10006f9c:	0030      	movs	r0, r6
10006f9e:	bd70      	pop	{r4, r5, r6, pc}
10006fa0:	7823      	ldrb	r3, [r4, #0]
10006fa2:	07db      	lsls	r3, r3, #31
10006fa4:	d404      	bmi.n	10006fb0 <tu_edpt_release+0x34>
10006fa6:	2204      	movs	r2, #4
10006fa8:	7823      	ldrb	r3, [r4, #0]
10006faa:	4393      	bics	r3, r2
10006fac:	7023      	strb	r3, [r4, #0]
10006fae:	e7f2      	b.n	10006f96 <tu_edpt_release+0x1a>
10006fb0:	2600      	movs	r6, #0
10006fb2:	e7f0      	b.n	10006f96 <tu_edpt_release+0x1a>

10006fb4 <tu_edpt_validate>:
10006fb4:	b510      	push	{r4, lr}
10006fb6:	7943      	ldrb	r3, [r0, #5]
10006fb8:	7904      	ldrb	r4, [r0, #4]
10006fba:	021b      	lsls	r3, r3, #8
10006fbc:	4323      	orrs	r3, r4
10006fbe:	055b      	lsls	r3, r3, #21
10006fc0:	0d5a      	lsrs	r2, r3, #21
10006fc2:	78c3      	ldrb	r3, [r0, #3]
10006fc4:	079b      	lsls	r3, r3, #30
10006fc6:	0f9b      	lsrs	r3, r3, #30
10006fc8:	2b02      	cmp	r3, #2
10006fca:	d005      	beq.n	10006fd8 <tu_edpt_validate+0x24>
10006fcc:	2b03      	cmp	r3, #3
10006fce:	d015      	beq.n	10006ffc <tu_edpt_validate+0x48>
10006fd0:	2000      	movs	r0, #0
10006fd2:	2b01      	cmp	r3, #1
10006fd4:	d008      	beq.n	10006fe8 <tu_edpt_validate+0x34>
10006fd6:	bd10      	pop	{r4, pc}
10006fd8:	2902      	cmp	r1, #2
10006fda:	d01c      	beq.n	10007016 <tu_edpt_validate+0x62>
10006fdc:	2000      	movs	r0, #0
10006fde:	2340      	movs	r3, #64	; 0x40
10006fe0:	4293      	cmp	r3, r2
10006fe2:	4140      	adcs	r0, r0
10006fe4:	b2c0      	uxtb	r0, r0
10006fe6:	e7f6      	b.n	10006fd6 <tu_edpt_validate+0x22>
10006fe8:	3902      	subs	r1, #2
10006fea:	424b      	negs	r3, r1
10006fec:	4159      	adcs	r1, r3
10006fee:	4b0d      	ldr	r3, [pc, #52]	; (10007024 <tu_edpt_validate+0x70>)
10006ff0:	469c      	mov	ip, r3
10006ff2:	4461      	add	r1, ip
10006ff4:	4291      	cmp	r1, r2
10006ff6:	4140      	adcs	r0, r0
10006ff8:	b2c0      	uxtb	r0, r0
10006ffa:	e7ec      	b.n	10006fd6 <tu_edpt_validate+0x22>
10006ffc:	3902      	subs	r1, #2
10006ffe:	424b      	negs	r3, r1
10007000:	4159      	adcs	r1, r3
10007002:	23f0      	movs	r3, #240	; 0xf0
10007004:	2000      	movs	r0, #0
10007006:	4249      	negs	r1, r1
10007008:	009b      	lsls	r3, r3, #2
1000700a:	4019      	ands	r1, r3
1000700c:	3140      	adds	r1, #64	; 0x40
1000700e:	4291      	cmp	r1, r2
10007010:	4140      	adcs	r0, r0
10007012:	b2c0      	uxtb	r0, r0
10007014:	e7df      	b.n	10006fd6 <tu_edpt_validate+0x22>
10007016:	4b04      	ldr	r3, [pc, #16]	; (10007028 <tu_edpt_validate+0x74>)
10007018:	18d3      	adds	r3, r2, r3
1000701a:	425a      	negs	r2, r3
1000701c:	4153      	adcs	r3, r2
1000701e:	b2d8      	uxtb	r0, r3
10007020:	e7d9      	b.n	10006fd6 <tu_edpt_validate+0x22>
10007022:	46c0      	nop			; (mov r8, r8)
10007024:	000003ff 	.word	0x000003ff
10007028:	fffffe00 	.word	0xfffffe00

1000702c <tu_edpt_bind_driver>:
1000702c:	188a      	adds	r2, r1, r2
1000702e:	b570      	push	{r4, r5, r6, lr}
10007030:	4291      	cmp	r1, r2
10007032:	d207      	bcs.n	10007044 <tu_edpt_bind_driver+0x18>
10007034:	267f      	movs	r6, #127	; 0x7f
10007036:	784c      	ldrb	r4, [r1, #1]
10007038:	2c05      	cmp	r4, #5
1000703a:	d004      	beq.n	10007046 <tu_edpt_bind_driver+0x1a>
1000703c:	780c      	ldrb	r4, [r1, #0]
1000703e:	1909      	adds	r1, r1, r4
10007040:	428a      	cmp	r2, r1
10007042:	d8f8      	bhi.n	10007036 <tu_edpt_bind_driver+0xa>
10007044:	bd70      	pop	{r4, r5, r6, pc}
10007046:	0034      	movs	r4, r6
10007048:	788d      	ldrb	r5, [r1, #2]
1000704a:	402c      	ands	r4, r5
1000704c:	0064      	lsls	r4, r4, #1
1000704e:	1904      	adds	r4, r0, r4
10007050:	09ed      	lsrs	r5, r5, #7
10007052:	5563      	strb	r3, [r4, r5]
10007054:	780c      	ldrb	r4, [r1, #0]
10007056:	1909      	adds	r1, r1, r4
10007058:	428a      	cmp	r2, r1
1000705a:	d8ec      	bhi.n	10007036 <tu_edpt_bind_driver+0xa>
1000705c:	e7f2      	b.n	10007044 <tu_edpt_bind_driver+0x18>
1000705e:	46c0      	nop			; (mov r8, r8)

10007060 <tu_fifo_config>:
10007060:	b5f0      	push	{r4, r5, r6, r7, lr}
10007062:	46c6      	mov	lr, r8
10007064:	b500      	push	{lr}
10007066:	0004      	movs	r4, r0
10007068:	a806      	add	r0, sp, #24
1000706a:	7805      	ldrb	r5, [r0, #0]
1000706c:	2080      	movs	r0, #128	; 0x80
1000706e:	4688      	mov	r8, r1
10007070:	0017      	movs	r7, r2
10007072:	001e      	movs	r6, r3
10007074:	0200      	lsls	r0, r0, #8
10007076:	4282      	cmp	r2, r0
10007078:	d827      	bhi.n	100070ca <tu_fifo_config+0x6a>
1000707a:	68e0      	ldr	r0, [r4, #12]
1000707c:	2800      	cmp	r0, #0
1000707e:	d003      	beq.n	10007088 <tu_fifo_config+0x28>
10007080:	2101      	movs	r1, #1
10007082:	4249      	negs	r1, r1
10007084:	f000 fcf8 	bl	10007a78 <__mutex_enter_timeout_ms_veneer>
10007088:	6920      	ldr	r0, [r4, #16]
1000708a:	2800      	cmp	r0, #0
1000708c:	d003      	beq.n	10007096 <tu_fifo_config+0x36>
1000708e:	2101      	movs	r1, #1
10007090:	4249      	negs	r1, r1
10007092:	f000 fcf1 	bl	10007a78 <__mutex_enter_timeout_ms_veneer>
10007096:	4643      	mov	r3, r8
10007098:	6023      	str	r3, [r4, #0]
1000709a:	0473      	lsls	r3, r6, #17
1000709c:	0c5b      	lsrs	r3, r3, #17
1000709e:	03ed      	lsls	r5, r5, #15
100070a0:	431d      	orrs	r5, r3
100070a2:	2300      	movs	r3, #0
100070a4:	68e0      	ldr	r0, [r4, #12]
100070a6:	8163      	strh	r3, [r4, #10]
100070a8:	80a7      	strh	r7, [r4, #4]
100070aa:	80e5      	strh	r5, [r4, #6]
100070ac:	8123      	strh	r3, [r4, #8]
100070ae:	2800      	cmp	r0, #0
100070b0:	d001      	beq.n	100070b6 <tu_fifo_config+0x56>
100070b2:	f000 fcb1 	bl	10007a18 <__mutex_exit_veneer>
100070b6:	6920      	ldr	r0, [r4, #16]
100070b8:	2401      	movs	r4, #1
100070ba:	2800      	cmp	r0, #0
100070bc:	d001      	beq.n	100070c2 <tu_fifo_config+0x62>
100070be:	f000 fcab 	bl	10007a18 <__mutex_exit_veneer>
100070c2:	0020      	movs	r0, r4
100070c4:	bc80      	pop	{r7}
100070c6:	46b8      	mov	r8, r7
100070c8:	bdf0      	pop	{r4, r5, r6, r7, pc}
100070ca:	2400      	movs	r4, #0
100070cc:	e7f9      	b.n	100070c2 <tu_fifo_config+0x62>
100070ce:	46c0      	nop			; (mov r8, r8)

100070d0 <tu_fifo_count>:
100070d0:	b510      	push	{r4, lr}
100070d2:	8904      	ldrh	r4, [r0, #8]
100070d4:	8941      	ldrh	r1, [r0, #10]
100070d6:	8882      	ldrh	r2, [r0, #4]
100070d8:	b2a3      	uxth	r3, r4
100070da:	b288      	uxth	r0, r1
100070dc:	428c      	cmp	r4, r1
100070de:	d307      	bcc.n	100070f0 <tu_fifo_count+0x20>
100070e0:	1a1b      	subs	r3, r3, r0
100070e2:	b29b      	uxth	r3, r3
100070e4:	1c10      	adds	r0, r2, #0
100070e6:	429a      	cmp	r2, r3
100070e8:	d900      	bls.n	100070ec <tu_fifo_count+0x1c>
100070ea:	1c18      	adds	r0, r3, #0
100070ec:	b280      	uxth	r0, r0
100070ee:	bd10      	pop	{r4, pc}
100070f0:	0051      	lsls	r1, r2, #1
100070f2:	1a09      	subs	r1, r1, r0
100070f4:	185b      	adds	r3, r3, r1
100070f6:	b29b      	uxth	r3, r3
100070f8:	e7f4      	b.n	100070e4 <tu_fifo_count+0x14>
100070fa:	46c0      	nop			; (mov r8, r8)

100070fc <tu_fifo_empty>:
100070fc:	0003      	movs	r3, r0
100070fe:	8900      	ldrh	r0, [r0, #8]
10007100:	895b      	ldrh	r3, [r3, #10]
10007102:	1ac0      	subs	r0, r0, r3
10007104:	4243      	negs	r3, r0
10007106:	4158      	adcs	r0, r3
10007108:	b2c0      	uxtb	r0, r0
1000710a:	4770      	bx	lr

1000710c <tu_fifo_remaining>:
1000710c:	b510      	push	{r4, lr}
1000710e:	8904      	ldrh	r4, [r0, #8]
10007110:	8941      	ldrh	r1, [r0, #10]
10007112:	8882      	ldrh	r2, [r0, #4]
10007114:	b2a3      	uxth	r3, r4
10007116:	b288      	uxth	r0, r1
10007118:	428c      	cmp	r4, r1
1000711a:	d307      	bcc.n	1000712c <tu_fifo_remaining+0x20>
1000711c:	1a1b      	subs	r3, r3, r0
1000711e:	b29b      	uxth	r3, r3
10007120:	2000      	movs	r0, #0
10007122:	429a      	cmp	r2, r3
10007124:	d901      	bls.n	1000712a <tu_fifo_remaining+0x1e>
10007126:	1ad3      	subs	r3, r2, r3
10007128:	b298      	uxth	r0, r3
1000712a:	bd10      	pop	{r4, pc}
1000712c:	0051      	lsls	r1, r2, #1
1000712e:	1a09      	subs	r1, r1, r0
10007130:	185b      	adds	r3, r3, r1
10007132:	b29b      	uxth	r3, r3
10007134:	e7f4      	b.n	10007120 <tu_fifo_remaining+0x14>
10007136:	46c0      	nop			; (mov r8, r8)

10007138 <tu_fifo_read>:
10007138:	b570      	push	{r4, r5, r6, lr}
1000713a:	0004      	movs	r4, r0
1000713c:	6900      	ldr	r0, [r0, #16]
1000713e:	000e      	movs	r6, r1
10007140:	2800      	cmp	r0, #0
10007142:	d003      	beq.n	1000714c <tu_fifo_read+0x14>
10007144:	2101      	movs	r1, #1
10007146:	4249      	negs	r1, r1
10007148:	f000 fc96 	bl	10007a78 <__mutex_enter_timeout_ms_veneer>
1000714c:	8925      	ldrh	r5, [r4, #8]
1000714e:	8960      	ldrh	r0, [r4, #10]
10007150:	88a2      	ldrh	r2, [r4, #4]
10007152:	b2a9      	uxth	r1, r5
10007154:	b283      	uxth	r3, r0
10007156:	4285      	cmp	r5, r0
10007158:	d32c      	bcc.n	100071b4 <tu_fifo_read+0x7c>
1000715a:	1acd      	subs	r5, r1, r3
1000715c:	b2ad      	uxth	r5, r5
1000715e:	2d00      	cmp	r5, #0
10007160:	d02e      	beq.n	100071c0 <tu_fifo_read+0x88>
10007162:	42aa      	cmp	r2, r5
10007164:	d208      	bcs.n	10007178 <tu_fifo_read+0x40>
10007166:	4291      	cmp	r1, r2
10007168:	d331      	bcc.n	100071ce <tu_fifo_read+0x96>
1000716a:	1a8b      	subs	r3, r1, r2
1000716c:	b29b      	uxth	r3, r3
1000716e:	8163      	strh	r3, [r4, #10]
10007170:	429a      	cmp	r2, r3
10007172:	d803      	bhi.n	1000717c <tu_fifo_read+0x44>
10007174:	1a9b      	subs	r3, r3, r2
10007176:	b29b      	uxth	r3, r3
10007178:	429a      	cmp	r2, r3
1000717a:	d9fb      	bls.n	10007174 <tu_fifo_read+0x3c>
1000717c:	88e2      	ldrh	r2, [r4, #6]
1000717e:	6821      	ldr	r1, [r4, #0]
10007180:	0452      	lsls	r2, r2, #17
10007182:	0c52      	lsrs	r2, r2, #17
10007184:	4353      	muls	r3, r2
10007186:	0030      	movs	r0, r6
10007188:	18c9      	adds	r1, r1, r3
1000718a:	f7fd fe5f 	bl	10004e4c <__wrap___aeabi_memcpy>
1000718e:	8961      	ldrh	r1, [r4, #10]
10007190:	2501      	movs	r5, #1
10007192:	1c4b      	adds	r3, r1, #1
10007194:	b29b      	uxth	r3, r3
10007196:	88a2      	ldrh	r2, [r4, #4]
10007198:	4299      	cmp	r1, r3
1000719a:	d914      	bls.n	100071c6 <tu_fifo_read+0x8e>
1000719c:	2300      	movs	r3, #0
1000719e:	0052      	lsls	r2, r2, #1
100071a0:	1a9b      	subs	r3, r3, r2
100071a2:	b29b      	uxth	r3, r3
100071a4:	6920      	ldr	r0, [r4, #16]
100071a6:	8163      	strh	r3, [r4, #10]
100071a8:	2800      	cmp	r0, #0
100071aa:	d001      	beq.n	100071b0 <tu_fifo_read+0x78>
100071ac:	f000 fc34 	bl	10007a18 <__mutex_exit_veneer>
100071b0:	0028      	movs	r0, r5
100071b2:	bd70      	pop	{r4, r5, r6, pc}
100071b4:	0055      	lsls	r5, r2, #1
100071b6:	1aed      	subs	r5, r5, r3
100071b8:	194d      	adds	r5, r1, r5
100071ba:	b2ad      	uxth	r5, r5
100071bc:	2d00      	cmp	r5, #0
100071be:	d1d0      	bne.n	10007162 <tu_fifo_read+0x2a>
100071c0:	2500      	movs	r5, #0
100071c2:	8963      	ldrh	r3, [r4, #10]
100071c4:	b29b      	uxth	r3, r3
100071c6:	0052      	lsls	r2, r2, #1
100071c8:	4293      	cmp	r3, r2
100071ca:	dbeb      	blt.n	100071a4 <tu_fifo_read+0x6c>
100071cc:	e7e8      	b.n	100071a0 <tu_fifo_read+0x68>
100071ce:	1889      	adds	r1, r1, r2
100071d0:	b28b      	uxth	r3, r1
100071d2:	8163      	strh	r3, [r4, #10]
100071d4:	e7cc      	b.n	10007170 <tu_fifo_read+0x38>
100071d6:	46c0      	nop			; (mov r8, r8)

100071d8 <tu_fifo_read_n>:
100071d8:	b5f0      	push	{r4, r5, r6, r7, lr}
100071da:	4646      	mov	r6, r8
100071dc:	464f      	mov	r7, r9
100071de:	46d6      	mov	lr, sl
100071e0:	b5c0      	push	{r6, r7, lr}
100071e2:	0006      	movs	r6, r0
100071e4:	6900      	ldr	r0, [r0, #16]
100071e6:	4689      	mov	r9, r1
100071e8:	4690      	mov	r8, r2
100071ea:	2800      	cmp	r0, #0
100071ec:	d003      	beq.n	100071f6 <tu_fifo_read_n+0x1e>
100071ee:	2101      	movs	r1, #1
100071f0:	4249      	negs	r1, r1
100071f2:	f000 fc41 	bl	10007a78 <__mutex_enter_timeout_ms_veneer>
100071f6:	8931      	ldrh	r1, [r6, #8]
100071f8:	8972      	ldrh	r2, [r6, #10]
100071fa:	88b5      	ldrh	r5, [r6, #4]
100071fc:	b28b      	uxth	r3, r1
100071fe:	b294      	uxth	r4, r2
10007200:	4291      	cmp	r1, r2
10007202:	d357      	bcc.n	100072b4 <tu_fifo_read_n+0xdc>
10007204:	1b1f      	subs	r7, r3, r4
10007206:	b2bf      	uxth	r7, r7
10007208:	2f00      	cmp	r7, #0
1000720a:	d04d      	beq.n	100072a8 <tu_fifo_read_n+0xd0>
1000720c:	42bd      	cmp	r5, r7
1000720e:	d205      	bcs.n	1000721c <tu_fifo_read_n+0x44>
10007210:	42ab      	cmp	r3, r5
10007212:	d254      	bcs.n	100072be <tu_fifo_read_n+0xe6>
10007214:	195b      	adds	r3, r3, r5
10007216:	b29c      	uxth	r4, r3
10007218:	002f      	movs	r7, r5
1000721a:	8174      	strh	r4, [r6, #10]
1000721c:	4643      	mov	r3, r8
1000721e:	45b8      	cmp	r8, r7
10007220:	d840      	bhi.n	100072a4 <tu_fifo_read_n+0xcc>
10007222:	b29f      	uxth	r7, r3
10007224:	42a5      	cmp	r5, r4
10007226:	d803      	bhi.n	10007230 <tu_fifo_read_n+0x58>
10007228:	1b64      	subs	r4, r4, r5
1000722a:	b2a4      	uxth	r4, r4
1000722c:	42a5      	cmp	r5, r4
1000722e:	d9fb      	bls.n	10007228 <tu_fifo_read_n+0x50>
10007230:	88f2      	ldrh	r2, [r6, #6]
10007232:	1b28      	subs	r0, r5, r4
10007234:	0452      	lsls	r2, r2, #17
10007236:	0c53      	lsrs	r3, r2, #17
10007238:	0019      	movs	r1, r3
1000723a:	4698      	mov	r8, r3
1000723c:	6833      	ldr	r3, [r6, #0]
1000723e:	4361      	muls	r1, r4
10007240:	469c      	mov	ip, r3
10007242:	b280      	uxth	r0, r0
10007244:	4461      	add	r1, ip
10007246:	4287      	cmp	r7, r0
10007248:	d926      	bls.n	10007298 <tu_fifo_read_n+0xc0>
1000724a:	4643      	mov	r3, r8
1000724c:	4358      	muls	r0, r3
1000724e:	b283      	uxth	r3, r0
10007250:	001a      	movs	r2, r3
10007252:	4648      	mov	r0, r9
10007254:	469a      	mov	sl, r3
10007256:	f7fd fdf9 	bl	10004e4c <__wrap___aeabi_memcpy>
1000725a:	4643      	mov	r3, r8
1000725c:	4648      	mov	r0, r9
1000725e:	1b7d      	subs	r5, r7, r5
10007260:	1964      	adds	r4, r4, r5
10007262:	435c      	muls	r4, r3
10007264:	6831      	ldr	r1, [r6, #0]
10007266:	4450      	add	r0, sl
10007268:	b2a2      	uxth	r2, r4
1000726a:	f7fd fdef 	bl	10004e4c <__wrap___aeabi_memcpy>
1000726e:	8971      	ldrh	r1, [r6, #10]
10007270:	88b5      	ldrh	r5, [r6, #4]
10007272:	19cb      	adds	r3, r1, r7
10007274:	b29b      	uxth	r3, r3
10007276:	006a      	lsls	r2, r5, #1
10007278:	4299      	cmp	r1, r3
1000727a:	d917      	bls.n	100072ac <tu_fifo_read_n+0xd4>
1000727c:	1a9b      	subs	r3, r3, r2
1000727e:	b29b      	uxth	r3, r3
10007280:	6930      	ldr	r0, [r6, #16]
10007282:	8173      	strh	r3, [r6, #10]
10007284:	2800      	cmp	r0, #0
10007286:	d001      	beq.n	1000728c <tu_fifo_read_n+0xb4>
10007288:	f000 fbc6 	bl	10007a18 <__mutex_exit_veneer>
1000728c:	0038      	movs	r0, r7
1000728e:	bce0      	pop	{r5, r6, r7}
10007290:	46ba      	mov	sl, r7
10007292:	46b1      	mov	r9, r6
10007294:	46a8      	mov	r8, r5
10007296:	bdf0      	pop	{r4, r5, r6, r7, pc}
10007298:	4642      	mov	r2, r8
1000729a:	4648      	mov	r0, r9
1000729c:	437a      	muls	r2, r7
1000729e:	f7fd fdd5 	bl	10004e4c <__wrap___aeabi_memcpy>
100072a2:	e7e4      	b.n	1000726e <tu_fifo_read_n+0x96>
100072a4:	1c3b      	adds	r3, r7, #0
100072a6:	e7bc      	b.n	10007222 <tu_fifo_read_n+0x4a>
100072a8:	8973      	ldrh	r3, [r6, #10]
100072aa:	b29b      	uxth	r3, r3
100072ac:	006a      	lsls	r2, r5, #1
100072ae:	4293      	cmp	r3, r2
100072b0:	dbe6      	blt.n	10007280 <tu_fifo_read_n+0xa8>
100072b2:	e7e3      	b.n	1000727c <tu_fifo_read_n+0xa4>
100072b4:	006f      	lsls	r7, r5, #1
100072b6:	1b3f      	subs	r7, r7, r4
100072b8:	19df      	adds	r7, r3, r7
100072ba:	b2bf      	uxth	r7, r7
100072bc:	e7a4      	b.n	10007208 <tu_fifo_read_n+0x30>
100072be:	1b5b      	subs	r3, r3, r5
100072c0:	b29c      	uxth	r4, r3
100072c2:	e7a9      	b.n	10007218 <tu_fifo_read_n+0x40>

100072c4 <tu_fifo_write>:
100072c4:	b5f8      	push	{r3, r4, r5, r6, r7, lr}
100072c6:	0004      	movs	r4, r0
100072c8:	68c0      	ldr	r0, [r0, #12]
100072ca:	000e      	movs	r6, r1
100072cc:	2800      	cmp	r0, #0
100072ce:	d003      	beq.n	100072d8 <tu_fifo_write+0x14>
100072d0:	2101      	movs	r1, #1
100072d2:	4249      	negs	r1, r1
100072d4:	f000 fbd0 	bl	10007a78 <__mutex_enter_timeout_ms_veneer>
100072d8:	8925      	ldrh	r5, [r4, #8]
100072da:	8920      	ldrh	r0, [r4, #8]
100072dc:	8961      	ldrh	r1, [r4, #10]
100072de:	88a2      	ldrh	r2, [r4, #4]
100072e0:	b2ad      	uxth	r5, r5
100072e2:	b283      	uxth	r3, r0
100072e4:	b28f      	uxth	r7, r1
100072e6:	4288      	cmp	r0, r1
100072e8:	d328      	bcc.n	1000733c <tu_fifo_write+0x78>
100072ea:	1bdb      	subs	r3, r3, r7
100072ec:	b29b      	uxth	r3, r3
100072ee:	429a      	cmp	r2, r3
100072f0:	d809      	bhi.n	10007306 <tu_fifo_write+0x42>
100072f2:	79e7      	ldrb	r7, [r4, #7]
100072f4:	09ff      	lsrs	r7, r7, #7
100072f6:	d106      	bne.n	10007306 <tu_fifo_write+0x42>
100072f8:	68e0      	ldr	r0, [r4, #12]
100072fa:	2800      	cmp	r0, #0
100072fc:	d001      	beq.n	10007302 <tu_fifo_write+0x3e>
100072fe:	f000 fb8b 	bl	10007a18 <__mutex_exit_veneer>
10007302:	0038      	movs	r0, r7
10007304:	bdf8      	pop	{r3, r4, r5, r6, r7, pc}
10007306:	002b      	movs	r3, r5
10007308:	4295      	cmp	r5, r2
1000730a:	d303      	bcc.n	10007314 <tu_fifo_write+0x50>
1000730c:	1a9b      	subs	r3, r3, r2
1000730e:	b29b      	uxth	r3, r3
10007310:	4293      	cmp	r3, r2
10007312:	d2fb      	bcs.n	1000730c <tu_fifo_write+0x48>
10007314:	88e2      	ldrh	r2, [r4, #6]
10007316:	6821      	ldr	r1, [r4, #0]
10007318:	0452      	lsls	r2, r2, #17
1000731a:	0c52      	lsrs	r2, r2, #17
1000731c:	4353      	muls	r3, r2
1000731e:	18c8      	adds	r0, r1, r3
10007320:	0031      	movs	r1, r6
10007322:	f7fd fd93 	bl	10004e4c <__wrap___aeabi_memcpy>
10007326:	88a2      	ldrh	r2, [r4, #4]
10007328:	1c6b      	adds	r3, r5, #1
1000732a:	b29b      	uxth	r3, r3
1000732c:	0052      	lsls	r2, r2, #1
1000732e:	429d      	cmp	r5, r3
10007330:	d909      	bls.n	10007346 <tu_fifo_write+0x82>
10007332:	1a9b      	subs	r3, r3, r2
10007334:	b29b      	uxth	r3, r3
10007336:	2701      	movs	r7, #1
10007338:	8123      	strh	r3, [r4, #8]
1000733a:	e7dd      	b.n	100072f8 <tu_fifo_write+0x34>
1000733c:	0051      	lsls	r1, r2, #1
1000733e:	1bc9      	subs	r1, r1, r7
10007340:	185b      	adds	r3, r3, r1
10007342:	b29b      	uxth	r3, r3
10007344:	e7d3      	b.n	100072ee <tu_fifo_write+0x2a>
10007346:	4293      	cmp	r3, r2
10007348:	dbf5      	blt.n	10007336 <tu_fifo_write+0x72>
1000734a:	e7f2      	b.n	10007332 <tu_fifo_write+0x6e>

1000734c <tu_fifo_write_n>:
1000734c:	b5f0      	push	{r4, r5, r6, r7, lr}
1000734e:	464e      	mov	r6, r9
10007350:	4645      	mov	r5, r8
10007352:	46de      	mov	lr, fp
10007354:	4657      	mov	r7, sl
10007356:	b5e0      	push	{r5, r6, r7, lr}
10007358:	4689      	mov	r9, r1
1000735a:	0005      	movs	r5, r0
1000735c:	0014      	movs	r4, r2
1000735e:	b083      	sub	sp, #12
10007360:	2a00      	cmp	r2, #0
10007362:	d06e      	beq.n	10007442 <tu_fifo_write_n+0xf6>
10007364:	68c0      	ldr	r0, [r0, #12]
10007366:	2800      	cmp	r0, #0
10007368:	d003      	beq.n	10007372 <tu_fifo_write_n+0x26>
1000736a:	2101      	movs	r1, #1
1000736c:	4249      	negs	r1, r1
1000736e:	f000 fb83 	bl	10007a78 <__mutex_enter_timeout_ms_veneer>
10007372:	892f      	ldrh	r7, [r5, #8]
10007374:	79ea      	ldrb	r2, [r5, #7]
10007376:	896b      	ldrh	r3, [r5, #10]
10007378:	b2bf      	uxth	r7, r7
1000737a:	b29b      	uxth	r3, r3
1000737c:	09d2      	lsrs	r2, r2, #7
1000737e:	d142      	bne.n	10007406 <tu_fifo_write_n+0xba>
10007380:	88ae      	ldrh	r6, [r5, #4]
10007382:	429f      	cmp	r7, r3
10007384:	d267      	bcs.n	10007456 <tu_fifo_write_n+0x10a>
10007386:	0072      	lsls	r2, r6, #1
10007388:	1ad3      	subs	r3, r2, r3
1000738a:	18fb      	adds	r3, r7, r3
1000738c:	b29b      	uxth	r3, r3
1000738e:	2200      	movs	r2, #0
10007390:	4690      	mov	r8, r2
10007392:	429e      	cmp	r6, r3
10007394:	d931      	bls.n	100073fa <tu_fifo_write_n+0xae>
10007396:	1af3      	subs	r3, r6, r3
10007398:	1c1a      	adds	r2, r3, #0
1000739a:	b29b      	uxth	r3, r3
1000739c:	42a3      	cmp	r3, r4
1000739e:	d900      	bls.n	100073a2 <tu_fifo_write_n+0x56>
100073a0:	1c22      	adds	r2, r4, #0
100073a2:	b293      	uxth	r3, r2
100073a4:	4698      	mov	r8, r3
100073a6:	88e8      	ldrh	r0, [r5, #6]
100073a8:	4643      	mov	r3, r8
100073aa:	18fb      	adds	r3, r7, r3
100073ac:	b29b      	uxth	r3, r3
100073ae:	469b      	mov	fp, r3
100073b0:	003c      	movs	r4, r7
100073b2:	42b7      	cmp	r7, r6
100073b4:	d303      	bcc.n	100073be <tu_fifo_write_n+0x72>
100073b6:	1ba4      	subs	r4, r4, r6
100073b8:	b2a4      	uxth	r4, r4
100073ba:	42b4      	cmp	r4, r6
100073bc:	d2fb      	bcs.n	100073b6 <tu_fifo_write_n+0x6a>
100073be:	0440      	lsls	r0, r0, #17
100073c0:	0c43      	lsrs	r3, r0, #17
100073c2:	0018      	movs	r0, r3
100073c4:	469a      	mov	sl, r3
100073c6:	682b      	ldr	r3, [r5, #0]
100073c8:	4360      	muls	r0, r4
100073ca:	469c      	mov	ip, r3
100073cc:	1b31      	subs	r1, r6, r4
100073ce:	b289      	uxth	r1, r1
100073d0:	4460      	add	r0, ip
100073d2:	4541      	cmp	r1, r8
100073d4:	d34e      	bcc.n	10007474 <tu_fifo_write_n+0x128>
100073d6:	4652      	mov	r2, sl
100073d8:	4643      	mov	r3, r8
100073da:	4649      	mov	r1, r9
100073dc:	435a      	muls	r2, r3
100073de:	f7fd fd35 	bl	10004e4c <__wrap___aeabi_memcpy>
100073e2:	88ab      	ldrh	r3, [r5, #4]
100073e4:	005b      	lsls	r3, r3, #1
100073e6:	45bb      	cmp	fp, r7
100073e8:	d301      	bcc.n	100073ee <tu_fifo_write_n+0xa2>
100073ea:	459b      	cmp	fp, r3
100073ec:	db03      	blt.n	100073f6 <tu_fifo_write_n+0xaa>
100073ee:	465a      	mov	r2, fp
100073f0:	1ad3      	subs	r3, r2, r3
100073f2:	b29b      	uxth	r3, r3
100073f4:	469b      	mov	fp, r3
100073f6:	465b      	mov	r3, fp
100073f8:	812b      	strh	r3, [r5, #8]
100073fa:	68e8      	ldr	r0, [r5, #12]
100073fc:	2800      	cmp	r0, #0
100073fe:	d022      	beq.n	10007446 <tu_fifo_write_n+0xfa>
10007400:	f000 fb0a 	bl	10007a18 <__mutex_exit_veneer>
10007404:	e01f      	b.n	10007446 <tu_fifo_write_n+0xfa>
10007406:	88aa      	ldrh	r2, [r5, #4]
10007408:	4690      	mov	r8, r2
1000740a:	4294      	cmp	r4, r2
1000740c:	d226      	bcs.n	1000745c <tu_fifo_write_n+0x110>
1000740e:	429f      	cmp	r7, r3
10007410:	d344      	bcc.n	1000749c <tu_fifo_write_n+0x150>
10007412:	4641      	mov	r1, r8
10007414:	1afa      	subs	r2, r7, r3
10007416:	b292      	uxth	r2, r2
10007418:	0049      	lsls	r1, r1, #1
1000741a:	1912      	adds	r2, r2, r4
1000741c:	428a      	cmp	r2, r1
1000741e:	db09      	blt.n	10007434 <tu_fifo_write_n+0xe8>
10007420:	4642      	mov	r2, r8
10007422:	189a      	adds	r2, r3, r2
10007424:	b292      	uxth	r2, r2
10007426:	1b17      	subs	r7, r2, r4
10007428:	b2bf      	uxth	r7, r7
1000742a:	4693      	mov	fp, r2
1000742c:	42bb      	cmp	r3, r7
1000742e:	d93a      	bls.n	100074a6 <tu_fifo_write_n+0x15a>
10007430:	1a7f      	subs	r7, r7, r1
10007432:	b2bf      	uxth	r7, r7
10007434:	19e3      	adds	r3, r4, r7
10007436:	b29b      	uxth	r3, r3
10007438:	4646      	mov	r6, r8
1000743a:	469b      	mov	fp, r3
1000743c:	46a0      	mov	r8, r4
1000743e:	88e8      	ldrh	r0, [r5, #6]
10007440:	e7b6      	b.n	100073b0 <tu_fifo_write_n+0x64>
10007442:	2300      	movs	r3, #0
10007444:	4698      	mov	r8, r3
10007446:	4640      	mov	r0, r8
10007448:	b003      	add	sp, #12
1000744a:	bcf0      	pop	{r4, r5, r6, r7}
1000744c:	46bb      	mov	fp, r7
1000744e:	46b2      	mov	sl, r6
10007450:	46a9      	mov	r9, r5
10007452:	46a0      	mov	r8, r4
10007454:	bdf0      	pop	{r4, r5, r6, r7, pc}
10007456:	1afb      	subs	r3, r7, r3
10007458:	b29b      	uxth	r3, r3
1000745a:	e798      	b.n	1000738e <tu_fifo_write_n+0x42>
1000745c:	88e8      	ldrh	r0, [r5, #6]
1000745e:	1aa2      	subs	r2, r4, r2
10007460:	0444      	lsls	r4, r0, #17
10007462:	0c64      	lsrs	r4, r4, #17
10007464:	4354      	muls	r4, r2
10007466:	4642      	mov	r2, r8
10007468:	44a1      	add	r9, r4
1000746a:	2a00      	cmp	r2, #0
1000746c:	d0c5      	beq.n	100073fa <tu_fifo_write_n+0xae>
1000746e:	4646      	mov	r6, r8
10007470:	001f      	movs	r7, r3
10007472:	e799      	b.n	100073a8 <tu_fifo_write_n+0x5c>
10007474:	4653      	mov	r3, sl
10007476:	4359      	muls	r1, r3
10007478:	b289      	uxth	r1, r1
1000747a:	000a      	movs	r2, r1
1000747c:	9101      	str	r1, [sp, #4]
1000747e:	4649      	mov	r1, r9
10007480:	f7fd fce4 	bl	10004e4c <__wrap___aeabi_memcpy>
10007484:	4643      	mov	r3, r8
10007486:	1b9a      	subs	r2, r3, r6
10007488:	4653      	mov	r3, sl
1000748a:	18a2      	adds	r2, r4, r2
1000748c:	435a      	muls	r2, r3
1000748e:	9901      	ldr	r1, [sp, #4]
10007490:	6828      	ldr	r0, [r5, #0]
10007492:	b292      	uxth	r2, r2
10007494:	4449      	add	r1, r9
10007496:	f7fd fcd9 	bl	10004e4c <__wrap___aeabi_memcpy>
1000749a:	e7a2      	b.n	100073e2 <tu_fifo_write_n+0x96>
1000749c:	0051      	lsls	r1, r2, #1
1000749e:	1aca      	subs	r2, r1, r3
100074a0:	18ba      	adds	r2, r7, r2
100074a2:	b292      	uxth	r2, r2
100074a4:	e7b9      	b.n	1000741a <tu_fifo_write_n+0xce>
100074a6:	42b9      	cmp	r1, r7
100074a8:	ddc2      	ble.n	10007430 <tu_fifo_write_n+0xe4>
100074aa:	4646      	mov	r6, r8
100074ac:	88e8      	ldrh	r0, [r5, #6]
100074ae:	46a0      	mov	r8, r4
100074b0:	e77e      	b.n	100073b0 <tu_fifo_write_n+0x64>
100074b2:	46c0      	nop			; (mov r8, r8)

100074b4 <tu_fifo_clear>:
100074b4:	b510      	push	{r4, lr}
100074b6:	0004      	movs	r4, r0
100074b8:	68c0      	ldr	r0, [r0, #12]
100074ba:	2800      	cmp	r0, #0
100074bc:	d003      	beq.n	100074c6 <tu_fifo_clear+0x12>
100074be:	2101      	movs	r1, #1
100074c0:	4249      	negs	r1, r1
100074c2:	f000 fad9 	bl	10007a78 <__mutex_enter_timeout_ms_veneer>
100074c6:	6920      	ldr	r0, [r4, #16]
100074c8:	2800      	cmp	r0, #0
100074ca:	d003      	beq.n	100074d4 <tu_fifo_clear+0x20>
100074cc:	2101      	movs	r1, #1
100074ce:	4249      	negs	r1, r1
100074d0:	f000 fad2 	bl	10007a78 <__mutex_enter_timeout_ms_veneer>
100074d4:	2300      	movs	r3, #0
100074d6:	68e0      	ldr	r0, [r4, #12]
100074d8:	8163      	strh	r3, [r4, #10]
100074da:	8123      	strh	r3, [r4, #8]
100074dc:	2800      	cmp	r0, #0
100074de:	d001      	beq.n	100074e4 <tu_fifo_clear+0x30>
100074e0:	f000 fa9a 	bl	10007a18 <__mutex_exit_veneer>
100074e4:	6920      	ldr	r0, [r4, #16]
100074e6:	2800      	cmp	r0, #0
100074e8:	d001      	beq.n	100074ee <tu_fifo_clear+0x3a>
100074ea:	f000 fa95 	bl	10007a18 <__mutex_exit_veneer>
100074ee:	2001      	movs	r0, #1
100074f0:	bd10      	pop	{r4, pc}
100074f2:	46c0      	nop			; (mov r8, r8)

100074f4 <tu_fifo_set_overwritable>:
100074f4:	b570      	push	{r4, r5, r6, lr}
100074f6:	0004      	movs	r4, r0
100074f8:	68c0      	ldr	r0, [r0, #12]
100074fa:	000d      	movs	r5, r1
100074fc:	2800      	cmp	r0, #0
100074fe:	d003      	beq.n	10007508 <tu_fifo_set_overwritable+0x14>
10007500:	2101      	movs	r1, #1
10007502:	4249      	negs	r1, r1
10007504:	f000 fab8 	bl	10007a78 <__mutex_enter_timeout_ms_veneer>
10007508:	6920      	ldr	r0, [r4, #16]
1000750a:	2800      	cmp	r0, #0
1000750c:	d003      	beq.n	10007516 <tu_fifo_set_overwritable+0x22>
1000750e:	2101      	movs	r1, #1
10007510:	4249      	negs	r1, r1
10007512:	f000 fab1 	bl	10007a78 <__mutex_enter_timeout_ms_veneer>
10007516:	217f      	movs	r1, #127	; 0x7f
10007518:	79e3      	ldrb	r3, [r4, #7]
1000751a:	01ed      	lsls	r5, r5, #7
1000751c:	4019      	ands	r1, r3
1000751e:	68e0      	ldr	r0, [r4, #12]
10007520:	4329      	orrs	r1, r5
10007522:	71e1      	strb	r1, [r4, #7]
10007524:	2800      	cmp	r0, #0
10007526:	d001      	beq.n	1000752c <tu_fifo_set_overwritable+0x38>
10007528:	f000 fa76 	bl	10007a18 <__mutex_exit_veneer>
1000752c:	6920      	ldr	r0, [r4, #16]
1000752e:	2800      	cmp	r0, #0
10007530:	d001      	beq.n	10007536 <tu_fifo_set_overwritable+0x42>
10007532:	f000 fa71 	bl	10007a18 <__mutex_exit_veneer>
10007536:	2001      	movs	r0, #1
10007538:	bd70      	pop	{r4, r5, r6, pc}
1000753a:	46c0      	nop			; (mov r8, r8)

1000753c <i2c_set_baudrate>:
1000753c:	b5f8      	push	{r3, r4, r5, r6, r7, lr}
1000753e:	46de      	mov	lr, fp
10007540:	4657      	mov	r7, sl
10007542:	464e      	mov	r6, r9
10007544:	4645      	mov	r5, r8
10007546:	4683      	mov	fp, r0
10007548:	b5e0      	push	{r5, r6, r7, lr}
1000754a:	2005      	movs	r0, #5
1000754c:	000c      	movs	r4, r1
1000754e:	f7fb f8f7 	bl	10002740 <clock_get_hz>
10007552:	0006      	movs	r6, r0
10007554:	0860      	lsrs	r0, r4, #1
10007556:	0021      	movs	r1, r4
10007558:	1980      	adds	r0, r0, r6
1000755a:	f7fc fd97 	bl	1000408c <__wrap___aeabi_uidiv>
1000755e:	0043      	lsls	r3, r0, #1
10007560:	4698      	mov	r8, r3
10007562:	4480      	add	r8, r0
10007564:	0007      	movs	r7, r0
10007566:	2105      	movs	r1, #5
10007568:	4640      	mov	r0, r8
1000756a:	f7fc fd8f 	bl	1000408c <__wrap___aeabi_uidiv>
1000756e:	1a3b      	subs	r3, r7, r0
10007570:	469a      	mov	sl, r3
10007572:	4b20      	ldr	r3, [pc, #128]	; (100075f4 <i2c_set_baudrate+0xb8>)
10007574:	4681      	mov	r9, r0
10007576:	0070      	lsls	r0, r6, #1
10007578:	1980      	adds	r0, r0, r6
1000757a:	429c      	cmp	r4, r3
1000757c:	d834      	bhi.n	100075e8 <i2c_set_baudrate+0xac>
1000757e:	491e      	ldr	r1, [pc, #120]	; (100075f8 <i2c_set_baudrate+0xbc>)
10007580:	f7fc fd84 	bl	1000408c <__wrap___aeabi_uidiv>
10007584:	1c45      	adds	r5, r0, #1
10007586:	465b      	mov	r3, fp
10007588:	681c      	ldr	r4, [r3, #0]
1000758a:	2300      	movs	r3, #0
1000758c:	66e3      	str	r3, [r4, #108]	; 0x6c
1000758e:	6822      	ldr	r2, [r4, #0]
10007590:	3304      	adds	r3, #4
10007592:	4053      	eors	r3, r2
10007594:	2206      	movs	r2, #6
10007596:	401a      	ands	r2, r3
10007598:	2380      	movs	r3, #128	; 0x80
1000759a:	015b      	lsls	r3, r3, #5
1000759c:	4323      	orrs	r3, r4
1000759e:	601a      	str	r2, [r3, #0]
100075a0:	4653      	mov	r3, sl
100075a2:	61e3      	str	r3, [r4, #28]
100075a4:	464b      	mov	r3, r9
100075a6:	6223      	str	r3, [r4, #32]
100075a8:	4643      	mov	r3, r8
100075aa:	2001      	movs	r0, #1
100075ac:	2b4f      	cmp	r3, #79	; 0x4f
100075ae:	d903      	bls.n	100075b8 <i2c_set_baudrate+0x7c>
100075b0:	2150      	movs	r1, #80	; 0x50
100075b2:	4640      	mov	r0, r8
100075b4:	f7fc fd6a 	bl	1000408c <__wrap___aeabi_uidiv>
100075b8:	23a0      	movs	r3, #160	; 0xa0
100075ba:	0022      	movs	r2, r4
100075bc:	50e0      	str	r0, [r4, r3]
100075be:	2380      	movs	r3, #128	; 0x80
100075c0:	6fe0      	ldr	r0, [r4, #124]	; 0x7c
100075c2:	327c      	adds	r2, #124	; 0x7c
100075c4:	4045      	eors	r5, r0
100075c6:	042d      	lsls	r5, r5, #16
100075c8:	015b      	lsls	r3, r3, #5
100075ca:	4313      	orrs	r3, r2
100075cc:	0c2d      	lsrs	r5, r5, #16
100075ce:	601d      	str	r5, [r3, #0]
100075d0:	2301      	movs	r3, #1
100075d2:	0039      	movs	r1, r7
100075d4:	0030      	movs	r0, r6
100075d6:	66e3      	str	r3, [r4, #108]	; 0x6c
100075d8:	f7fc fd58 	bl	1000408c <__wrap___aeabi_uidiv>
100075dc:	bcf0      	pop	{r4, r5, r6, r7}
100075de:	46bb      	mov	fp, r7
100075e0:	46b2      	mov	sl, r6
100075e2:	46a9      	mov	r9, r5
100075e4:	46a0      	mov	r8, r4
100075e6:	bdf8      	pop	{r3, r4, r5, r6, r7, pc}
100075e8:	4904      	ldr	r1, [pc, #16]	; (100075fc <i2c_set_baudrate+0xc0>)
100075ea:	f7fc fd4f 	bl	1000408c <__wrap___aeabi_uidiv>
100075ee:	1c45      	adds	r5, r0, #1
100075f0:	e7c9      	b.n	10007586 <i2c_set_baudrate+0x4a>
100075f2:	46c0      	nop			; (mov r8, r8)
100075f4:	000f423f 	.word	0x000f423f
100075f8:	00989680 	.word	0x00989680
100075fc:	017d7840 	.word	0x017d7840

10007600 <i2c_init>:
10007600:	4a10      	ldr	r2, [pc, #64]	; (10007644 <i2c_init+0x44>)
10007602:	b570      	push	{r4, r5, r6, lr}
10007604:	1a82      	subs	r2, r0, r2
10007606:	4253      	negs	r3, r2
10007608:	415a      	adcs	r2, r3
1000760a:	2307      	movs	r3, #7
1000760c:	4252      	negs	r2, r2
1000760e:	439a      	bics	r2, r3
10007610:	4b0d      	ldr	r3, [pc, #52]	; (10007648 <i2c_init+0x48>)
10007612:	3210      	adds	r2, #16
10007614:	601a      	str	r2, [r3, #0]
10007616:	4b0d      	ldr	r3, [pc, #52]	; (1000764c <i2c_init+0x4c>)
10007618:	4c0d      	ldr	r4, [pc, #52]	; (10007650 <i2c_init+0x50>)
1000761a:	601a      	str	r2, [r3, #0]
1000761c:	0015      	movs	r5, r2
1000761e:	68a3      	ldr	r3, [r4, #8]
10007620:	439d      	bics	r5, r3
10007622:	1e2b      	subs	r3, r5, #0
10007624:	d1fa      	bne.n	1000761c <i2c_init+0x1c>
10007626:	2466      	movs	r4, #102	; 0x66
10007628:	6802      	ldr	r2, [r0, #0]
1000762a:	34ff      	adds	r4, #255	; 0xff
1000762c:	7105      	strb	r5, [r0, #4]
1000762e:	66d5      	str	r5, [r2, #108]	; 0x6c
10007630:	6014      	str	r4, [r2, #0]
10007632:	3c63      	subs	r4, #99	; 0x63
10007634:	3388      	adds	r3, #136	; 0x88
10007636:	3cff      	subs	r4, #255	; 0xff
10007638:	63d5      	str	r5, [r2, #60]	; 0x3c
1000763a:	6395      	str	r5, [r2, #56]	; 0x38
1000763c:	50d4      	str	r4, [r2, r3]
1000763e:	f7ff ff7d 	bl	1000753c <i2c_set_baudrate>
10007642:	bd70      	pop	{r4, r5, r6, pc}
10007644:	20000f10 	.word	0x20000f10
10007648:	4000e000 	.word	0x4000e000
1000764c:	4000f000 	.word	0x4000f000
10007650:	4000c000 	.word	0x4000c000

10007654 <i2c_write_blocking>:
10007654:	b5f0      	push	{r4, r5, r6, r7, lr}
10007656:	4657      	mov	r7, sl
10007658:	464e      	mov	r6, r9
1000765a:	4645      	mov	r5, r8
1000765c:	46de      	mov	lr, fp
1000765e:	4690      	mov	r8, r2
10007660:	2200      	movs	r2, #0
10007662:	b5e0      	push	{r5, r6, r7, lr}
10007664:	b083      	sub	sp, #12
10007666:	001e      	movs	r6, r3
10007668:	ab0c      	add	r3, sp, #48	; 0x30
1000766a:	781b      	ldrb	r3, [r3, #0]
1000766c:	4684      	mov	ip, r0
1000766e:	469a      	mov	sl, r3
10007670:	6803      	ldr	r3, [r0, #0]
10007672:	66da      	str	r2, [r3, #108]	; 0x6c
10007674:	3201      	adds	r2, #1
10007676:	6059      	str	r1, [r3, #4]
10007678:	66da      	str	r2, [r3, #108]	; 0x6c
1000767a:	2e00      	cmp	r6, #0
1000767c:	dd4f      	ble.n	1000771e <i2c_write_blocking+0xca>
1000767e:	4651      	mov	r1, sl
10007680:	404a      	eors	r2, r1
10007682:	0252      	lsls	r2, r2, #9
10007684:	9201      	str	r2, [sp, #4]
10007686:	2280      	movs	r2, #128	; 0x80
10007688:	4691      	mov	r9, r2
1000768a:	0032      	movs	r2, r6
1000768c:	2580      	movs	r5, #128	; 0x80
1000768e:	1e77      	subs	r7, r6, #1
10007690:	2000      	movs	r0, #0
10007692:	4646      	mov	r6, r8
10007694:	2110      	movs	r1, #16
10007696:	4690      	mov	r8, r2
10007698:	00ad      	lsls	r5, r5, #2
1000769a:	2400      	movs	r4, #0
1000769c:	2800      	cmp	r0, #0
1000769e:	d104      	bne.n	100076aa <i2c_write_blocking+0x56>
100076a0:	4662      	mov	r2, ip
100076a2:	7914      	ldrb	r4, [r2, #4]
100076a4:	1e62      	subs	r2, r4, #1
100076a6:	4194      	sbcs	r4, r2
100076a8:	02a4      	lsls	r4, r4, #10
100076aa:	2200      	movs	r2, #0
100076ac:	4693      	mov	fp, r2
100076ae:	42b8      	cmp	r0, r7
100076b0:	d01a      	beq.n	100076e8 <i2c_write_blocking+0x94>
100076b2:	5c32      	ldrb	r2, [r6, r0]
100076b4:	4322      	orrs	r2, r4
100076b6:	465c      	mov	r4, fp
100076b8:	4322      	orrs	r2, r4
100076ba:	611a      	str	r2, [r3, #16]
100076bc:	6b5a      	ldr	r2, [r3, #52]	; 0x34
100076be:	4211      	tst	r1, r2
100076c0:	d0fc      	beq.n	100076bc <i2c_write_blocking+0x68>
100076c2:	464a      	mov	r2, r9
100076c4:	589c      	ldr	r4, [r3, r2]
100076c6:	2c00      	cmp	r4, #0
100076c8:	d111      	bne.n	100076ee <i2c_write_blocking+0x9a>
100076ca:	42b8      	cmp	r0, r7
100076cc:	d022      	beq.n	10007714 <i2c_write_blocking+0xc0>
100076ce:	3001      	adds	r0, #1
100076d0:	4580      	cmp	r8, r0
100076d2:	d1e2      	bne.n	1000769a <i2c_write_blocking+0x46>
100076d4:	4663      	mov	r3, ip
100076d6:	4652      	mov	r2, sl
100076d8:	711a      	strb	r2, [r3, #4]
100076da:	b003      	add	sp, #12
100076dc:	bcf0      	pop	{r4, r5, r6, r7}
100076de:	46bb      	mov	fp, r7
100076e0:	46b2      	mov	sl, r6
100076e2:	46a9      	mov	r9, r5
100076e4:	46a0      	mov	r8, r4
100076e6:	bdf0      	pop	{r4, r5, r6, r7, pc}
100076e8:	9a01      	ldr	r2, [sp, #4]
100076ea:	4693      	mov	fp, r2
100076ec:	e7e1      	b.n	100076b2 <i2c_write_blocking+0x5e>
100076ee:	6d5a      	ldr	r2, [r3, #84]	; 0x54
100076f0:	2201      	movs	r2, #1
100076f2:	4693      	mov	fp, r2
100076f4:	6b5a      	ldr	r2, [r3, #52]	; 0x34
100076f6:	422a      	tst	r2, r5
100076f8:	d0fc      	beq.n	100076f4 <i2c_write_blocking+0xa0>
100076fa:	6e1a      	ldr	r2, [r3, #96]	; 0x60
100076fc:	465a      	mov	r2, fp
100076fe:	2a00      	cmp	r2, #0
10007700:	d0e5      	beq.n	100076ce <i2c_write_blocking+0x7a>
10007702:	2c00      	cmp	r4, #0
10007704:	d003      	beq.n	1000770e <i2c_write_blocking+0xba>
10007706:	07e3      	lsls	r3, r4, #31
10007708:	d401      	bmi.n	1000770e <i2c_write_blocking+0xba>
1000770a:	0723      	lsls	r3, r4, #28
1000770c:	d4e2      	bmi.n	100076d4 <i2c_write_blocking+0x80>
1000770e:	2002      	movs	r0, #2
10007710:	4240      	negs	r0, r0
10007712:	e7df      	b.n	100076d4 <i2c_write_blocking+0x80>
10007714:	4652      	mov	r2, sl
10007716:	2a00      	cmp	r2, #0
10007718:	d1d9      	bne.n	100076ce <i2c_write_blocking+0x7a>
1000771a:	46d3      	mov	fp, sl
1000771c:	e7ea      	b.n	100076f4 <i2c_write_blocking+0xa0>
1000771e:	2000      	movs	r0, #0
10007720:	e7d8      	b.n	100076d4 <i2c_write_blocking+0x80>
10007722:	46c0      	nop			; (mov r8, r8)

10007724 <adc_init>:
10007724:	2301      	movs	r3, #1
10007726:	2101      	movs	r1, #1
10007728:	4a08      	ldr	r2, [pc, #32]	; (1000774c <adc_init+0x28>)
1000772a:	6013      	str	r3, [r2, #0]
1000772c:	4a08      	ldr	r2, [pc, #32]	; (10007750 <adc_init+0x2c>)
1000772e:	6013      	str	r3, [r2, #0]
10007730:	4a08      	ldr	r2, [pc, #32]	; (10007754 <adc_init+0x30>)
10007732:	0008      	movs	r0, r1
10007734:	6893      	ldr	r3, [r2, #8]
10007736:	4398      	bics	r0, r3
10007738:	d1fb      	bne.n	10007732 <adc_init+0xe>
1000773a:	4a07      	ldr	r2, [pc, #28]	; (10007758 <adc_init+0x34>)
1000773c:	6011      	str	r1, [r2, #0]
1000773e:	2180      	movs	r1, #128	; 0x80
10007740:	0049      	lsls	r1, r1, #1
10007742:	6813      	ldr	r3, [r2, #0]
10007744:	420b      	tst	r3, r1
10007746:	d0fc      	beq.n	10007742 <adc_init+0x1e>
10007748:	4770      	bx	lr
1000774a:	46c0      	nop			; (mov r8, r8)
1000774c:	4000e000 	.word	0x4000e000
10007750:	4000f000 	.word	0x4000f000
10007754:	4000c000 	.word	0x4000c000
10007758:	4004c000 	.word	0x4004c000

1000775c <pio_add_program>:
1000775c:	b5f0      	push	{r4, r5, r6, r7, lr}
1000775e:	46d6      	mov	lr, sl
10007760:	464f      	mov	r7, r9
10007762:	4646      	mov	r6, r8
10007764:	4688      	mov	r8, r1
10007766:	b5c0      	push	{r6, r7, lr}
10007768:	2405      	movs	r4, #5
1000776a:	0006      	movs	r6, r0
1000776c:	f7f9 fbb8 	bl	10000ee0 <hw_claim_lock>
10007770:	4643      	mov	r3, r8
10007772:	791f      	ldrb	r7, [r3, #4]
10007774:	571c      	ldrsb	r4, [r3, r4]
10007776:	4b28      	ldr	r3, [pc, #160]	; (10007818 <pio_add_program+0xbc>)
10007778:	4681      	mov	r9, r0
1000777a:	18f0      	adds	r0, r6, r3
1000777c:	4243      	negs	r3, r0
1000777e:	4158      	adcs	r0, r3
10007780:	4b26      	ldr	r3, [pc, #152]	; (1000781c <pio_add_program+0xc0>)
10007782:	469a      	mov	sl, r3
10007784:	0083      	lsls	r3, r0, #2
10007786:	469c      	mov	ip, r3
10007788:	4653      	mov	r3, sl
1000778a:	4662      	mov	r2, ip
1000778c:	5898      	ldr	r0, [r3, r2]
1000778e:	2201      	movs	r2, #1
10007790:	2320      	movs	r3, #32
10007792:	40ba      	lsls	r2, r7
10007794:	1bdb      	subs	r3, r3, r7
10007796:	3a01      	subs	r2, #1
10007798:	2c00      	cmp	r4, #0
1000779a:	db32      	blt.n	10007802 <pio_add_program+0xa6>
1000779c:	429c      	cmp	r4, r3
1000779e:	dc2d      	bgt.n	100077fc <pio_add_program+0xa0>
100077a0:	40a2      	lsls	r2, r4
100077a2:	0015      	movs	r5, r2
100077a4:	4210      	tst	r0, r2
100077a6:	d129      	bne.n	100077fc <pio_add_program+0xa0>
100077a8:	2f00      	cmp	r7, #0
100077aa:	d01a      	beq.n	100077e2 <pio_add_program+0x86>
100077ac:	4643      	mov	r3, r8
100077ae:	785a      	ldrb	r2, [r3, #1]
100077b0:	7819      	ldrb	r1, [r3, #0]
100077b2:	0212      	lsls	r2, r2, #8
100077b4:	4311      	orrs	r1, r2
100077b6:	4642      	mov	r2, r8
100077b8:	789b      	ldrb	r3, [r3, #2]
100077ba:	78d2      	ldrb	r2, [r2, #3]
100077bc:	041b      	lsls	r3, r3, #16
100077be:	430b      	orrs	r3, r1
100077c0:	0612      	lsls	r2, r2, #24
100077c2:	431a      	orrs	r2, r3
100077c4:	4690      	mov	r8, r2
100077c6:	2200      	movs	r2, #0
100077c8:	4641      	mov	r1, r8
100077ca:	0053      	lsls	r3, r2, #1
100077cc:	5ac9      	ldrh	r1, [r1, r3]
100077ce:	0b4b      	lsrs	r3, r1, #13
100077d0:	d100      	bne.n	100077d4 <pio_add_program+0x78>
100077d2:	1909      	adds	r1, r1, r4
100077d4:	1913      	adds	r3, r2, r4
100077d6:	3312      	adds	r3, #18
100077d8:	009b      	lsls	r3, r3, #2
100077da:	3201      	adds	r2, #1
100077dc:	5199      	str	r1, [r3, r6]
100077de:	4297      	cmp	r7, r2
100077e0:	d8f2      	bhi.n	100077c8 <pio_add_program+0x6c>
100077e2:	4653      	mov	r3, sl
100077e4:	4662      	mov	r2, ip
100077e6:	4305      	orrs	r5, r0
100077e8:	509d      	str	r5, [r3, r2]
100077ea:	4648      	mov	r0, r9
100077ec:	f7f9 fb84 	bl	10000ef8 <hw_claim_unlock>
100077f0:	0020      	movs	r0, r4
100077f2:	bce0      	pop	{r5, r6, r7}
100077f4:	46ba      	mov	sl, r7
100077f6:	46b1      	mov	r9, r6
100077f8:	46a8      	mov	r8, r5
100077fa:	bdf0      	pop	{r4, r5, r6, r7, pc}
100077fc:	4808      	ldr	r0, [pc, #32]	; (10007820 <pio_add_program+0xc4>)
100077fe:	f7fb f8e3 	bl	100029c8 <panic>
10007802:	2b00      	cmp	r3, #0
10007804:	da02      	bge.n	1000780c <pio_add_program+0xb0>
10007806:	e7f9      	b.n	100077fc <pio_add_program+0xa0>
10007808:	3b01      	subs	r3, #1
1000780a:	d3f7      	bcc.n	100077fc <pio_add_program+0xa0>
1000780c:	0015      	movs	r5, r2
1000780e:	409d      	lsls	r5, r3
10007810:	001c      	movs	r4, r3
10007812:	4205      	tst	r5, r0
10007814:	d1f8      	bne.n	10007808 <pio_add_program+0xac>
10007816:	e7c7      	b.n	100077a8 <pio_add_program+0x4c>
10007818:	afd00000 	.word	0xafd00000
1000781c:	20001ad0 	.word	0x20001ad0
10007820:	1000822c 	.word	0x1000822c

10007824 <pio_sm_set_consecutive_pindirs>:
10007824:	b5f0      	push	{r4, r5, r6, r7, lr}
10007826:	4657      	mov	r7, sl
10007828:	464e      	mov	r6, r9
1000782a:	4645      	mov	r5, r8
1000782c:	46de      	mov	lr, fp
1000782e:	4689      	mov	r9, r1
10007830:	b5e0      	push	{r5, r6, r7, lr}
10007832:	b083      	sub	sp, #12
10007834:	a90c      	add	r1, sp, #48	; 0x30
10007836:	780d      	ldrb	r5, [r1, #0]
10007838:	4649      	mov	r1, r9
1000783a:	0049      	lsls	r1, r1, #1
1000783c:	4688      	mov	r8, r1
1000783e:	4449      	add	r1, r9
10007840:	00c9      	lsls	r1, r1, #3
10007842:	1846      	adds	r6, r0, r1
10007844:	0037      	movs	r7, r6
10007846:	0034      	movs	r4, r6
10007848:	37dc      	adds	r7, #220	; 0xdc
1000784a:	9001      	str	r0, [sp, #4]
1000784c:	6838      	ldr	r0, [r7, #0]
1000784e:	34cc      	adds	r4, #204	; 0xcc
10007850:	4683      	mov	fp, r0
10007852:	6820      	ldr	r0, [r4, #0]
10007854:	24c0      	movs	r4, #192	; 0xc0
10007856:	4682      	mov	sl, r0
10007858:	9801      	ldr	r0, [sp, #4]
1000785a:	31cc      	adds	r1, #204	; 0xcc
1000785c:	4684      	mov	ip, r0
1000785e:	01a4      	lsls	r4, r4, #6
10007860:	4461      	add	r1, ip
10007862:	4321      	orrs	r1, r4
10007864:	2480      	movs	r4, #128	; 0x80
10007866:	02a4      	lsls	r4, r4, #10
10007868:	600c      	str	r4, [r1, #0]
1000786a:	1e69      	subs	r1, r5, #1
1000786c:	418d      	sbcs	r5, r1
1000786e:	211f      	movs	r1, #31
10007870:	426d      	negs	r5, r5
10007872:	400d      	ands	r5, r1
10007874:	4916      	ldr	r1, [pc, #88]	; (100078d0 <pio_sm_set_consecutive_pindirs+0xac>)
10007876:	468c      	mov	ip, r1
10007878:	4465      	add	r5, ip
1000787a:	2b05      	cmp	r3, #5
1000787c:	d90e      	bls.n	1000789c <pio_sm_set_consecutive_pindirs+0x78>
1000787e:	21a0      	movs	r1, #160	; 0xa0
10007880:	0549      	lsls	r1, r1, #21
10007882:	468c      	mov	ip, r1
10007884:	211f      	movs	r1, #31
10007886:	36d8      	adds	r6, #216	; 0xd8
10007888:	4660      	mov	r0, ip
1000788a:	0154      	lsls	r4, r2, #5
1000788c:	4304      	orrs	r4, r0
1000788e:	3205      	adds	r2, #5
10007890:	3b05      	subs	r3, #5
10007892:	603c      	str	r4, [r7, #0]
10007894:	400a      	ands	r2, r1
10007896:	6035      	str	r5, [r6, #0]
10007898:	2b05      	cmp	r3, #5
1000789a:	d8f5      	bhi.n	10007888 <pio_sm_set_consecutive_pindirs+0x64>
1000789c:	4641      	mov	r1, r8
1000789e:	0152      	lsls	r2, r2, #5
100078a0:	069b      	lsls	r3, r3, #26
100078a2:	4313      	orrs	r3, r2
100078a4:	4449      	add	r1, r9
100078a6:	9a01      	ldr	r2, [sp, #4]
100078a8:	00c9      	lsls	r1, r1, #3
100078aa:	1850      	adds	r0, r2, r1
100078ac:	0002      	movs	r2, r0
100078ae:	32dc      	adds	r2, #220	; 0xdc
100078b0:	6013      	str	r3, [r2, #0]
100078b2:	0003      	movs	r3, r0
100078b4:	33d8      	adds	r3, #216	; 0xd8
100078b6:	601d      	str	r5, [r3, #0]
100078b8:	465b      	mov	r3, fp
100078ba:	6013      	str	r3, [r2, #0]
100078bc:	4653      	mov	r3, sl
100078be:	30cc      	adds	r0, #204	; 0xcc
100078c0:	6003      	str	r3, [r0, #0]
100078c2:	b003      	add	sp, #12
100078c4:	bcf0      	pop	{r4, r5, r6, r7}
100078c6:	46bb      	mov	fp, r7
100078c8:	46b2      	mov	sl, r6
100078ca:	46a9      	mov	r9, r5
100078cc:	46a0      	mov	r8, r4
100078ce:	bdf0      	pop	{r4, r5, r6, r7, pc}
100078d0:	0000e080 	.word	0x0000e080

100078d4 <pio_sm_init>:
100078d4:	b5f0      	push	{r4, r5, r6, r7, lr}
100078d6:	2501      	movs	r5, #1
100078d8:	408d      	lsls	r5, r1
100078da:	6804      	ldr	r4, [r0, #0]
100078dc:	43ac      	bics	r4, r5
100078de:	004d      	lsls	r5, r1, #1
100078e0:	6004      	str	r4, [r0, #0]
100078e2:	186c      	adds	r4, r5, r1
100078e4:	00e4      	lsls	r4, r4, #3
100078e6:	1904      	adds	r4, r0, r4
100078e8:	0026      	movs	r6, r4
100078ea:	36c8      	adds	r6, #200	; 0xc8
100078ec:	2b00      	cmp	r3, #0
100078ee:	d028      	beq.n	10007942 <pio_sm_init+0x6e>
100078f0:	681f      	ldr	r7, [r3, #0]
100078f2:	34dc      	adds	r4, #220	; 0xdc
100078f4:	6037      	str	r7, [r6, #0]
100078f6:	685f      	ldr	r7, [r3, #4]
100078f8:	6077      	str	r7, [r6, #4]
100078fa:	689f      	ldr	r7, [r3, #8]
100078fc:	68db      	ldr	r3, [r3, #12]
100078fe:	60b7      	str	r7, [r6, #8]
10007900:	6023      	str	r3, [r4, #0]
10007902:	186d      	adds	r5, r5, r1
10007904:	00eb      	lsls	r3, r5, #3
10007906:	001d      	movs	r5, r3
10007908:	2480      	movs	r4, #128	; 0x80
1000790a:	35d0      	adds	r5, #208	; 0xd0
1000790c:	1945      	adds	r5, r0, r5
1000790e:	0164      	lsls	r4, r4, #5
10007910:	432c      	orrs	r4, r5
10007912:	2580      	movs	r5, #128	; 0x80
10007914:	062d      	lsls	r5, r5, #24
10007916:	6025      	str	r5, [r4, #0]
10007918:	6025      	str	r5, [r4, #0]
1000791a:	2501      	movs	r5, #1
1000791c:	4c0f      	ldr	r4, [pc, #60]	; (1000795c <pio_sm_init+0x88>)
1000791e:	002e      	movs	r6, r5
10007920:	408c      	lsls	r4, r1
10007922:	6084      	str	r4, [r0, #8]
10007924:	1d0c      	adds	r4, r1, #4
10007926:	40a6      	lsls	r6, r4
10007928:	2480      	movs	r4, #128	; 0x80
1000792a:	3108      	adds	r1, #8
1000792c:	408d      	lsls	r5, r1
1000792e:	211f      	movs	r1, #31
10007930:	01a4      	lsls	r4, r4, #6
10007932:	4304      	orrs	r4, r0
10007934:	18c0      	adds	r0, r0, r3
10007936:	400a      	ands	r2, r1
10007938:	30d8      	adds	r0, #216	; 0xd8
1000793a:	6026      	str	r6, [r4, #0]
1000793c:	6025      	str	r5, [r4, #0]
1000793e:	6002      	str	r2, [r0, #0]
10007940:	bdf0      	pop	{r4, r5, r6, r7, pc}
10007942:	2780      	movs	r7, #128	; 0x80
10007944:	027f      	lsls	r7, r7, #9
10007946:	6037      	str	r7, [r6, #0]
10007948:	27f8      	movs	r7, #248	; 0xf8
1000794a:	027f      	lsls	r7, r7, #9
1000794c:	6077      	str	r7, [r6, #4]
1000794e:	27c0      	movs	r7, #192	; 0xc0
10007950:	34dc      	adds	r4, #220	; 0xdc
10007952:	033f      	lsls	r7, r7, #12
10007954:	60b7      	str	r7, [r6, #8]
10007956:	6023      	str	r3, [r4, #0]
10007958:	e7d3      	b.n	10007902 <pio_sm_init+0x2e>
1000795a:	46c0      	nop			; (mov r8, r8)
1000795c:	01010101 	.word	0x01010101

10007960 <srand>:
10007960:	2200      	movs	r2, #0
10007962:	4b03      	ldr	r3, [pc, #12]	; (10007970 <srand+0x10>)
10007964:	681b      	ldr	r3, [r3, #0]
10007966:	33a8      	adds	r3, #168	; 0xa8
10007968:	6018      	str	r0, [r3, #0]
1000796a:	605a      	str	r2, [r3, #4]
1000796c:	4770      	bx	lr
1000796e:	46c0      	nop			; (mov r8, r8)
10007970:	20000f18 	.word	0x20000f18

10007974 <rand>:
10007974:	4b09      	ldr	r3, [pc, #36]	; (1000799c <rand+0x28>)
10007976:	b510      	push	{r4, lr}
10007978:	681c      	ldr	r4, [r3, #0]
1000797a:	4a09      	ldr	r2, [pc, #36]	; (100079a0 <rand+0x2c>)
1000797c:	34a8      	adds	r4, #168	; 0xa8
1000797e:	6820      	ldr	r0, [r4, #0]
10007980:	6861      	ldr	r1, [r4, #4]
10007982:	4b08      	ldr	r3, [pc, #32]	; (100079a4 <rand+0x30>)
10007984:	f7fd f9a0 	bl	10004cc8 <__wrap___aeabi_lmul>
10007988:	2201      	movs	r2, #1
1000798a:	2300      	movs	r3, #0
1000798c:	1880      	adds	r0, r0, r2
1000798e:	4159      	adcs	r1, r3
10007990:	6020      	str	r0, [r4, #0]
10007992:	6061      	str	r1, [r4, #4]
10007994:	0048      	lsls	r0, r1, #1
10007996:	0840      	lsrs	r0, r0, #1
10007998:	bd10      	pop	{r4, pc}
1000799a:	46c0      	nop			; (mov r8, r8)
1000799c:	20000f18 	.word	0x20000f18
100079a0:	4c957f2d 	.word	0x4c957f2d
100079a4:	5851f42d 	.word	0x5851f42d

100079a8 <strlen>:
100079a8:	b510      	push	{r4, lr}
100079aa:	0783      	lsls	r3, r0, #30
100079ac:	d00a      	beq.n	100079c4 <strlen+0x1c>
100079ae:	0003      	movs	r3, r0
100079b0:	2103      	movs	r1, #3
100079b2:	e002      	b.n	100079ba <strlen+0x12>
100079b4:	3301      	adds	r3, #1
100079b6:	420b      	tst	r3, r1
100079b8:	d005      	beq.n	100079c6 <strlen+0x1e>
100079ba:	781a      	ldrb	r2, [r3, #0]
100079bc:	2a00      	cmp	r2, #0
100079be:	d1f9      	bne.n	100079b4 <strlen+0xc>
100079c0:	1a18      	subs	r0, r3, r0
100079c2:	bd10      	pop	{r4, pc}
100079c4:	0003      	movs	r3, r0
100079c6:	6819      	ldr	r1, [r3, #0]
100079c8:	4a0c      	ldr	r2, [pc, #48]	; (100079fc <strlen+0x54>)
100079ca:	4c0d      	ldr	r4, [pc, #52]	; (10007a00 <strlen+0x58>)
100079cc:	188a      	adds	r2, r1, r2
100079ce:	438a      	bics	r2, r1
100079d0:	4222      	tst	r2, r4
100079d2:	d10f      	bne.n	100079f4 <strlen+0x4c>
100079d4:	6859      	ldr	r1, [r3, #4]
100079d6:	4a09      	ldr	r2, [pc, #36]	; (100079fc <strlen+0x54>)
100079d8:	3304      	adds	r3, #4
100079da:	188a      	adds	r2, r1, r2
100079dc:	438a      	bics	r2, r1
100079de:	4222      	tst	r2, r4
100079e0:	d108      	bne.n	100079f4 <strlen+0x4c>
100079e2:	6859      	ldr	r1, [r3, #4]
100079e4:	4a05      	ldr	r2, [pc, #20]	; (100079fc <strlen+0x54>)
100079e6:	3304      	adds	r3, #4
100079e8:	188a      	adds	r2, r1, r2
100079ea:	438a      	bics	r2, r1
100079ec:	4222      	tst	r2, r4
100079ee:	d0f1      	beq.n	100079d4 <strlen+0x2c>
100079f0:	e000      	b.n	100079f4 <strlen+0x4c>
100079f2:	3301      	adds	r3, #1
100079f4:	781a      	ldrb	r2, [r3, #0]
100079f6:	2a00      	cmp	r2, #0
100079f8:	d1fb      	bne.n	100079f2 <strlen+0x4a>
100079fa:	e7e1      	b.n	100079c0 <strlen+0x18>
100079fc:	fefefeff 	.word	0xfefefeff
10007a00:	80808080 	.word	0x80808080

10007a04 <_fini>:
10007a04:	b5f8      	push	{r3, r4, r5, r6, r7, lr}
10007a06:	46c0      	nop			; (mov r8, r8)

10007a08 <__flash_do_cmd_veneer>:
10007a08:	b401      	push	{r0}
10007a0a:	4802      	ldr	r0, [pc, #8]	; (10007a14 <__flash_do_cmd_veneer+0xc>)
10007a0c:	4684      	mov	ip, r0
10007a0e:	bc01      	pop	{r0}
10007a10:	4760      	bx	ip
10007a12:	bf00      	nop
10007a14:	200002d1 	.word	0x200002d1

10007a18 <__mutex_exit_veneer>:
10007a18:	b401      	push	{r0}
10007a1a:	4802      	ldr	r0, [pc, #8]	; (10007a24 <__mutex_exit_veneer+0xc>)
10007a1c:	4684      	mov	ip, r0
10007a1e:	bc01      	pop	{r0}
10007a20:	4760      	bx	ip
10007a22:	bf00      	nop
10007a24:	20000231 	.word	0x20000231

10007a28 <____aeabi_ldiv0_veneer>:
10007a28:	b401      	push	{r0}
10007a2a:	4802      	ldr	r0, [pc, #8]	; (10007a34 <____aeabi_ldiv0_veneer+0xc>)
10007a2c:	4684      	mov	ip, r0
10007a2e:	bc01      	pop	{r0}
10007a30:	4760      	bx	ip
10007a32:	bf00      	nop
10007a34:	20000da1 	.word	0x20000da1

10007a38 <__e15_is_critical_frame_period_veneer>:
10007a38:	b401      	push	{r0}
10007a3a:	4802      	ldr	r0, [pc, #8]	; (10007a44 <__e15_is_critical_frame_period_veneer+0xc>)
10007a3c:	4684      	mov	ip, r0
10007a3e:	bc01      	pop	{r0}
10007a40:	4760      	bx	ip
10007a42:	bf00      	nop
10007a44:	200009f9 	.word	0x200009f9

10007a48 <____aeabi_idiv0_veneer>:
10007a48:	b401      	push	{r0}
10007a4a:	4802      	ldr	r0, [pc, #8]	; (10007a54 <____aeabi_idiv0_veneer+0xc>)
10007a4c:	4684      	mov	ip, r0
10007a4e:	bc01      	pop	{r0}
10007a50:	4760      	bx	ip
10007a52:	bf00      	nop
10007a54:	20000da1 	.word	0x20000da1

10007a58 <__e15_is_bulkin_ep_veneer>:
10007a58:	b401      	push	{r0}
10007a5a:	4802      	ldr	r0, [pc, #8]	; (10007a64 <__e15_is_bulkin_ep_veneer+0xc>)
10007a5c:	4684      	mov	ip, r0
10007a5e:	bc01      	pop	{r0}
10007a60:	4760      	bx	ip
10007a62:	bf00      	nop
10007a64:	200009d1 	.word	0x200009d1

10007a68 <__mutex_try_enter_veneer>:
10007a68:	b401      	push	{r0}
10007a6a:	4802      	ldr	r0, [pc, #8]	; (10007a74 <__mutex_try_enter_veneer+0xc>)
10007a6c:	4684      	mov	ip, r0
10007a6e:	bc01      	pop	{r0}
10007a70:	4760      	bx	ip
10007a72:	bf00      	nop
10007a74:	200000c1 	.word	0x200000c1

10007a78 <__mutex_enter_timeout_ms_veneer>:
10007a78:	b401      	push	{r0}
10007a7a:	4802      	ldr	r0, [pc, #8]	; (10007a84 <__mutex_enter_timeout_ms_veneer+0xc>)
10007a7c:	4684      	mov	ip, r0
10007a7e:	bc01      	pop	{r0}
10007a80:	4760      	bx	ip
10007a82:	bf00      	nop
10007a84:	200001a1 	.word	0x200001a1

10007a88 <__reset_non_control_endpoints_veneer>:
10007a88:	b401      	push	{r0}
10007a8a:	4802      	ldr	r0, [pc, #8]	; (10007a94 <__reset_non_control_endpoints_veneer+0xc>)
10007a8c:	4684      	mov	ip, r0
10007a8e:	bc01      	pop	{r0}
10007a90:	4760      	bx	ip
10007a92:	bf00      	nop
10007a94:	20000395 	.word	0x20000395

10007a98 <__mutex_try_enter_block_until_veneer>:
10007a98:	b401      	push	{r0}
10007a9a:	4802      	ldr	r0, [pc, #8]	; (10007aa4 <__mutex_try_enter_block_until_veneer+0xc>)
10007a9c:	4684      	mov	ip, r0
10007a9e:	bc01      	pop	{r0}
10007aa0:	4760      	bx	ip
10007aa2:	bf00      	nop
10007aa4:	20000105 	.word	0x20000105

10007aa8 <__hw_endpoint_start_next_buffer_veneer>:
10007aa8:	b401      	push	{r0}
10007aaa:	4802      	ldr	r0, [pc, #8]	; (10007ab4 <__hw_endpoint_start_next_buffer_veneer+0xc>)
10007aac:	4684      	mov	ip, r0
10007aae:	bc01      	pop	{r0}
10007ab0:	4760      	bx	ip
10007ab2:	bf00      	nop
10007ab4:	20000b75 	.word	0x20000b75

10007ab8 <__hw_endpoint_reset_transfer_veneer>:
10007ab8:	b401      	push	{r0}
10007aba:	4802      	ldr	r0, [pc, #8]	; (10007ac4 <__hw_endpoint_reset_transfer_veneer+0xc>)
10007abc:	4684      	mov	ip, r0
10007abe:	bc01      	pop	{r0}
10007ac0:	4760      	bx	ip
10007ac2:	bf00      	nop
10007ac4:	20000b11 	.word	0x20000b11

10007ac8 <___hw_endpoint_buffer_control_update32_veneer>:
10007ac8:	b401      	push	{r0}
10007aca:	4802      	ldr	r0, [pc, #8]	; (10007ad4 <___hw_endpoint_buffer_control_update32_veneer+0xc>)
10007acc:	4684      	mov	ip, r0
10007ace:	bc01      	pop	{r0}
10007ad0:	4760      	bx	ip
10007ad2:	bf00      	nop
10007ad4:	20000b1d 	.word	0x20000b1d

Disassembly of section .data:

200000c0 <mutex_try_enter>:
200000c0:	0003      	movs	r3, r0
200000c2:	6800      	ldr	r0, [r0, #0]
200000c4:	f3ef 8c10 	mrs	ip, PRIMASK
200000c8:	b672      	cpsid	i
200000ca:	6802      	ldr	r2, [r0, #0]
200000cc:	2a00      	cmp	r2, #0
200000ce:	d0fc      	beq.n	200000ca <mutex_try_enter+0xa>
200000d0:	f3bf 8f5f 	dmb	sy
200000d4:	2204      	movs	r2, #4
200000d6:	569a      	ldrsb	r2, [r3, r2]
200000d8:	2a00      	cmp	r2, #0
200000da:	db0b      	blt.n	200000f4 <mutex_try_enter+0x34>
200000dc:	2900      	cmp	r1, #0
200000de:	d00f      	beq.n	20000100 <mutex_try_enter+0x40>
200000e0:	2000      	movs	r0, #0
200000e2:	600a      	str	r2, [r1, #0]
200000e4:	681b      	ldr	r3, [r3, #0]
200000e6:	f3bf 8f5f 	dmb	sy
200000ea:	2200      	movs	r2, #0
200000ec:	601a      	str	r2, [r3, #0]
200000ee:	f38c 8810 	msr	PRIMASK, ip
200000f2:	4770      	bx	lr
200000f4:	22d0      	movs	r2, #208	; 0xd0
200000f6:	0612      	lsls	r2, r2, #24
200000f8:	6812      	ldr	r2, [r2, #0]
200000fa:	2001      	movs	r0, #1
200000fc:	711a      	strb	r2, [r3, #4]
200000fe:	e7f1      	b.n	200000e4 <mutex_try_enter+0x24>
20000100:	2000      	movs	r0, #0
20000102:	e7ef      	b.n	200000e4 <mutex_try_enter+0x24>

20000104 <mutex_try_enter_block_until>:
20000104:	b5f0      	push	{r4, r5, r6, r7, lr}
20000106:	46c6      	mov	lr, r8
20000108:	0015      	movs	r5, r2
2000010a:	b500      	push	{lr}
2000010c:	0004      	movs	r4, r0
2000010e:	001e      	movs	r6, r3
20000110:	6802      	ldr	r2, [r0, #0]
20000112:	f3ef 8110 	mrs	r1, PRIMASK
20000116:	b672      	cpsid	i
20000118:	6813      	ldr	r3, [r2, #0]
2000011a:	2b00      	cmp	r3, #0
2000011c:	d0fc      	beq.n	20000118 <mutex_try_enter_block_until+0x14>
2000011e:	f3bf 8f5f 	dmb	sy
20000122:	2304      	movs	r3, #4
20000124:	56e3      	ldrsb	r3, [r4, r3]
20000126:	2b00      	cmp	r3, #0
20000128:	db2d      	blt.n	20000186 <mutex_try_enter_block_until+0x82>
2000012a:	6822      	ldr	r2, [r4, #0]
2000012c:	f3bf 8f5f 	dmb	sy
20000130:	2000      	movs	r0, #0
20000132:	6010      	str	r0, [r2, #0]
20000134:	f381 8810 	msr	PRIMASK, r1
20000138:	22d0      	movs	r2, #208	; 0xd0
2000013a:	0612      	lsls	r2, r2, #24
2000013c:	7812      	ldrb	r2, [r2, #0]
2000013e:	b252      	sxtb	r2, r2
20000140:	4690      	mov	r8, r2
20000142:	429a      	cmp	r2, r3
20000144:	d103      	bne.n	2000014e <mutex_try_enter_block_until+0x4a>
20000146:	2000      	movs	r0, #0
20000148:	bc80      	pop	{r7}
2000014a:	46b8      	mov	r8, r7
2000014c:	bdf0      	pop	{r4, r5, r6, r7, pc}
2000014e:	2700      	movs	r7, #0
20000150:	e00b      	b.n	2000016a <mutex_try_enter_block_until+0x66>
20000152:	6823      	ldr	r3, [r4, #0]
20000154:	f3bf 8f5f 	dmb	sy
20000158:	601f      	str	r7, [r3, #0]
2000015a:	f381 8810 	msr	PRIMASK, r1
2000015e:	0028      	movs	r0, r5
20000160:	0031      	movs	r1, r6
20000162:	f000 fe29 	bl	20000db8 <__best_effort_wfe_or_timeout_veneer>
20000166:	2800      	cmp	r0, #0
20000168:	d1ed      	bne.n	20000146 <mutex_try_enter_block_until+0x42>
2000016a:	6822      	ldr	r2, [r4, #0]
2000016c:	f3ef 8110 	mrs	r1, PRIMASK
20000170:	b672      	cpsid	i
20000172:	6813      	ldr	r3, [r2, #0]
20000174:	2b00      	cmp	r3, #0
20000176:	d0fc      	beq.n	20000172 <mutex_try_enter_block_until+0x6e>
20000178:	f3bf 8f5f 	dmb	sy
2000017c:	7923      	ldrb	r3, [r4, #4]
2000017e:	2b7f      	cmp	r3, #127	; 0x7f
20000180:	d9e7      	bls.n	20000152 <mutex_try_enter_block_until+0x4e>
20000182:	4643      	mov	r3, r8
20000184:	e002      	b.n	2000018c <mutex_try_enter_block_until+0x88>
20000186:	23d0      	movs	r3, #208	; 0xd0
20000188:	061b      	lsls	r3, r3, #24
2000018a:	681b      	ldr	r3, [r3, #0]
2000018c:	7123      	strb	r3, [r4, #4]
2000018e:	6823      	ldr	r3, [r4, #0]
20000190:	f3bf 8f5f 	dmb	sy
20000194:	2200      	movs	r2, #0
20000196:	601a      	str	r2, [r3, #0]
20000198:	f381 8810 	msr	PRIMASK, r1
2000019c:	2001      	movs	r0, #1
2000019e:	e7d3      	b.n	20000148 <mutex_try_enter_block_until+0x44>

200001a0 <mutex_enter_timeout_ms>:
200001a0:	b5f0      	push	{r4, r5, r6, r7, lr}
200001a2:	46c6      	mov	lr, r8
200001a4:	b500      	push	{lr}
200001a6:	000d      	movs	r5, r1
200001a8:	0004      	movs	r4, r0
200001aa:	f000 fe0d 	bl	20000dc8 <__time_us_64_veneer>
200001ae:	22fa      	movs	r2, #250	; 0xfa
200001b0:	0006      	movs	r6, r0
200001b2:	000f      	movs	r7, r1
200001b4:	2300      	movs	r3, #0
200001b6:	0028      	movs	r0, r5
200001b8:	2100      	movs	r1, #0
200001ba:	0092      	lsls	r2, r2, #2
200001bc:	f000 fe14 	bl	20000de8 <____wrap___aeabi_lmul_veneer>
200001c0:	1836      	adds	r6, r6, r0
200001c2:	414f      	adcs	r7, r1
200001c4:	2f00      	cmp	r7, #0
200001c6:	db2c      	blt.n	20000222 <mutex_enter_timeout_ms+0x82>
200001c8:	23d0      	movs	r3, #208	; 0xd0
200001ca:	061b      	lsls	r3, r3, #24
200001cc:	681b      	ldr	r3, [r3, #0]
200001ce:	2500      	movs	r5, #0
200001d0:	4698      	mov	r8, r3
200001d2:	e00b      	b.n	200001ec <mutex_enter_timeout_ms+0x4c>
200001d4:	6823      	ldr	r3, [r4, #0]
200001d6:	f3bf 8f5f 	dmb	sy
200001da:	601d      	str	r5, [r3, #0]
200001dc:	f381 8810 	msr	PRIMASK, r1
200001e0:	0030      	movs	r0, r6
200001e2:	0039      	movs	r1, r7
200001e4:	f000 fde8 	bl	20000db8 <__best_effort_wfe_or_timeout_veneer>
200001e8:	2800      	cmp	r0, #0
200001ea:	d118      	bne.n	2000021e <mutex_enter_timeout_ms+0x7e>
200001ec:	6822      	ldr	r2, [r4, #0]
200001ee:	f3ef 8110 	mrs	r1, PRIMASK
200001f2:	b672      	cpsid	i
200001f4:	6813      	ldr	r3, [r2, #0]
200001f6:	2b00      	cmp	r3, #0
200001f8:	d0fc      	beq.n	200001f4 <mutex_enter_timeout_ms+0x54>
200001fa:	f3bf 8f5f 	dmb	sy
200001fe:	7923      	ldrb	r3, [r4, #4]
20000200:	2b7f      	cmp	r3, #127	; 0x7f
20000202:	d9e7      	bls.n	200001d4 <mutex_enter_timeout_ms+0x34>
20000204:	4643      	mov	r3, r8
20000206:	7123      	strb	r3, [r4, #4]
20000208:	6823      	ldr	r3, [r4, #0]
2000020a:	f3bf 8f5f 	dmb	sy
2000020e:	2200      	movs	r2, #0
20000210:	601a      	str	r2, [r3, #0]
20000212:	f381 8810 	msr	PRIMASK, r1
20000216:	2001      	movs	r0, #1
20000218:	bc80      	pop	{r7}
2000021a:	46b8      	mov	r8, r7
2000021c:	bdf0      	pop	{r4, r5, r6, r7, pc}
2000021e:	2000      	movs	r0, #0
20000220:	e7fa      	b.n	20000218 <mutex_enter_timeout_ms+0x78>
20000222:	2601      	movs	r6, #1
20000224:	4f01      	ldr	r7, [pc, #4]	; (2000022c <mutex_enter_timeout_ms+0x8c>)
20000226:	4276      	negs	r6, r6
20000228:	e7ce      	b.n	200001c8 <mutex_enter_timeout_ms+0x28>
2000022a:	46c0      	nop			; (mov r8, r8)
2000022c:	7fffffff 	.word	0x7fffffff

20000230 <mutex_exit>:
20000230:	6802      	ldr	r2, [r0, #0]
20000232:	f3ef 8110 	mrs	r1, PRIMASK
20000236:	b672      	cpsid	i
20000238:	6813      	ldr	r3, [r2, #0]
2000023a:	2b00      	cmp	r3, #0
2000023c:	d0fc      	beq.n	20000238 <mutex_exit+0x8>
2000023e:	f3bf 8f5f 	dmb	sy
20000242:	23ff      	movs	r3, #255	; 0xff
20000244:	7103      	strb	r3, [r0, #4]
20000246:	6803      	ldr	r3, [r0, #0]
20000248:	f3bf 8f5f 	dmb	sy
2000024c:	2200      	movs	r2, #0
2000024e:	601a      	str	r2, [r3, #0]
20000250:	f381 8810 	msr	PRIMASK, r1
20000254:	bf40      	sev
20000256:	4770      	bx	lr

20000258 <flash_init_boot2_copyout>:
20000258:	4808      	ldr	r0, [pc, #32]	; (2000027c <flash_init_boot2_copyout+0x24>)
2000025a:	b510      	push	{r4, lr}
2000025c:	7803      	ldrb	r3, [r0, #0]
2000025e:	2b00      	cmp	r3, #0
20000260:	d10a      	bne.n	20000278 <flash_init_boot2_copyout+0x20>
20000262:	2380      	movs	r3, #128	; 0x80
20000264:	4906      	ldr	r1, [pc, #24]	; (20000280 <flash_init_boot2_copyout+0x28>)
20000266:	4a07      	ldr	r2, [pc, #28]	; (20000284 <flash_init_boot2_copyout+0x2c>)
20000268:	055b      	lsls	r3, r3, #21
2000026a:	681c      	ldr	r4, [r3, #0]
2000026c:	50cc      	str	r4, [r1, r3]
2000026e:	3304      	adds	r3, #4
20000270:	4293      	cmp	r3, r2
20000272:	d1fa      	bne.n	2000026a <flash_init_boot2_copyout+0x12>
20000274:	2301      	movs	r3, #1
20000276:	7003      	strb	r3, [r0, #0]
20000278:	bd10      	pop	{r4, pc}
2000027a:	46c0      	nop			; (mov r8, r8)
2000027c:	20002113 	.word	0x20002113
20000280:	10001ae8 	.word	0x10001ae8
20000284:	10000100 	.word	0x10000100

20000288 <flash_enable_xip_via_boot2>:
20000288:	b510      	push	{r4, lr}
2000028a:	4b02      	ldr	r3, [pc, #8]	; (20000294 <flash_enable_xip_via_boot2+0xc>)
2000028c:	3301      	adds	r3, #1
2000028e:	4798      	blx	r3
20000290:	bd10      	pop	{r4, pc}
20000292:	46c0      	nop			; (mov r8, r8)
20000294:	20001ae8 	.word	0x20001ae8

20000298 <flash_cs_force.constprop.0>:
20000298:	4b03      	ldr	r3, [pc, #12]	; (200002a8 <flash_cs_force.constprop.0+0x10>)
2000029a:	681a      	ldr	r2, [r3, #0]
2000029c:	23c0      	movs	r3, #192	; 0xc0
2000029e:	009b      	lsls	r3, r3, #2
200002a0:	4393      	bics	r3, r2
200002a2:	4a02      	ldr	r2, [pc, #8]	; (200002ac <flash_cs_force.constprop.0+0x14>)
200002a4:	6013      	str	r3, [r2, #0]
200002a6:	4770      	bx	lr
200002a8:	4001800c 	.word	0x4001800c
200002ac:	4001900c 	.word	0x4001900c

200002b0 <flash_cs_force.constprop.1>:
200002b0:	4b05      	ldr	r3, [pc, #20]	; (200002c8 <flash_cs_force.constprop.1+0x18>)
200002b2:	681a      	ldr	r2, [r3, #0]
200002b4:	2380      	movs	r3, #128	; 0x80
200002b6:	009b      	lsls	r3, r3, #2
200002b8:	4053      	eors	r3, r2
200002ba:	22c0      	movs	r2, #192	; 0xc0
200002bc:	0092      	lsls	r2, r2, #2
200002be:	4013      	ands	r3, r2
200002c0:	4a02      	ldr	r2, [pc, #8]	; (200002cc <flash_cs_force.constprop.1+0x1c>)
200002c2:	6013      	str	r3, [r2, #0]
200002c4:	4770      	bx	lr
200002c6:	46c0      	nop			; (mov r8, r8)
200002c8:	4001800c 	.word	0x4001800c
200002cc:	4001900c 	.word	0x4001900c

200002d0 <flash_do_cmd>:
200002d0:	2314      	movs	r3, #20
200002d2:	b5f0      	push	{r4, r5, r6, r7, lr}
200002d4:	46d6      	mov	lr, sl
200002d6:	464f      	mov	r7, r9
200002d8:	4646      	mov	r6, r8
200002da:	469a      	mov	sl, r3
200002dc:	4681      	mov	r9, r0
200002de:	8818      	ldrh	r0, [r3, #0]
200002e0:	3304      	adds	r3, #4
200002e2:	b5c0      	push	{r6, r7, lr}
200002e4:	4698      	mov	r8, r3
200002e6:	000e      	movs	r6, r1
200002e8:	881b      	ldrh	r3, [r3, #0]
200002ea:	4927      	ldr	r1, [pc, #156]	; (20000388 <flash_do_cmd+0xb8>)
200002ec:	0014      	movs	r4, r2
200002ee:	4798      	blx	r3
200002f0:	4653      	mov	r3, sl
200002f2:	0007      	movs	r7, r0
200002f4:	8818      	ldrh	r0, [r3, #0]
200002f6:	4643      	mov	r3, r8
200002f8:	4924      	ldr	r1, [pc, #144]	; (2000038c <flash_do_cmd+0xbc>)
200002fa:	881b      	ldrh	r3, [r3, #0]
200002fc:	4798      	blx	r3
200002fe:	4653      	mov	r3, sl
20000300:	0005      	movs	r5, r0
20000302:	8818      	ldrh	r0, [r3, #0]
20000304:	4643      	mov	r3, r8
20000306:	4922      	ldr	r1, [pc, #136]	; (20000390 <flash_do_cmd+0xc0>)
20000308:	881b      	ldrh	r3, [r3, #0]
2000030a:	4798      	blx	r3
2000030c:	4680      	mov	r8, r0
2000030e:	f7ff ffa3 	bl	20000258 <flash_init_boot2_copyout>
20000312:	47b8      	blx	r7
20000314:	47a8      	blx	r5
20000316:	f7ff ffcb 	bl	200002b0 <flash_cs_force.constprop.1>
2000031a:	2c00      	cmp	r4, #0
2000031c:	d01b      	beq.n	20000356 <flash_do_cmd+0x86>
2000031e:	21c0      	movs	r1, #192	; 0xc0
20000320:	0022      	movs	r2, r4
20000322:	2708      	movs	r7, #8
20000324:	2002      	movs	r0, #2
20000326:	0549      	lsls	r1, r1, #21
20000328:	003d      	movs	r5, r7
2000032a:	6a8b      	ldr	r3, [r1, #40]	; 0x28
2000032c:	401d      	ands	r5, r3
2000032e:	4218      	tst	r0, r3
20000330:	d00b      	beq.n	2000034a <flash_do_cmd+0x7a>
20000332:	2c00      	cmp	r4, #0
20000334:	d009      	beq.n	2000034a <flash_do_cmd+0x7a>
20000336:	1b13      	subs	r3, r2, r4
20000338:	2b0d      	cmp	r3, #13
2000033a:	d81f      	bhi.n	2000037c <flash_do_cmd+0xac>
2000033c:	464b      	mov	r3, r9
2000033e:	781b      	ldrb	r3, [r3, #0]
20000340:	3c01      	subs	r4, #1
20000342:	660b      	str	r3, [r1, #96]	; 0x60
20000344:	2301      	movs	r3, #1
20000346:	469c      	mov	ip, r3
20000348:	44e1      	add	r9, ip
2000034a:	0023      	movs	r3, r4
2000034c:	2d00      	cmp	r5, #0
2000034e:	d10c      	bne.n	2000036a <flash_do_cmd+0x9a>
20000350:	4313      	orrs	r3, r2
20000352:	2b00      	cmp	r3, #0
20000354:	d1e8      	bne.n	20000328 <flash_do_cmd+0x58>
20000356:	f7ff ff9f 	bl	20000298 <flash_cs_force.constprop.0>
2000035a:	47c0      	blx	r8
2000035c:	f7ff ff94 	bl	20000288 <flash_enable_xip_via_boot2>
20000360:	bce0      	pop	{r5, r6, r7}
20000362:	46ba      	mov	sl, r7
20000364:	46b1      	mov	r9, r6
20000366:	46a8      	mov	r8, r5
20000368:	bdf0      	pop	{r4, r5, r6, r7, pc}
2000036a:	2a00      	cmp	r2, #0
2000036c:	d0f1      	beq.n	20000352 <flash_do_cmd+0x82>
2000036e:	6e0b      	ldr	r3, [r1, #96]	; 0x60
20000370:	3a01      	subs	r2, #1
20000372:	7033      	strb	r3, [r6, #0]
20000374:	0013      	movs	r3, r2
20000376:	3601      	adds	r6, #1
20000378:	4323      	orrs	r3, r4
2000037a:	e7ea      	b.n	20000352 <flash_do_cmd+0x82>
2000037c:	2d00      	cmp	r5, #0
2000037e:	d0d3      	beq.n	20000328 <flash_do_cmd+0x58>
20000380:	2a00      	cmp	r2, #0
20000382:	d0d1      	beq.n	20000328 <flash_do_cmd+0x58>
20000384:	e7f3      	b.n	2000036e <flash_do_cmd+0x9e>
20000386:	46c0      	nop			; (mov r8, r8)
20000388:	00004649 	.word	0x00004649
2000038c:	00005845 	.word	0x00005845
20000390:	00004346 	.word	0x00004346

20000394 <reset_non_control_endpoints>:
20000394:	2300      	movs	r3, #0
20000396:	4a1c      	ldr	r2, [pc, #112]	; (20000408 <reset_non_control_endpoints+0x74>)
20000398:	b510      	push	{r4, lr}
2000039a:	6093      	str	r3, [r2, #8]
2000039c:	60d3      	str	r3, [r2, #12]
2000039e:	4a1b      	ldr	r2, [pc, #108]	; (2000040c <reset_non_control_endpoints+0x78>)
200003a0:	2100      	movs	r1, #0
200003a2:	6093      	str	r3, [r2, #8]
200003a4:	60d3      	str	r3, [r2, #12]
200003a6:	4a1a      	ldr	r2, [pc, #104]	; (20000410 <reset_non_control_endpoints+0x7c>)
200003a8:	481a      	ldr	r0, [pc, #104]	; (20000414 <reset_non_control_endpoints+0x80>)
200003aa:	6093      	str	r3, [r2, #8]
200003ac:	60d3      	str	r3, [r2, #12]
200003ae:	4a1a      	ldr	r2, [pc, #104]	; (20000418 <reset_non_control_endpoints+0x84>)
200003b0:	6093      	str	r3, [r2, #8]
200003b2:	60d3      	str	r3, [r2, #12]
200003b4:	4a19      	ldr	r2, [pc, #100]	; (2000041c <reset_non_control_endpoints+0x88>)
200003b6:	6093      	str	r3, [r2, #8]
200003b8:	60d3      	str	r3, [r2, #12]
200003ba:	4a19      	ldr	r2, [pc, #100]	; (20000420 <reset_non_control_endpoints+0x8c>)
200003bc:	6093      	str	r3, [r2, #8]
200003be:	60d3      	str	r3, [r2, #12]
200003c0:	4a18      	ldr	r2, [pc, #96]	; (20000424 <reset_non_control_endpoints+0x90>)
200003c2:	6093      	str	r3, [r2, #8]
200003c4:	60d3      	str	r3, [r2, #12]
200003c6:	4a18      	ldr	r2, [pc, #96]	; (20000428 <reset_non_control_endpoints+0x94>)
200003c8:	6093      	str	r3, [r2, #8]
200003ca:	60d3      	str	r3, [r2, #12]
200003cc:	4a17      	ldr	r2, [pc, #92]	; (2000042c <reset_non_control_endpoints+0x98>)
200003ce:	6093      	str	r3, [r2, #8]
200003d0:	60d3      	str	r3, [r2, #12]
200003d2:	4a17      	ldr	r2, [pc, #92]	; (20000430 <reset_non_control_endpoints+0x9c>)
200003d4:	6093      	str	r3, [r2, #8]
200003d6:	60d3      	str	r3, [r2, #12]
200003d8:	4a16      	ldr	r2, [pc, #88]	; (20000434 <reset_non_control_endpoints+0xa0>)
200003da:	6093      	str	r3, [r2, #8]
200003dc:	60d3      	str	r3, [r2, #12]
200003de:	4a16      	ldr	r2, [pc, #88]	; (20000438 <reset_non_control_endpoints+0xa4>)
200003e0:	6093      	str	r3, [r2, #8]
200003e2:	60d3      	str	r3, [r2, #12]
200003e4:	4a15      	ldr	r2, [pc, #84]	; (2000043c <reset_non_control_endpoints+0xa8>)
200003e6:	6093      	str	r3, [r2, #8]
200003e8:	60d3      	str	r3, [r2, #12]
200003ea:	4a15      	ldr	r2, [pc, #84]	; (20000440 <reset_non_control_endpoints+0xac>)
200003ec:	6093      	str	r3, [r2, #8]
200003ee:	60d3      	str	r3, [r2, #12]
200003f0:	4a14      	ldr	r2, [pc, #80]	; (20000444 <reset_non_control_endpoints+0xb0>)
200003f2:	6093      	str	r3, [r2, #8]
200003f4:	60d3      	str	r3, [r2, #12]
200003f6:	22f0      	movs	r2, #240	; 0xf0
200003f8:	0092      	lsls	r2, r2, #2
200003fa:	f000 fd05 	bl	20000e08 <____wrap_memset_veneer>
200003fe:	4b12      	ldr	r3, [pc, #72]	; (20000448 <reset_non_control_endpoints+0xb4>)
20000400:	4a12      	ldr	r2, [pc, #72]	; (2000044c <reset_non_control_endpoints+0xb8>)
20000402:	601a      	str	r2, [r3, #0]
20000404:	bd10      	pop	{r4, pc}
20000406:	46c0      	nop			; (mov r8, r8)
20000408:	50100000 	.word	0x50100000
2000040c:	50100008 	.word	0x50100008
20000410:	50100010 	.word	0x50100010
20000414:	20001cd0 	.word	0x20001cd0
20000418:	50100018 	.word	0x50100018
2000041c:	50100020 	.word	0x50100020
20000420:	50100028 	.word	0x50100028
20000424:	50100030 	.word	0x50100030
20000428:	50100038 	.word	0x50100038
2000042c:	50100040 	.word	0x50100040
20000430:	50100048 	.word	0x50100048
20000434:	50100050 	.word	0x50100050
20000438:	50100058 	.word	0x50100058
2000043c:	50100060 	.word	0x50100060
20000440:	50100068 	.word	0x50100068
20000444:	50100070 	.word	0x50100070
20000448:	200020bc 	.word	0x200020bc
2000044c:	50100180 	.word	0x50100180

20000450 <hw_handle_buff_status>:
20000450:	b5f0      	push	{r4, r5, r6, r7, lr}
20000452:	4657      	mov	r7, sl
20000454:	46de      	mov	lr, fp
20000456:	464e      	mov	r6, r9
20000458:	4645      	mov	r5, r8
2000045a:	b5e0      	push	{r5, r6, r7, lr}
2000045c:	4b23      	ldr	r3, [pc, #140]	; (200004ec <hw_handle_buff_status+0x9c>)
2000045e:	b087      	sub	sp, #28
20000460:	6d9f      	ldr	r7, [r3, #88]	; 0x58
20000462:	2f00      	cmp	r7, #0
20000464:	d023      	beq.n	200004ae <hw_handle_buff_status+0x5e>
20000466:	4b22      	ldr	r3, [pc, #136]	; (200004f0 <hw_handle_buff_status+0xa0>)
20000468:	2400      	movs	r4, #0
2000046a:	4699      	mov	r9, r3
2000046c:	2301      	movs	r3, #1
2000046e:	4698      	mov	r8, r3
20000470:	4b20      	ldr	r3, [pc, #128]	; (200004f4 <hw_handle_buff_status+0xa4>)
20000472:	2601      	movs	r6, #1
20000474:	469a      	mov	sl, r3
20000476:	e004      	b.n	20000482 <hw_handle_buff_status+0x32>
20000478:	3401      	adds	r4, #1
2000047a:	0076      	lsls	r6, r6, #1
2000047c:	b2e4      	uxtb	r4, r4
2000047e:	2c20      	cmp	r4, #32
20000480:	d015      	beq.n	200004ae <hw_handle_buff_status+0x5e>
20000482:	423e      	tst	r6, r7
20000484:	d0f8      	beq.n	20000478 <hw_handle_buff_status+0x28>
20000486:	464b      	mov	r3, r9
20000488:	659e      	str	r6, [r3, #88]	; 0x58
2000048a:	4643      	mov	r3, r8
2000048c:	0865      	lsrs	r5, r4, #1
2000048e:	006d      	lsls	r5, r5, #1
20000490:	43a3      	bics	r3, r4
20000492:	18ed      	adds	r5, r5, r3
20000494:	016d      	lsls	r5, r5, #5
20000496:	4455      	add	r5, sl
20000498:	0028      	movs	r0, r5
2000049a:	f000 fba1 	bl	20000be0 <hw_endpoint_xfer_continue>
2000049e:	2800      	cmp	r0, #0
200004a0:	d10c      	bne.n	200004bc <hw_handle_buff_status+0x6c>
200004a2:	3401      	adds	r4, #1
200004a4:	43b7      	bics	r7, r6
200004a6:	b2e4      	uxtb	r4, r4
200004a8:	0076      	lsls	r6, r6, #1
200004aa:	2f00      	cmp	r7, #0
200004ac:	d1e7      	bne.n	2000047e <hw_handle_buff_status+0x2e>
200004ae:	b007      	add	sp, #28
200004b0:	bcf0      	pop	{r4, r5, r6, r7}
200004b2:	46bb      	mov	fp, r7
200004b4:	46b2      	mov	sl, r6
200004b6:	46a9      	mov	r9, r5
200004b8:	46a0      	mov	r8, r4
200004ba:	bdf0      	pop	{r4, r5, r6, r7, pc}
200004bc:	78ab      	ldrb	r3, [r5, #2]
200004be:	2208      	movs	r2, #8
200004c0:	469b      	mov	fp, r3
200004c2:	8aeb      	ldrh	r3, [r5, #22]
200004c4:	2100      	movs	r1, #0
200004c6:	a803      	add	r0, sp, #12
200004c8:	9301      	str	r3, [sp, #4]
200004ca:	f000 fc9d 	bl	20000e08 <____wrap_memset_veneer>
200004ce:	2307      	movs	r3, #7
200004d0:	4659      	mov	r1, fp
200004d2:	aa02      	add	r2, sp, #8
200004d4:	7153      	strb	r3, [r2, #5]
200004d6:	9b01      	ldr	r3, [sp, #4]
200004d8:	7211      	strb	r1, [r2, #8]
200004da:	a803      	add	r0, sp, #12
200004dc:	2101      	movs	r1, #1
200004de:	9305      	str	r3, [sp, #20]
200004e0:	f000 fba6 	bl	20000c30 <dcd_event_handler>
200004e4:	0028      	movs	r0, r5
200004e6:	f000 fb13 	bl	20000b10 <hw_endpoint_reset_transfer>
200004ea:	e7da      	b.n	200004a2 <hw_handle_buff_status+0x52>
200004ec:	50110000 	.word	0x50110000
200004f0:	50113000 	.word	0x50113000
200004f4:	20001c90 	.word	0x20001c90

200004f8 <dcd_rp2040_irq>:
200004f8:	2398      	movs	r3, #152	; 0x98
200004fa:	4ad1      	ldr	r2, [pc, #836]	; (20000840 <dcd_rp2040_irq+0x348>)
200004fc:	b570      	push	{r4, r5, r6, lr}
200004fe:	58d5      	ldr	r5, [r2, r3]
20000500:	2380      	movs	r3, #128	; 0x80
20000502:	002c      	movs	r4, r5
20000504:	029b      	lsls	r3, r3, #10
20000506:	2610      	movs	r6, #16
20000508:	b084      	sub	sp, #16
2000050a:	401c      	ands	r4, r3
2000050c:	421d      	tst	r5, r3
2000050e:	d078      	beq.n	20000602 <dcd_rp2040_irq+0x10a>
20000510:	4bcc      	ldr	r3, [pc, #816]	; (20000844 <dcd_rp2040_irq+0x34c>)
20000512:	4ccd      	ldr	r4, [pc, #820]	; (20000848 <dcd_rp2040_irq+0x350>)
20000514:	6a9a      	ldr	r2, [r3, #40]	; 0x28
20000516:	4bcd      	ldr	r3, [pc, #820]	; (2000084c <dcd_rp2040_irq+0x354>)
20000518:	2600      	movs	r6, #0
2000051a:	601a      	str	r2, [r3, #0]
2000051c:	233b      	movs	r3, #59	; 0x3b
2000051e:	5ce3      	ldrb	r3, [r4, r3]
20000520:	2b02      	cmp	r3, #2
20000522:	d100      	bne.n	20000526 <dcd_rp2040_irq+0x2e>
20000524:	e0d7      	b.n	200006d6 <dcd_rp2040_irq+0x1de>
20000526:	237b      	movs	r3, #123	; 0x7b
20000528:	5ce3      	ldrb	r3, [r4, r3]
2000052a:	2b02      	cmp	r3, #2
2000052c:	d100      	bne.n	20000530 <dcd_rp2040_irq+0x38>
2000052e:	e21a      	b.n	20000966 <dcd_rp2040_irq+0x46e>
20000530:	23bb      	movs	r3, #187	; 0xbb
20000532:	5ce3      	ldrb	r3, [r4, r3]
20000534:	2b02      	cmp	r3, #2
20000536:	d100      	bne.n	2000053a <dcd_rp2040_irq+0x42>
20000538:	e203      	b.n	20000942 <dcd_rp2040_irq+0x44a>
2000053a:	23fb      	movs	r3, #251	; 0xfb
2000053c:	5ce3      	ldrb	r3, [r4, r3]
2000053e:	2b02      	cmp	r3, #2
20000540:	d100      	bne.n	20000544 <dcd_rp2040_irq+0x4c>
20000542:	e1ec      	b.n	2000091e <dcd_rp2040_irq+0x426>
20000544:	233c      	movs	r3, #60	; 0x3c
20000546:	33ff      	adds	r3, #255	; 0xff
20000548:	5ce3      	ldrb	r3, [r4, r3]
2000054a:	2b02      	cmp	r3, #2
2000054c:	d100      	bne.n	20000550 <dcd_rp2040_irq+0x58>
2000054e:	e1d1      	b.n	200008f4 <dcd_rp2040_irq+0x3fc>
20000550:	237c      	movs	r3, #124	; 0x7c
20000552:	33ff      	adds	r3, #255	; 0xff
20000554:	5ce3      	ldrb	r3, [r4, r3]
20000556:	2b02      	cmp	r3, #2
20000558:	d100      	bne.n	2000055c <dcd_rp2040_irq+0x64>
2000055a:	e1b6      	b.n	200008ca <dcd_rp2040_irq+0x3d2>
2000055c:	23bc      	movs	r3, #188	; 0xbc
2000055e:	33ff      	adds	r3, #255	; 0xff
20000560:	5ce3      	ldrb	r3, [r4, r3]
20000562:	2b02      	cmp	r3, #2
20000564:	d100      	bne.n	20000568 <dcd_rp2040_irq+0x70>
20000566:	e19b      	b.n	200008a0 <dcd_rp2040_irq+0x3a8>
20000568:	23fc      	movs	r3, #252	; 0xfc
2000056a:	33ff      	adds	r3, #255	; 0xff
2000056c:	5ce3      	ldrb	r3, [r4, r3]
2000056e:	2b02      	cmp	r3, #2
20000570:	d100      	bne.n	20000574 <dcd_rp2040_irq+0x7c>
20000572:	e14f      	b.n	20000814 <dcd_rp2040_irq+0x31c>
20000574:	4bb6      	ldr	r3, [pc, #728]	; (20000850 <dcd_rp2040_irq+0x358>)
20000576:	5ce3      	ldrb	r3, [r4, r3]
20000578:	2b02      	cmp	r3, #2
2000057a:	d100      	bne.n	2000057e <dcd_rp2040_irq+0x86>
2000057c:	e136      	b.n	200007ec <dcd_rp2040_irq+0x2f4>
2000057e:	4bb5      	ldr	r3, [pc, #724]	; (20000854 <dcd_rp2040_irq+0x35c>)
20000580:	5ce3      	ldrb	r3, [r4, r3]
20000582:	2b02      	cmp	r3, #2
20000584:	d100      	bne.n	20000588 <dcd_rp2040_irq+0x90>
20000586:	e11d      	b.n	200007c4 <dcd_rp2040_irq+0x2cc>
20000588:	4bb3      	ldr	r3, [pc, #716]	; (20000858 <dcd_rp2040_irq+0x360>)
2000058a:	5ce3      	ldrb	r3, [r4, r3]
2000058c:	2b02      	cmp	r3, #2
2000058e:	d100      	bne.n	20000592 <dcd_rp2040_irq+0x9a>
20000590:	e104      	b.n	2000079c <dcd_rp2040_irq+0x2a4>
20000592:	4bb2      	ldr	r3, [pc, #712]	; (2000085c <dcd_rp2040_irq+0x364>)
20000594:	5ce3      	ldrb	r3, [r4, r3]
20000596:	2b02      	cmp	r3, #2
20000598:	d100      	bne.n	2000059c <dcd_rp2040_irq+0xa4>
2000059a:	e0eb      	b.n	20000774 <dcd_rp2040_irq+0x27c>
2000059c:	4bb0      	ldr	r3, [pc, #704]	; (20000860 <dcd_rp2040_irq+0x368>)
2000059e:	5ce3      	ldrb	r3, [r4, r3]
200005a0:	2b02      	cmp	r3, #2
200005a2:	d100      	bne.n	200005a6 <dcd_rp2040_irq+0xae>
200005a4:	e0d2      	b.n	2000074c <dcd_rp2040_irq+0x254>
200005a6:	4baf      	ldr	r3, [pc, #700]	; (20000864 <dcd_rp2040_irq+0x36c>)
200005a8:	5ce3      	ldrb	r3, [r4, r3]
200005aa:	2b02      	cmp	r3, #2
200005ac:	d100      	bne.n	200005b0 <dcd_rp2040_irq+0xb8>
200005ae:	e0b9      	b.n	20000724 <dcd_rp2040_irq+0x22c>
200005b0:	4bad      	ldr	r3, [pc, #692]	; (20000868 <dcd_rp2040_irq+0x370>)
200005b2:	5ce3      	ldrb	r3, [r4, r3]
200005b4:	2b02      	cmp	r3, #2
200005b6:	d100      	bne.n	200005ba <dcd_rp2040_irq+0xc2>
200005b8:	e09e      	b.n	200006f8 <dcd_rp2040_irq+0x200>
200005ba:	4bac      	ldr	r3, [pc, #688]	; (2000086c <dcd_rp2040_irq+0x374>)
200005bc:	5ce3      	ldrb	r3, [r4, r3]
200005be:	2b02      	cmp	r3, #2
200005c0:	d100      	bne.n	200005c4 <dcd_rp2040_irq+0xcc>
200005c2:	e1e2      	b.n	2000098a <dcd_rp2040_irq+0x492>
200005c4:	2e00      	cmp	r6, #0
200005c6:	d108      	bne.n	200005da <dcd_rp2040_irq+0xe2>
200005c8:	4ba9      	ldr	r3, [pc, #676]	; (20000870 <dcd_rp2040_irq+0x378>)
200005ca:	781b      	ldrb	r3, [r3, #0]
200005cc:	2b00      	cmp	r3, #0
200005ce:	d104      	bne.n	200005da <dcd_rp2040_irq+0xe2>
200005d0:	2180      	movs	r1, #128	; 0x80
200005d2:	4aa8      	ldr	r2, [pc, #672]	; (20000874 <dcd_rp2040_irq+0x37c>)
200005d4:	3390      	adds	r3, #144	; 0x90
200005d6:	0289      	lsls	r1, r1, #10
200005d8:	50d1      	str	r1, [r2, r3]
200005da:	ae01      	add	r6, sp, #4
200005dc:	4b98      	ldr	r3, [pc, #608]	; (20000840 <dcd_rp2040_irq+0x348>)
200005de:	220c      	movs	r2, #12
200005e0:	2100      	movs	r1, #0
200005e2:	0030      	movs	r0, r6
200005e4:	6c9c      	ldr	r4, [r3, #72]	; 0x48
200005e6:	f000 fc0f 	bl	20000e08 <____wrap_memset_veneer>
200005ea:	2303      	movs	r3, #3
200005ec:	0564      	lsls	r4, r4, #21
200005ee:	0d64      	lsrs	r4, r4, #21
200005f0:	7073      	strb	r3, [r6, #1]
200005f2:	0030      	movs	r0, r6
200005f4:	9402      	str	r4, [sp, #8]
200005f6:	2101      	movs	r1, #1
200005f8:	2480      	movs	r4, #128	; 0x80
200005fa:	f000 fb19 	bl	20000c30 <dcd_event_handler>
200005fe:	4e9e      	ldr	r6, [pc, #632]	; (20000878 <dcd_rp2040_irq+0x380>)
20000600:	02a4      	lsls	r4, r4, #10
20000602:	06eb      	lsls	r3, r5, #27
20000604:	d463      	bmi.n	200006ce <dcd_rp2040_irq+0x1d6>
20000606:	2380      	movs	r3, #128	; 0x80
20000608:	025b      	lsls	r3, r3, #9
2000060a:	421d      	tst	r5, r3
2000060c:	d014      	beq.n	20000638 <dcd_rp2040_irq+0x140>
2000060e:	2201      	movs	r2, #1
20000610:	2123      	movs	r1, #35	; 0x23
20000612:	431c      	orrs	r4, r3
20000614:	4b8c      	ldr	r3, [pc, #560]	; (20000848 <dcd_rp2040_irq+0x350>)
20000616:	545a      	strb	r2, [r3, r1]
20000618:	70da      	strb	r2, [r3, #3]
2000061a:	23c0      	movs	r3, #192	; 0xc0
2000061c:	4a97      	ldr	r2, [pc, #604]	; (2000087c <dcd_rp2040_irq+0x384>)
2000061e:	00db      	lsls	r3, r3, #3
20000620:	9301      	str	r3, [sp, #4]
20000622:	ab02      	add	r3, sp, #8
20000624:	ca03      	ldmia	r2!, {r0, r1}
20000626:	c303      	stmia	r3!, {r0, r1}
20000628:	2101      	movs	r1, #1
2000062a:	a801      	add	r0, sp, #4
2000062c:	f000 fb00 	bl	20000c30 <dcd_event_handler>
20000630:	2280      	movs	r2, #128	; 0x80
20000632:	4b90      	ldr	r3, [pc, #576]	; (20000874 <dcd_rp2040_irq+0x37c>)
20000634:	0292      	lsls	r2, r2, #10
20000636:	651a      	str	r2, [r3, #80]	; 0x50
20000638:	2380      	movs	r3, #128	; 0x80
2000063a:	015b      	lsls	r3, r3, #5
2000063c:	421d      	tst	r5, r3
2000063e:	d12f      	bne.n	200006a0 <dcd_rp2040_irq+0x1a8>
20000640:	2380      	movs	r3, #128	; 0x80
20000642:	01db      	lsls	r3, r3, #7
20000644:	421d      	tst	r5, r3
20000646:	d11a      	bne.n	2000067e <dcd_rp2040_irq+0x186>
20000648:	2380      	movs	r3, #128	; 0x80
2000064a:	021b      	lsls	r3, r3, #8
2000064c:	421d      	tst	r5, r3
2000064e:	d104      	bne.n	2000065a <dcd_rp2040_irq+0x162>
20000650:	42ac      	cmp	r4, r5
20000652:	d000      	beq.n	20000656 <dcd_rp2040_irq+0x15e>
20000654:	e1b3      	b.n	200009be <dcd_rp2040_irq+0x4c6>
20000656:	b004      	add	sp, #16
20000658:	bd70      	pop	{r4, r5, r6, pc}
2000065a:	ae01      	add	r6, sp, #4
2000065c:	220c      	movs	r2, #12
2000065e:	2100      	movs	r1, #0
20000660:	0030      	movs	r0, r6
20000662:	431c      	orrs	r4, r3
20000664:	f000 fbd0 	bl	20000e08 <____wrap_memset_veneer>
20000668:	2305      	movs	r3, #5
2000066a:	2101      	movs	r1, #1
2000066c:	7073      	strb	r3, [r6, #1]
2000066e:	0030      	movs	r0, r6
20000670:	f000 fade 	bl	20000c30 <dcd_event_handler>
20000674:	2280      	movs	r2, #128	; 0x80
20000676:	4b7f      	ldr	r3, [pc, #508]	; (20000874 <dcd_rp2040_irq+0x37c>)
20000678:	0112      	lsls	r2, r2, #4
2000067a:	651a      	str	r2, [r3, #80]	; 0x50
2000067c:	e7e8      	b.n	20000650 <dcd_rp2040_irq+0x158>
2000067e:	ae01      	add	r6, sp, #4
20000680:	220c      	movs	r2, #12
20000682:	2100      	movs	r1, #0
20000684:	0030      	movs	r0, r6
20000686:	431c      	orrs	r4, r3
20000688:	f000 fbbe 	bl	20000e08 <____wrap_memset_veneer>
2000068c:	2304      	movs	r3, #4
2000068e:	2101      	movs	r1, #1
20000690:	7073      	strb	r3, [r6, #1]
20000692:	0030      	movs	r0, r6
20000694:	f000 facc 	bl	20000c30 <dcd_event_handler>
20000698:	2210      	movs	r2, #16
2000069a:	4b76      	ldr	r3, [pc, #472]	; (20000874 <dcd_rp2040_irq+0x37c>)
2000069c:	651a      	str	r2, [r3, #80]	; 0x50
2000069e:	e7d3      	b.n	20000648 <dcd_rp2040_irq+0x150>
200006a0:	2200      	movs	r2, #0
200006a2:	431c      	orrs	r4, r3
200006a4:	4b66      	ldr	r3, [pc, #408]	; (20000840 <dcd_rp2040_irq+0x348>)
200006a6:	ae01      	add	r6, sp, #4
200006a8:	601a      	str	r2, [r3, #0]
200006aa:	f7ff fe73 	bl	20000394 <reset_non_control_endpoints>
200006ae:	220c      	movs	r2, #12
200006b0:	2100      	movs	r1, #0
200006b2:	0030      	movs	r0, r6
200006b4:	f000 fba8 	bl	20000e08 <____wrap_memset_veneer>
200006b8:	2301      	movs	r3, #1
200006ba:	2101      	movs	r1, #1
200006bc:	7073      	strb	r3, [r6, #1]
200006be:	0030      	movs	r0, r6
200006c0:	f000 fab6 	bl	20000c30 <dcd_event_handler>
200006c4:	2280      	movs	r2, #128	; 0x80
200006c6:	4b6b      	ldr	r3, [pc, #428]	; (20000874 <dcd_rp2040_irq+0x37c>)
200006c8:	0312      	lsls	r2, r2, #12
200006ca:	651a      	str	r2, [r3, #80]	; 0x50
200006cc:	e7b8      	b.n	20000640 <dcd_rp2040_irq+0x148>
200006ce:	f7ff febf 	bl	20000450 <hw_handle_buff_status>
200006d2:	0034      	movs	r4, r6
200006d4:	e797      	b.n	20000606 <dcd_rp2040_irq+0x10e>
200006d6:	3338      	adds	r3, #56	; 0x38
200006d8:	5ce6      	ldrb	r6, [r4, r3]
200006da:	2e00      	cmp	r6, #0
200006dc:	d100      	bne.n	200006e0 <dcd_rp2040_irq+0x1e8>
200006de:	e722      	b.n	20000526 <dcd_rp2040_irq+0x2e>
200006e0:	3302      	adds	r3, #2
200006e2:	5ce2      	ldrb	r2, [r4, r3]
200006e4:	2a00      	cmp	r2, #0
200006e6:	d100      	bne.n	200006ea <dcd_rp2040_irq+0x1f2>
200006e8:	e71d      	b.n	20000526 <dcd_rp2040_irq+0x2e>
200006ea:	2200      	movs	r2, #0
200006ec:	0020      	movs	r0, r4
200006ee:	54e2      	strb	r2, [r4, r3]
200006f0:	3020      	adds	r0, #32
200006f2:	f000 fa3f 	bl	20000b74 <hw_endpoint_start_next_buffer>
200006f6:	e716      	b.n	20000526 <dcd_rp2040_irq+0x2e>
200006f8:	4b61      	ldr	r3, [pc, #388]	; (20000880 <dcd_rp2040_irq+0x388>)
200006fa:	5ce3      	ldrb	r3, [r4, r3]
200006fc:	2b00      	cmp	r3, #0
200006fe:	d100      	bne.n	20000702 <dcd_rp2040_irq+0x20a>
20000700:	e75b      	b.n	200005ba <dcd_rp2040_irq+0xc2>
20000702:	23ef      	movs	r3, #239	; 0xef
20000704:	009b      	lsls	r3, r3, #2
20000706:	5ce2      	ldrb	r2, [r4, r3]
20000708:	2a00      	cmp	r2, #0
2000070a:	d000      	beq.n	2000070e <dcd_rp2040_irq+0x216>
2000070c:	e14f      	b.n	200009ae <dcd_rp2040_irq+0x4b6>
2000070e:	4b57      	ldr	r3, [pc, #348]	; (2000086c <dcd_rp2040_irq+0x374>)
20000710:	5ce3      	ldrb	r3, [r4, r3]
20000712:	2b02      	cmp	r3, #2
20000714:	d000      	beq.n	20000718 <dcd_rp2040_irq+0x220>
20000716:	e760      	b.n	200005da <dcd_rp2040_irq+0xe2>
20000718:	4b5a      	ldr	r3, [pc, #360]	; (20000884 <dcd_rp2040_irq+0x38c>)
2000071a:	5ce3      	ldrb	r3, [r4, r3]
2000071c:	2b00      	cmp	r3, #0
2000071e:	d000      	beq.n	20000722 <dcd_rp2040_irq+0x22a>
20000720:	e138      	b.n	20000994 <dcd_rp2040_irq+0x49c>
20000722:	e75a      	b.n	200005da <dcd_rp2040_irq+0xe2>
20000724:	4b58      	ldr	r3, [pc, #352]	; (20000888 <dcd_rp2040_irq+0x390>)
20000726:	5ce3      	ldrb	r3, [r4, r3]
20000728:	2b00      	cmp	r3, #0
2000072a:	d100      	bne.n	2000072e <dcd_rp2040_irq+0x236>
2000072c:	e740      	b.n	200005b0 <dcd_rp2040_irq+0xb8>
2000072e:	22df      	movs	r2, #223	; 0xdf
20000730:	0092      	lsls	r2, r2, #2
20000732:	5ca1      	ldrb	r1, [r4, r2]
20000734:	001e      	movs	r6, r3
20000736:	2900      	cmp	r1, #0
20000738:	d100      	bne.n	2000073c <dcd_rp2040_irq+0x244>
2000073a:	e739      	b.n	200005b0 <dcd_rp2040_irq+0xb8>
2000073c:	2300      	movs	r3, #0
2000073e:	54a3      	strb	r3, [r4, r2]
20000740:	23d8      	movs	r3, #216	; 0xd8
20000742:	009b      	lsls	r3, r3, #2
20000744:	18e0      	adds	r0, r4, r3
20000746:	f000 fa15 	bl	20000b74 <hw_endpoint_start_next_buffer>
2000074a:	e731      	b.n	200005b0 <dcd_rp2040_irq+0xb8>
2000074c:	4b4f      	ldr	r3, [pc, #316]	; (2000088c <dcd_rp2040_irq+0x394>)
2000074e:	5ce3      	ldrb	r3, [r4, r3]
20000750:	2b00      	cmp	r3, #0
20000752:	d100      	bne.n	20000756 <dcd_rp2040_irq+0x25e>
20000754:	e727      	b.n	200005a6 <dcd_rp2040_irq+0xae>
20000756:	22cf      	movs	r2, #207	; 0xcf
20000758:	0092      	lsls	r2, r2, #2
2000075a:	5ca1      	ldrb	r1, [r4, r2]
2000075c:	001e      	movs	r6, r3
2000075e:	2900      	cmp	r1, #0
20000760:	d100      	bne.n	20000764 <dcd_rp2040_irq+0x26c>
20000762:	e720      	b.n	200005a6 <dcd_rp2040_irq+0xae>
20000764:	2300      	movs	r3, #0
20000766:	54a3      	strb	r3, [r4, r2]
20000768:	23c8      	movs	r3, #200	; 0xc8
2000076a:	009b      	lsls	r3, r3, #2
2000076c:	18e0      	adds	r0, r4, r3
2000076e:	f000 fa01 	bl	20000b74 <hw_endpoint_start_next_buffer>
20000772:	e718      	b.n	200005a6 <dcd_rp2040_irq+0xae>
20000774:	4b46      	ldr	r3, [pc, #280]	; (20000890 <dcd_rp2040_irq+0x398>)
20000776:	5ce3      	ldrb	r3, [r4, r3]
20000778:	2b00      	cmp	r3, #0
2000077a:	d100      	bne.n	2000077e <dcd_rp2040_irq+0x286>
2000077c:	e70e      	b.n	2000059c <dcd_rp2040_irq+0xa4>
2000077e:	22bf      	movs	r2, #191	; 0xbf
20000780:	0092      	lsls	r2, r2, #2
20000782:	5ca1      	ldrb	r1, [r4, r2]
20000784:	001e      	movs	r6, r3
20000786:	2900      	cmp	r1, #0
20000788:	d100      	bne.n	2000078c <dcd_rp2040_irq+0x294>
2000078a:	e707      	b.n	2000059c <dcd_rp2040_irq+0xa4>
2000078c:	2300      	movs	r3, #0
2000078e:	54a3      	strb	r3, [r4, r2]
20000790:	23b8      	movs	r3, #184	; 0xb8
20000792:	009b      	lsls	r3, r3, #2
20000794:	18e0      	adds	r0, r4, r3
20000796:	f000 f9ed 	bl	20000b74 <hw_endpoint_start_next_buffer>
2000079a:	e6ff      	b.n	2000059c <dcd_rp2040_irq+0xa4>
2000079c:	4b3d      	ldr	r3, [pc, #244]	; (20000894 <dcd_rp2040_irq+0x39c>)
2000079e:	5ce3      	ldrb	r3, [r4, r3]
200007a0:	2b00      	cmp	r3, #0
200007a2:	d100      	bne.n	200007a6 <dcd_rp2040_irq+0x2ae>
200007a4:	e6f5      	b.n	20000592 <dcd_rp2040_irq+0x9a>
200007a6:	22af      	movs	r2, #175	; 0xaf
200007a8:	0092      	lsls	r2, r2, #2
200007aa:	5ca1      	ldrb	r1, [r4, r2]
200007ac:	001e      	movs	r6, r3
200007ae:	2900      	cmp	r1, #0
200007b0:	d100      	bne.n	200007b4 <dcd_rp2040_irq+0x2bc>
200007b2:	e6ee      	b.n	20000592 <dcd_rp2040_irq+0x9a>
200007b4:	2300      	movs	r3, #0
200007b6:	54a3      	strb	r3, [r4, r2]
200007b8:	23a8      	movs	r3, #168	; 0xa8
200007ba:	009b      	lsls	r3, r3, #2
200007bc:	18e0      	adds	r0, r4, r3
200007be:	f000 f9d9 	bl	20000b74 <hw_endpoint_start_next_buffer>
200007c2:	e6e6      	b.n	20000592 <dcd_rp2040_irq+0x9a>
200007c4:	4b34      	ldr	r3, [pc, #208]	; (20000898 <dcd_rp2040_irq+0x3a0>)
200007c6:	5ce3      	ldrb	r3, [r4, r3]
200007c8:	2b00      	cmp	r3, #0
200007ca:	d100      	bne.n	200007ce <dcd_rp2040_irq+0x2d6>
200007cc:	e6dc      	b.n	20000588 <dcd_rp2040_irq+0x90>
200007ce:	229f      	movs	r2, #159	; 0x9f
200007d0:	0092      	lsls	r2, r2, #2
200007d2:	5ca1      	ldrb	r1, [r4, r2]
200007d4:	001e      	movs	r6, r3
200007d6:	2900      	cmp	r1, #0
200007d8:	d100      	bne.n	200007dc <dcd_rp2040_irq+0x2e4>
200007da:	e6d5      	b.n	20000588 <dcd_rp2040_irq+0x90>
200007dc:	2300      	movs	r3, #0
200007de:	54a3      	strb	r3, [r4, r2]
200007e0:	2398      	movs	r3, #152	; 0x98
200007e2:	009b      	lsls	r3, r3, #2
200007e4:	18e0      	adds	r0, r4, r3
200007e6:	f000 f9c5 	bl	20000b74 <hw_endpoint_start_next_buffer>
200007ea:	e6cd      	b.n	20000588 <dcd_rp2040_irq+0x90>
200007ec:	4b2b      	ldr	r3, [pc, #172]	; (2000089c <dcd_rp2040_irq+0x3a4>)
200007ee:	5ce3      	ldrb	r3, [r4, r3]
200007f0:	2b00      	cmp	r3, #0
200007f2:	d100      	bne.n	200007f6 <dcd_rp2040_irq+0x2fe>
200007f4:	e6c3      	b.n	2000057e <dcd_rp2040_irq+0x86>
200007f6:	228f      	movs	r2, #143	; 0x8f
200007f8:	0092      	lsls	r2, r2, #2
200007fa:	5ca1      	ldrb	r1, [r4, r2]
200007fc:	001e      	movs	r6, r3
200007fe:	2900      	cmp	r1, #0
20000800:	d100      	bne.n	20000804 <dcd_rp2040_irq+0x30c>
20000802:	e6bc      	b.n	2000057e <dcd_rp2040_irq+0x86>
20000804:	2300      	movs	r3, #0
20000806:	54a3      	strb	r3, [r4, r2]
20000808:	2388      	movs	r3, #136	; 0x88
2000080a:	009b      	lsls	r3, r3, #2
2000080c:	18e0      	adds	r0, r4, r3
2000080e:	f000 f9b1 	bl	20000b74 <hw_endpoint_start_next_buffer>
20000812:	e6b4      	b.n	2000057e <dcd_rp2040_irq+0x86>
20000814:	33f9      	adds	r3, #249	; 0xf9
20000816:	33ff      	adds	r3, #255	; 0xff
20000818:	5ce3      	ldrb	r3, [r4, r3]
2000081a:	2b00      	cmp	r3, #0
2000081c:	d100      	bne.n	20000820 <dcd_rp2040_irq+0x328>
2000081e:	e6a9      	b.n	20000574 <dcd_rp2040_irq+0x7c>
20000820:	22fe      	movs	r2, #254	; 0xfe
20000822:	0052      	lsls	r2, r2, #1
20000824:	5ca1      	ldrb	r1, [r4, r2]
20000826:	001e      	movs	r6, r3
20000828:	2900      	cmp	r1, #0
2000082a:	d100      	bne.n	2000082e <dcd_rp2040_irq+0x336>
2000082c:	e6a2      	b.n	20000574 <dcd_rp2040_irq+0x7c>
2000082e:	0020      	movs	r0, r4
20000830:	2300      	movs	r3, #0
20000832:	30e1      	adds	r0, #225	; 0xe1
20000834:	54a3      	strb	r3, [r4, r2]
20000836:	30ff      	adds	r0, #255	; 0xff
20000838:	f000 f99c 	bl	20000b74 <hw_endpoint_start_next_buffer>
2000083c:	e69a      	b.n	20000574 <dcd_rp2040_irq+0x7c>
2000083e:	46c0      	nop			; (mov r8, r8)
20000840:	50110000 	.word	0x50110000
20000844:	40054000 	.word	0x40054000
20000848:	20001c90 	.word	0x20001c90
2000084c:	20001c88 	.word	0x20001c88
20000850:	0000023b 	.word	0x0000023b
20000854:	0000027b 	.word	0x0000027b
20000858:	000002bb 	.word	0x000002bb
2000085c:	000002fb 	.word	0x000002fb
20000860:	0000033b 	.word	0x0000033b
20000864:	0000037b 	.word	0x0000037b
20000868:	000003bb 	.word	0x000003bb
2000086c:	000003fb 	.word	0x000003fb
20000870:	20002112 	.word	0x20002112
20000874:	50113000 	.word	0x50113000
20000878:	00020010 	.word	0x00020010
2000087c:	50100000 	.word	0x50100000
20000880:	000003ba 	.word	0x000003ba
20000884:	000003fa 	.word	0x000003fa
20000888:	0000037a 	.word	0x0000037a
2000088c:	0000033a 	.word	0x0000033a
20000890:	000002fa 	.word	0x000002fa
20000894:	000002ba 	.word	0x000002ba
20000898:	0000027a 	.word	0x0000027a
2000089c:	0000023a 	.word	0x0000023a
200008a0:	33b9      	adds	r3, #185	; 0xb9
200008a2:	33ff      	adds	r3, #255	; 0xff
200008a4:	5ce3      	ldrb	r3, [r4, r3]
200008a6:	2b00      	cmp	r3, #0
200008a8:	d100      	bne.n	200008ac <dcd_rp2040_irq+0x3b4>
200008aa:	e65d      	b.n	20000568 <dcd_rp2040_irq+0x70>
200008ac:	22de      	movs	r2, #222	; 0xde
200008ae:	0052      	lsls	r2, r2, #1
200008b0:	5ca1      	ldrb	r1, [r4, r2]
200008b2:	001e      	movs	r6, r3
200008b4:	2900      	cmp	r1, #0
200008b6:	d100      	bne.n	200008ba <dcd_rp2040_irq+0x3c2>
200008b8:	e656      	b.n	20000568 <dcd_rp2040_irq+0x70>
200008ba:	0020      	movs	r0, r4
200008bc:	2300      	movs	r3, #0
200008be:	30a1      	adds	r0, #161	; 0xa1
200008c0:	54a3      	strb	r3, [r4, r2]
200008c2:	30ff      	adds	r0, #255	; 0xff
200008c4:	f000 f956 	bl	20000b74 <hw_endpoint_start_next_buffer>
200008c8:	e64e      	b.n	20000568 <dcd_rp2040_irq+0x70>
200008ca:	3379      	adds	r3, #121	; 0x79
200008cc:	33ff      	adds	r3, #255	; 0xff
200008ce:	5ce3      	ldrb	r3, [r4, r3]
200008d0:	2b00      	cmp	r3, #0
200008d2:	d100      	bne.n	200008d6 <dcd_rp2040_irq+0x3de>
200008d4:	e642      	b.n	2000055c <dcd_rp2040_irq+0x64>
200008d6:	22be      	movs	r2, #190	; 0xbe
200008d8:	0052      	lsls	r2, r2, #1
200008da:	5ca1      	ldrb	r1, [r4, r2]
200008dc:	001e      	movs	r6, r3
200008de:	2900      	cmp	r1, #0
200008e0:	d100      	bne.n	200008e4 <dcd_rp2040_irq+0x3ec>
200008e2:	e63b      	b.n	2000055c <dcd_rp2040_irq+0x64>
200008e4:	0020      	movs	r0, r4
200008e6:	2300      	movs	r3, #0
200008e8:	3061      	adds	r0, #97	; 0x61
200008ea:	54a3      	strb	r3, [r4, r2]
200008ec:	30ff      	adds	r0, #255	; 0xff
200008ee:	f000 f941 	bl	20000b74 <hw_endpoint_start_next_buffer>
200008f2:	e633      	b.n	2000055c <dcd_rp2040_irq+0x64>
200008f4:	3339      	adds	r3, #57	; 0x39
200008f6:	33ff      	adds	r3, #255	; 0xff
200008f8:	5ce3      	ldrb	r3, [r4, r3]
200008fa:	2b00      	cmp	r3, #0
200008fc:	d100      	bne.n	20000900 <dcd_rp2040_irq+0x408>
200008fe:	e627      	b.n	20000550 <dcd_rp2040_irq+0x58>
20000900:	229e      	movs	r2, #158	; 0x9e
20000902:	0052      	lsls	r2, r2, #1
20000904:	5ca1      	ldrb	r1, [r4, r2]
20000906:	001e      	movs	r6, r3
20000908:	2900      	cmp	r1, #0
2000090a:	d100      	bne.n	2000090e <dcd_rp2040_irq+0x416>
2000090c:	e620      	b.n	20000550 <dcd_rp2040_irq+0x58>
2000090e:	0020      	movs	r0, r4
20000910:	2300      	movs	r3, #0
20000912:	3021      	adds	r0, #33	; 0x21
20000914:	54a3      	strb	r3, [r4, r2]
20000916:	30ff      	adds	r0, #255	; 0xff
20000918:	f000 f92c 	bl	20000b74 <hw_endpoint_start_next_buffer>
2000091c:	e618      	b.n	20000550 <dcd_rp2040_irq+0x58>
2000091e:	33f8      	adds	r3, #248	; 0xf8
20000920:	5ce3      	ldrb	r3, [r4, r3]
20000922:	2b00      	cmp	r3, #0
20000924:	d100      	bne.n	20000928 <dcd_rp2040_irq+0x430>
20000926:	e60d      	b.n	20000544 <dcd_rp2040_irq+0x4c>
20000928:	22fc      	movs	r2, #252	; 0xfc
2000092a:	5ca1      	ldrb	r1, [r4, r2]
2000092c:	001e      	movs	r6, r3
2000092e:	2900      	cmp	r1, #0
20000930:	d100      	bne.n	20000934 <dcd_rp2040_irq+0x43c>
20000932:	e607      	b.n	20000544 <dcd_rp2040_irq+0x4c>
20000934:	2300      	movs	r3, #0
20000936:	0020      	movs	r0, r4
20000938:	54a3      	strb	r3, [r4, r2]
2000093a:	30e0      	adds	r0, #224	; 0xe0
2000093c:	f000 f91a 	bl	20000b74 <hw_endpoint_start_next_buffer>
20000940:	e600      	b.n	20000544 <dcd_rp2040_irq+0x4c>
20000942:	33b8      	adds	r3, #184	; 0xb8
20000944:	5ce3      	ldrb	r3, [r4, r3]
20000946:	2b00      	cmp	r3, #0
20000948:	d100      	bne.n	2000094c <dcd_rp2040_irq+0x454>
2000094a:	e5f6      	b.n	2000053a <dcd_rp2040_irq+0x42>
2000094c:	22bc      	movs	r2, #188	; 0xbc
2000094e:	5ca1      	ldrb	r1, [r4, r2]
20000950:	001e      	movs	r6, r3
20000952:	2900      	cmp	r1, #0
20000954:	d100      	bne.n	20000958 <dcd_rp2040_irq+0x460>
20000956:	e5f0      	b.n	2000053a <dcd_rp2040_irq+0x42>
20000958:	2300      	movs	r3, #0
2000095a:	0020      	movs	r0, r4
2000095c:	54a3      	strb	r3, [r4, r2]
2000095e:	30a0      	adds	r0, #160	; 0xa0
20000960:	f000 f908 	bl	20000b74 <hw_endpoint_start_next_buffer>
20000964:	e5e9      	b.n	2000053a <dcd_rp2040_irq+0x42>
20000966:	3378      	adds	r3, #120	; 0x78
20000968:	5ce3      	ldrb	r3, [r4, r3]
2000096a:	2b00      	cmp	r3, #0
2000096c:	d100      	bne.n	20000970 <dcd_rp2040_irq+0x478>
2000096e:	e5df      	b.n	20000530 <dcd_rp2040_irq+0x38>
20000970:	227c      	movs	r2, #124	; 0x7c
20000972:	5ca1      	ldrb	r1, [r4, r2]
20000974:	001e      	movs	r6, r3
20000976:	2900      	cmp	r1, #0
20000978:	d100      	bne.n	2000097c <dcd_rp2040_irq+0x484>
2000097a:	e5d9      	b.n	20000530 <dcd_rp2040_irq+0x38>
2000097c:	2300      	movs	r3, #0
2000097e:	0020      	movs	r0, r4
20000980:	54a3      	strb	r3, [r4, r2]
20000982:	3060      	adds	r0, #96	; 0x60
20000984:	f000 f8f6 	bl	20000b74 <hw_endpoint_start_next_buffer>
20000988:	e5d2      	b.n	20000530 <dcd_rp2040_irq+0x38>
2000098a:	4b0f      	ldr	r3, [pc, #60]	; (200009c8 <dcd_rp2040_irq+0x4d0>)
2000098c:	5ce3      	ldrb	r3, [r4, r3]
2000098e:	2b00      	cmp	r3, #0
20000990:	d100      	bne.n	20000994 <dcd_rp2040_irq+0x49c>
20000992:	e617      	b.n	200005c4 <dcd_rp2040_irq+0xcc>
20000994:	23ff      	movs	r3, #255	; 0xff
20000996:	009b      	lsls	r3, r3, #2
20000998:	5ce2      	ldrb	r2, [r4, r3]
2000099a:	2a00      	cmp	r2, #0
2000099c:	d100      	bne.n	200009a0 <dcd_rp2040_irq+0x4a8>
2000099e:	e61c      	b.n	200005da <dcd_rp2040_irq+0xe2>
200009a0:	2200      	movs	r2, #0
200009a2:	54e2      	strb	r2, [r4, r3]
200009a4:	3b1c      	subs	r3, #28
200009a6:	18e0      	adds	r0, r4, r3
200009a8:	f000 f8e4 	bl	20000b74 <hw_endpoint_start_next_buffer>
200009ac:	e615      	b.n	200005da <dcd_rp2040_irq+0xe2>
200009ae:	2200      	movs	r2, #0
200009b0:	54e2      	strb	r2, [r4, r3]
200009b2:	23e8      	movs	r3, #232	; 0xe8
200009b4:	009b      	lsls	r3, r3, #2
200009b6:	18e0      	adds	r0, r4, r3
200009b8:	f000 f8dc 	bl	20000b74 <hw_endpoint_start_next_buffer>
200009bc:	e6a7      	b.n	2000070e <dcd_rp2040_irq+0x216>
200009be:	0021      	movs	r1, r4
200009c0:	4802      	ldr	r0, [pc, #8]	; (200009cc <dcd_rp2040_irq+0x4d4>)
200009c2:	4069      	eors	r1, r5
200009c4:	f000 fa18 	bl	20000df8 <__panic_veneer>
200009c8:	000003fa 	.word	0x000003fa
200009cc:	10008120 	.word	0x10008120

200009d0 <e15_is_bulkin_ep>:
200009d0:	4a08      	ldr	r2, [pc, #32]	; (200009f4 <e15_is_bulkin_ep+0x24>)
200009d2:	0003      	movs	r3, r0
200009d4:	6c12      	ldr	r2, [r2, #64]	; 0x40
200009d6:	2000      	movs	r0, #0
200009d8:	0792      	lsls	r2, r2, #30
200009da:	d403      	bmi.n	200009e4 <e15_is_bulkin_ep+0x14>
200009dc:	789a      	ldrb	r2, [r3, #2]
200009de:	09d2      	lsrs	r2, r2, #7
200009e0:	2a01      	cmp	r2, #1
200009e2:	d000      	beq.n	200009e6 <e15_is_bulkin_ep+0x16>
200009e4:	4770      	bx	lr
200009e6:	7ed8      	ldrb	r0, [r3, #27]
200009e8:	3802      	subs	r0, #2
200009ea:	4243      	negs	r3, r0
200009ec:	4158      	adcs	r0, r3
200009ee:	b2c0      	uxtb	r0, r0
200009f0:	e7f8      	b.n	200009e4 <e15_is_bulkin_ep+0x14>
200009f2:	46c0      	nop			; (mov r8, r8)
200009f4:	50110000 	.word	0x50110000

200009f8 <e15_is_critical_frame_period>:
200009f8:	b510      	push	{r4, lr}
200009fa:	f7ff ffe9 	bl	200009d0 <e15_is_bulkin_ep>
200009fe:	2800      	cmp	r0, #0
20000a00:	d00c      	beq.n	20000a1c <e15_is_critical_frame_period+0x24>
20000a02:	4907      	ldr	r1, [pc, #28]	; (20000a20 <e15_is_critical_frame_period+0x28>)
20000a04:	4b07      	ldr	r3, [pc, #28]	; (20000a24 <e15_is_critical_frame_period+0x2c>)
20000a06:	468c      	mov	ip, r1
20000a08:	4a07      	ldr	r2, [pc, #28]	; (20000a28 <e15_is_critical_frame_period+0x30>)
20000a0a:	6a9b      	ldr	r3, [r3, #40]	; 0x28
20000a0c:	6812      	ldr	r2, [r2, #0]
20000a0e:	4463      	add	r3, ip
20000a10:	1a9b      	subs	r3, r3, r2
20000a12:	2000      	movs	r0, #0
20000a14:	22c6      	movs	r2, #198	; 0xc6
20000a16:	429a      	cmp	r2, r3
20000a18:	4140      	adcs	r0, r0
20000a1a:	b2c0      	uxtb	r0, r0
20000a1c:	bd10      	pop	{r4, pc}
20000a1e:	46c0      	nop			; (mov r8, r8)
20000a20:	fffffce0 	.word	0xfffffce0
20000a24:	40054000 	.word	0x40054000
20000a28:	20001c88 	.word	0x20001c88

20000a2c <prepare_ep_buffer>:
20000a2c:	b5f8      	push	{r3, r4, r5, r6, r7, lr}
20000a2e:	8b02      	ldrh	r2, [r0, #24]
20000a30:	8a83      	ldrh	r3, [r0, #20]
20000a32:	0004      	movs	r4, r0
20000a34:	000f      	movs	r7, r1
20000a36:	1c16      	adds	r6, r2, #0
20000a38:	429a      	cmp	r2, r3
20000a3a:	d900      	bls.n	20000a3e <prepare_ep_buffer+0x12>
20000a3c:	1c1e      	adds	r6, r3, #0
20000a3e:	2580      	movs	r5, #128	; 0x80
20000a40:	b2b6      	uxth	r6, r6
20000a42:	1b9b      	subs	r3, r3, r6
20000a44:	78e2      	ldrb	r2, [r4, #3]
20000a46:	b29b      	uxth	r3, r3
20000a48:	00ed      	lsls	r5, r5, #3
20000a4a:	82a3      	strh	r3, [r4, #20]
20000a4c:	4335      	orrs	r5, r6
20000a4e:	2a00      	cmp	r2, #0
20000a50:	d002      	beq.n	20000a58 <prepare_ep_buffer+0x2c>
20000a52:	2590      	movs	r5, #144	; 0x90
20000a54:	01ad      	lsls	r5, r5, #6
20000a56:	4335      	orrs	r5, r6
20000a58:	2101      	movs	r1, #1
20000a5a:	404a      	eors	r2, r1
20000a5c:	70e2      	strb	r2, [r4, #3]
20000a5e:	7862      	ldrb	r2, [r4, #1]
20000a60:	2a00      	cmp	r2, #0
20000a62:	d009      	beq.n	20000a78 <prepare_ep_buffer+0x4c>
20000a64:	2b00      	cmp	r3, #0
20000a66:	d102      	bne.n	20000a6e <prepare_ep_buffer+0x42>
20000a68:	2380      	movs	r3, #128	; 0x80
20000a6a:	01db      	lsls	r3, r3, #7
20000a6c:	431d      	orrs	r5, r3
20000a6e:	2f00      	cmp	r7, #0
20000a70:	d000      	beq.n	20000a74 <prepare_ep_buffer+0x48>
20000a72:	042d      	lsls	r5, r5, #16
20000a74:	0028      	movs	r0, r5
20000a76:	bdf8      	pop	{r3, r4, r5, r6, r7, pc}
20000a78:	68e3      	ldr	r3, [r4, #12]
20000a7a:	01b8      	lsls	r0, r7, #6
20000a7c:	469c      	mov	ip, r3
20000a7e:	0032      	movs	r2, r6
20000a80:	4460      	add	r0, ip
20000a82:	6921      	ldr	r1, [r4, #16]
20000a84:	f000 f990 	bl	20000da8 <____wrap_memcpy_veneer>
20000a88:	6923      	ldr	r3, [r4, #16]
20000a8a:	469c      	mov	ip, r3
20000a8c:	2380      	movs	r3, #128	; 0x80
20000a8e:	4466      	add	r6, ip
20000a90:	021b      	lsls	r3, r3, #8
20000a92:	431d      	orrs	r5, r3
20000a94:	6126      	str	r6, [r4, #16]
20000a96:	8aa3      	ldrh	r3, [r4, #20]
20000a98:	e7e4      	b.n	20000a64 <prepare_ep_buffer+0x38>
20000a9a:	46c0      	nop			; (mov r8, r8)

20000a9c <sync_ep_buffer>:
20000a9c:	6883      	ldr	r3, [r0, #8]
20000a9e:	b570      	push	{r4, r5, r6, lr}
20000aa0:	0004      	movs	r4, r0
20000aa2:	681d      	ldr	r5, [r3, #0]
20000aa4:	2900      	cmp	r1, #0
20000aa6:	d000      	beq.n	20000aaa <sync_ep_buffer+0xe>
20000aa8:	0c2d      	lsrs	r5, r5, #16
20000aaa:	7863      	ldrb	r3, [r4, #1]
20000aac:	05ad      	lsls	r5, r5, #22
20000aae:	0dad      	lsrs	r5, r5, #22
20000ab0:	2b00      	cmp	r3, #0
20000ab2:	d109      	bne.n	20000ac8 <sync_ep_buffer+0x2c>
20000ab4:	8ae3      	ldrh	r3, [r4, #22]
20000ab6:	18eb      	adds	r3, r5, r3
20000ab8:	82e3      	strh	r3, [r4, #22]
20000aba:	8b23      	ldrh	r3, [r4, #24]
20000abc:	42ab      	cmp	r3, r5
20000abe:	d901      	bls.n	20000ac4 <sync_ep_buffer+0x28>
20000ac0:	2300      	movs	r3, #0
20000ac2:	82a3      	strh	r3, [r4, #20]
20000ac4:	0028      	movs	r0, r5
20000ac6:	bd70      	pop	{r4, r5, r6, pc}
20000ac8:	68e3      	ldr	r3, [r4, #12]
20000aca:	0189      	lsls	r1, r1, #6
20000acc:	469c      	mov	ip, r3
20000ace:	002a      	movs	r2, r5
20000ad0:	6920      	ldr	r0, [r4, #16]
20000ad2:	4461      	add	r1, ip
20000ad4:	f000 f968 	bl	20000da8 <____wrap_memcpy_veneer>
20000ad8:	8ae3      	ldrh	r3, [r4, #22]
20000ada:	18eb      	adds	r3, r5, r3
20000adc:	82e3      	strh	r3, [r4, #22]
20000ade:	6923      	ldr	r3, [r4, #16]
20000ae0:	195b      	adds	r3, r3, r5
20000ae2:	6123      	str	r3, [r4, #16]
20000ae4:	e7e9      	b.n	20000aba <sync_ep_buffer+0x1e>
20000ae6:	46c0      	nop			; (mov r8, r8)

20000ae8 <_hw_endpoint_xfer_sync>:
20000ae8:	b510      	push	{r4, lr}
20000aea:	0004      	movs	r4, r0
20000aec:	6883      	ldr	r3, [r0, #8]
20000aee:	2100      	movs	r1, #0
20000af0:	681b      	ldr	r3, [r3, #0]
20000af2:	f7ff ffd3 	bl	20000a9c <sync_ep_buffer>
20000af6:	6863      	ldr	r3, [r4, #4]
20000af8:	681b      	ldr	r3, [r3, #0]
20000afa:	005b      	lsls	r3, r3, #1
20000afc:	d502      	bpl.n	20000b04 <_hw_endpoint_xfer_sync+0x1c>
20000afe:	8b23      	ldrh	r3, [r4, #24]
20000b00:	4283      	cmp	r3, r0
20000b02:	d000      	beq.n	20000b06 <_hw_endpoint_xfer_sync+0x1e>
20000b04:	bd10      	pop	{r4, pc}
20000b06:	2101      	movs	r1, #1
20000b08:	0020      	movs	r0, r4
20000b0a:	f7ff ffc7 	bl	20000a9c <sync_ep_buffer>
20000b0e:	e7f9      	b.n	20000b04 <_hw_endpoint_xfer_sync+0x1c>

20000b10 <hw_endpoint_reset_transfer>:
20000b10:	2300      	movs	r3, #0
20000b12:	7683      	strb	r3, [r0, #26]
20000b14:	6143      	str	r3, [r0, #20]
20000b16:	6103      	str	r3, [r0, #16]
20000b18:	4770      	bx	lr
20000b1a:	46c0      	nop			; (mov r8, r8)

20000b1c <_hw_endpoint_buffer_control_update32>:
20000b1c:	b510      	push	{r4, lr}
20000b1e:	6883      	ldr	r3, [r0, #8]
20000b20:	2900      	cmp	r1, #0
20000b22:	d001      	beq.n	20000b28 <_hw_endpoint_buffer_control_update32+0xc>
20000b24:	681c      	ldr	r4, [r3, #0]
20000b26:	4021      	ands	r1, r4
20000b28:	2a00      	cmp	r2, #0
20000b2a:	d011      	beq.n	20000b50 <_hw_endpoint_buffer_control_update32+0x34>
20000b2c:	2480      	movs	r4, #128	; 0x80
20000b2e:	00e4      	lsls	r4, r4, #3
20000b30:	4311      	orrs	r1, r2
20000b32:	4222      	tst	r2, r4
20000b34:	d00c      	beq.n	20000b50 <_hw_endpoint_buffer_control_update32+0x34>
20000b36:	681a      	ldr	r2, [r3, #0]
20000b38:	4222      	tst	r2, r4
20000b3a:	d10b      	bne.n	20000b54 <_hw_endpoint_buffer_control_update32+0x38>
20000b3c:	4a0a      	ldr	r2, [pc, #40]	; (20000b68 <_hw_endpoint_buffer_control_update32+0x4c>)
20000b3e:	400a      	ands	r2, r1
20000b40:	601a      	str	r2, [r3, #0]
20000b42:	e7ff      	b.n	20000b44 <_hw_endpoint_buffer_control_update32+0x28>
20000b44:	e7ff      	b.n	20000b46 <_hw_endpoint_buffer_control_update32+0x2a>
20000b46:	e7ff      	b.n	20000b48 <_hw_endpoint_buffer_control_update32+0x2c>
20000b48:	e7ff      	b.n	20000b4a <_hw_endpoint_buffer_control_update32+0x2e>
20000b4a:	e7ff      	b.n	20000b4c <_hw_endpoint_buffer_control_update32+0x30>
20000b4c:	e7ff      	b.n	20000b4e <_hw_endpoint_buffer_control_update32+0x32>
20000b4e:	6883      	ldr	r3, [r0, #8]
20000b50:	6019      	str	r1, [r3, #0]
20000b52:	bd10      	pop	{r4, pc}
20000b54:	227f      	movs	r2, #127	; 0x7f
20000b56:	7881      	ldrb	r1, [r0, #2]
20000b58:	4804      	ldr	r0, [pc, #16]	; (20000b6c <_hw_endpoint_buffer_control_update32+0x50>)
20000b5a:	09cb      	lsrs	r3, r1, #7
20000b5c:	4011      	ands	r1, r2
20000b5e:	4a04      	ldr	r2, [pc, #16]	; (20000b70 <_hw_endpoint_buffer_control_update32+0x54>)
20000b60:	009b      	lsls	r3, r3, #2
20000b62:	589a      	ldr	r2, [r3, r2]
20000b64:	f000 f948 	bl	20000df8 <__panic_veneer>
20000b68:	fffffbff 	.word	0xfffffbff
20000b6c:	10008134 	.word	0x10008134
20000b70:	20000ee8 	.word	0x20000ee8

20000b74 <hw_endpoint_start_next_buffer>:
20000b74:	6843      	ldr	r3, [r0, #4]
20000b76:	b570      	push	{r4, r5, r6, lr}
20000b78:	2100      	movs	r1, #0
20000b7a:	2580      	movs	r5, #128	; 0x80
20000b7c:	681e      	ldr	r6, [r3, #0]
20000b7e:	0004      	movs	r4, r0
20000b80:	f7ff ff54 	bl	20000a2c <prepare_ep_buffer>
20000b84:	4b13      	ldr	r3, [pc, #76]	; (20000bd4 <hw_endpoint_start_next_buffer+0x60>)
20000b86:	016d      	lsls	r5, r5, #5
20000b88:	6c1b      	ldr	r3, [r3, #64]	; 0x40
20000b8a:	4305      	orrs	r5, r0
20000b8c:	079b      	lsls	r3, r3, #30
20000b8e:	d50f      	bpl.n	20000bb0 <hw_endpoint_start_next_buffer+0x3c>
20000b90:	78a3      	ldrb	r3, [r4, #2]
20000b92:	065b      	lsls	r3, r3, #25
20000b94:	d00f      	beq.n	20000bb6 <hw_endpoint_start_next_buffer+0x42>
20000b96:	4b10      	ldr	r3, [pc, #64]	; (20000bd8 <hw_endpoint_start_next_buffer+0x64>)
20000b98:	401e      	ands	r6, r3
20000b9a:	2380      	movs	r3, #128	; 0x80
20000b9c:	059b      	lsls	r3, r3, #22
20000b9e:	4333      	orrs	r3, r6
20000ba0:	6862      	ldr	r2, [r4, #4]
20000ba2:	2100      	movs	r1, #0
20000ba4:	6013      	str	r3, [r2, #0]
20000ba6:	0020      	movs	r0, r4
20000ba8:	002a      	movs	r2, r5
20000baa:	f7ff ffb7 	bl	20000b1c <_hw_endpoint_buffer_control_update32>
20000bae:	bd70      	pop	{r4, r5, r6, pc}
20000bb0:	78a3      	ldrb	r3, [r4, #2]
20000bb2:	09db      	lsrs	r3, r3, #7
20000bb4:	d0ef      	beq.n	20000b96 <hw_endpoint_start_next_buffer+0x22>
20000bb6:	8aa3      	ldrh	r3, [r4, #20]
20000bb8:	2b00      	cmp	r3, #0
20000bba:	d0ec      	beq.n	20000b96 <hw_endpoint_start_next_buffer+0x22>
20000bbc:	2101      	movs	r1, #1
20000bbe:	0020      	movs	r0, r4
20000bc0:	f7ff ff34 	bl	20000a2c <prepare_ep_buffer>
20000bc4:	23a0      	movs	r3, #160	; 0xa0
20000bc6:	4a05      	ldr	r2, [pc, #20]	; (20000bdc <hw_endpoint_start_next_buffer+0x68>)
20000bc8:	05db      	lsls	r3, r3, #23
20000bca:	4032      	ands	r2, r6
20000bcc:	4305      	orrs	r5, r0
20000bce:	4313      	orrs	r3, r2
20000bd0:	e7e6      	b.n	20000ba0 <hw_endpoint_start_next_buffer+0x2c>
20000bd2:	46c0      	nop			; (mov r8, r8)
20000bd4:	50110000 	.word	0x50110000
20000bd8:	afffffff 	.word	0xafffffff
20000bdc:	dfffffff 	.word	0xdfffffff

20000be0 <hw_endpoint_xfer_continue>:
20000be0:	b570      	push	{r4, r5, r6, lr}
20000be2:	7e85      	ldrb	r5, [r0, #26]
20000be4:	0004      	movs	r4, r0
20000be6:	2d00      	cmp	r5, #0
20000be8:	d013      	beq.n	20000c12 <hw_endpoint_xfer_continue+0x32>
20000bea:	f7ff ff7d 	bl	20000ae8 <_hw_endpoint_xfer_sync>
20000bee:	8aa3      	ldrh	r3, [r4, #20]
20000bf0:	2b00      	cmp	r3, #0
20000bf2:	d101      	bne.n	20000bf8 <hw_endpoint_xfer_continue+0x18>
20000bf4:	0028      	movs	r0, r5
20000bf6:	bd70      	pop	{r4, r5, r6, pc}
20000bf8:	0020      	movs	r0, r4
20000bfa:	f7ff fefd 	bl	200009f8 <e15_is_critical_frame_period>
20000bfe:	1e05      	subs	r5, r0, #0
20000c00:	d003      	beq.n	20000c0a <hw_endpoint_xfer_continue+0x2a>
20000c02:	2301      	movs	r3, #1
20000c04:	2500      	movs	r5, #0
20000c06:	7723      	strb	r3, [r4, #28]
20000c08:	e7f4      	b.n	20000bf4 <hw_endpoint_xfer_continue+0x14>
20000c0a:	0020      	movs	r0, r4
20000c0c:	f7ff ffb2 	bl	20000b74 <hw_endpoint_start_next_buffer>
20000c10:	e7f0      	b.n	20000bf4 <hw_endpoint_xfer_continue+0x14>
20000c12:	227f      	movs	r2, #127	; 0x7f
20000c14:	7881      	ldrb	r1, [r0, #2]
20000c16:	4804      	ldr	r0, [pc, #16]	; (20000c28 <hw_endpoint_xfer_continue+0x48>)
20000c18:	09cb      	lsrs	r3, r1, #7
20000c1a:	4011      	ands	r1, r2
20000c1c:	4a03      	ldr	r2, [pc, #12]	; (20000c2c <hw_endpoint_xfer_continue+0x4c>)
20000c1e:	009b      	lsls	r3, r3, #2
20000c20:	589a      	ldr	r2, [r3, r2]
20000c22:	f000 f8e9 	bl	20000df8 <__panic_veneer>
20000c26:	46c0      	nop			; (mov r8, r8)
20000c28:	10008154 	.word	0x10008154
20000c2c:	20000ee8 	.word	0x20000ee8

20000c30 <dcd_event_handler>:
20000c30:	b5f0      	push	{r4, r5, r6, r7, lr}
20000c32:	7843      	ldrb	r3, [r0, #1]
20000c34:	0005      	movs	r5, r0
20000c36:	b085      	sub	sp, #20
20000c38:	2b04      	cmp	r3, #4
20000c3a:	d100      	bne.n	20000c3e <dcd_event_handler+0xe>
20000c3c:	e075      	b.n	20000d2a <dcd_event_handler+0xfa>
20000c3e:	d846      	bhi.n	20000cce <dcd_event_handler+0x9e>
20000c40:	2b02      	cmp	r3, #2
20000c42:	d100      	bne.n	20000c46 <dcd_event_handler+0x16>
20000c44:	e083      	b.n	20000d4e <dcd_event_handler+0x11e>
20000c46:	2b03      	cmp	r3, #3
20000c48:	d155      	bne.n	20000cf6 <dcd_event_handler+0xc6>
20000c4a:	4e50      	ldr	r6, [pc, #320]	; (20000d8c <dcd_event_handler+0x15c>)
20000c4c:	4a50      	ldr	r2, [pc, #320]	; (20000d90 <dcd_event_handler+0x160>)
20000c4e:	2400      	movs	r4, #0
20000c50:	7833      	ldrb	r3, [r6, #0]
20000c52:	2a00      	cmp	r2, #0
20000c54:	d100      	bne.n	20000c58 <dcd_event_handler+0x28>
20000c56:	e092      	b.n	20000d7e <dcd_event_handler+0x14e>
20000c58:	4f4e      	ldr	r7, [pc, #312]	; (20000d94 <dcd_event_handler+0x164>)
20000c5a:	e003      	b.n	20000c64 <dcd_event_handler+0x34>
20000c5c:	3401      	adds	r4, #1
20000c5e:	b2e4      	uxtb	r4, r4
20000c60:	429c      	cmp	r4, r3
20000c62:	d814      	bhi.n	20000c8e <dcd_event_handler+0x5e>
20000c64:	42a3      	cmp	r3, r4
20000c66:	d9f9      	bls.n	20000c5c <dcd_event_handler+0x2c>
20000c68:	6839      	ldr	r1, [r7, #0]
20000c6a:	0062      	lsls	r2, r4, #1
20000c6c:	468c      	mov	ip, r1
20000c6e:	1912      	adds	r2, r2, r4
20000c70:	00d2      	lsls	r2, r2, #3
20000c72:	4462      	add	r2, ip
20000c74:	2a00      	cmp	r2, #0
20000c76:	d0f1      	beq.n	20000c5c <dcd_event_handler+0x2c>
20000c78:	6952      	ldr	r2, [r2, #20]
20000c7a:	2a00      	cmp	r2, #0
20000c7c:	d0ee      	beq.n	20000c5c <dcd_event_handler+0x2c>
20000c7e:	7828      	ldrb	r0, [r5, #0]
20000c80:	6869      	ldr	r1, [r5, #4]
20000c82:	4790      	blx	r2
20000c84:	3401      	adds	r4, #1
20000c86:	7833      	ldrb	r3, [r6, #0]
20000c88:	b2e4      	uxtb	r4, r4
20000c8a:	429c      	cmp	r4, r3
20000c8c:	d9ea      	bls.n	20000c64 <dcd_event_handler+0x34>
20000c8e:	4b42      	ldr	r3, [pc, #264]	; (20000d98 <dcd_event_handler+0x168>)
20000c90:	781a      	ldrb	r2, [r3, #0]
20000c92:	0752      	lsls	r2, r2, #29
20000c94:	d547      	bpl.n	20000d26 <dcd_event_handler+0xf6>
20000c96:	2104      	movs	r1, #4
20000c98:	781a      	ldrb	r2, [r3, #0]
20000c9a:	a801      	add	r0, sp, #4
20000c9c:	438a      	bics	r2, r1
20000c9e:	701a      	strb	r2, [r3, #0]
20000ca0:	2100      	movs	r1, #0
20000ca2:	220c      	movs	r2, #12
20000ca4:	f000 f8b0 	bl	20000e08 <____wrap_memset_veneer>
20000ca8:	466a      	mov	r2, sp
20000caa:	782b      	ldrb	r3, [r5, #0]
20000cac:	7113      	strb	r3, [r2, #4]
20000cae:	2305      	movs	r3, #5
20000cb0:	7153      	strb	r3, [r2, #5]
20000cb2:	4b3a      	ldr	r3, [pc, #232]	; (20000d9c <dcd_event_handler+0x16c>)
20000cb4:	681c      	ldr	r4, [r3, #0]
20000cb6:	6962      	ldr	r2, [r4, #20]
20000cb8:	f3ef 8110 	mrs	r1, PRIMASK
20000cbc:	b672      	cpsid	i
20000cbe:	6813      	ldr	r3, [r2, #0]
20000cc0:	2b00      	cmp	r3, #0
20000cc2:	d0fc      	beq.n	20000cbe <dcd_event_handler+0x8e>
20000cc4:	f3bf 8f5f 	dmb	sy
20000cc8:	61a1      	str	r1, [r4, #24]
20000cca:	a901      	add	r1, sp, #4
20000ccc:	e020      	b.n	20000d10 <dcd_event_handler+0xe0>
20000cce:	2b05      	cmp	r3, #5
20000cd0:	d111      	bne.n	20000cf6 <dcd_event_handler+0xc6>
20000cd2:	4b31      	ldr	r3, [pc, #196]	; (20000d98 <dcd_event_handler+0x168>)
20000cd4:	781a      	ldrb	r2, [r3, #0]
20000cd6:	07d2      	lsls	r2, r2, #31
20000cd8:	d525      	bpl.n	20000d26 <dcd_event_handler+0xf6>
20000cda:	2104      	movs	r1, #4
20000cdc:	781a      	ldrb	r2, [r3, #0]
20000cde:	438a      	bics	r2, r1
20000ce0:	701a      	strb	r2, [r3, #0]
20000ce2:	4b2e      	ldr	r3, [pc, #184]	; (20000d9c <dcd_event_handler+0x16c>)
20000ce4:	681c      	ldr	r4, [r3, #0]
20000ce6:	6962      	ldr	r2, [r4, #20]
20000ce8:	f3ef 8110 	mrs	r1, PRIMASK
20000cec:	b672      	cpsid	i
20000cee:	6813      	ldr	r3, [r2, #0]
20000cf0:	2b00      	cmp	r3, #0
20000cf2:	d109      	bne.n	20000d08 <dcd_event_handler+0xd8>
20000cf4:	e7fb      	b.n	20000cee <dcd_event_handler+0xbe>
20000cf6:	4b29      	ldr	r3, [pc, #164]	; (20000d9c <dcd_event_handler+0x16c>)
20000cf8:	681c      	ldr	r4, [r3, #0]
20000cfa:	6962      	ldr	r2, [r4, #20]
20000cfc:	f3ef 8110 	mrs	r1, PRIMASK
20000d00:	b672      	cpsid	i
20000d02:	6813      	ldr	r3, [r2, #0]
20000d04:	2b00      	cmp	r3, #0
20000d06:	d0fc      	beq.n	20000d02 <dcd_event_handler+0xd2>
20000d08:	f3bf 8f5f 	dmb	sy
20000d0c:	61a1      	str	r1, [r4, #24]
20000d0e:	0029      	movs	r1, r5
20000d10:	0020      	movs	r0, r4
20000d12:	f000 f861 	bl	20000dd8 <__tu_fifo_write_veneer>
20000d16:	6962      	ldr	r2, [r4, #20]
20000d18:	69a3      	ldr	r3, [r4, #24]
20000d1a:	f3bf 8f5f 	dmb	sy
20000d1e:	2100      	movs	r1, #0
20000d20:	6011      	str	r1, [r2, #0]
20000d22:	f383 8810 	msr	PRIMASK, r3
20000d26:	b005      	add	sp, #20
20000d28:	bdf0      	pop	{r4, r5, r6, r7, pc}
20000d2a:	4b1b      	ldr	r3, [pc, #108]	; (20000d98 <dcd_event_handler+0x168>)
20000d2c:	781a      	ldrb	r2, [r3, #0]
20000d2e:	07d2      	lsls	r2, r2, #31
20000d30:	d5f9      	bpl.n	20000d26 <dcd_event_handler+0xf6>
20000d32:	2104      	movs	r1, #4
20000d34:	781a      	ldrb	r2, [r3, #0]
20000d36:	430a      	orrs	r2, r1
20000d38:	701a      	strb	r2, [r3, #0]
20000d3a:	4b18      	ldr	r3, [pc, #96]	; (20000d9c <dcd_event_handler+0x16c>)
20000d3c:	681c      	ldr	r4, [r3, #0]
20000d3e:	6962      	ldr	r2, [r4, #20]
20000d40:	f3ef 8110 	mrs	r1, PRIMASK
20000d44:	b672      	cpsid	i
20000d46:	6813      	ldr	r3, [r2, #0]
20000d48:	2b00      	cmp	r3, #0
20000d4a:	d1dd      	bne.n	20000d08 <dcd_event_handler+0xd8>
20000d4c:	e7fb      	b.n	20000d46 <dcd_event_handler+0x116>
20000d4e:	2001      	movs	r0, #1
20000d50:	4a11      	ldr	r2, [pc, #68]	; (20000d98 <dcd_event_handler+0x168>)
20000d52:	7811      	ldrb	r1, [r2, #0]
20000d54:	4381      	bics	r1, r0
20000d56:	7011      	strb	r1, [r2, #0]
20000d58:	7811      	ldrb	r1, [r2, #0]
20000d5a:	4399      	bics	r1, r3
20000d5c:	2300      	movs	r3, #0
20000d5e:	7011      	strb	r1, [r2, #0]
20000d60:	2104      	movs	r1, #4
20000d62:	7053      	strb	r3, [r2, #1]
20000d64:	7813      	ldrb	r3, [r2, #0]
20000d66:	438b      	bics	r3, r1
20000d68:	7013      	strb	r3, [r2, #0]
20000d6a:	4b0c      	ldr	r3, [pc, #48]	; (20000d9c <dcd_event_handler+0x16c>)
20000d6c:	681c      	ldr	r4, [r3, #0]
20000d6e:	6962      	ldr	r2, [r4, #20]
20000d70:	f3ef 8110 	mrs	r1, PRIMASK
20000d74:	b672      	cpsid	i
20000d76:	6813      	ldr	r3, [r2, #0]
20000d78:	2b00      	cmp	r3, #0
20000d7a:	d1c5      	bne.n	20000d08 <dcd_event_handler+0xd8>
20000d7c:	e7fb      	b.n	20000d76 <dcd_event_handler+0x146>
20000d7e:	2200      	movs	r2, #0
20000d80:	3201      	adds	r2, #1
20000d82:	b2d2      	uxtb	r2, r2
20000d84:	429a      	cmp	r2, r3
20000d86:	d9fb      	bls.n	20000d80 <dcd_event_handler+0x150>
20000d88:	e781      	b.n	20000c8e <dcd_event_handler+0x5e>
20000d8a:	46c0      	nop			; (mov r8, r8)
20000d8c:	20002111 	.word	0x20002111
20000d90:	10005319 	.word	0x10005319
20000d94:	2000168c 	.word	0x2000168c
20000d98:	200019b4 	.word	0x200019b4
20000d9c:	20001a0c 	.word	0x20001a0c

20000da0 <__aeabi_idiv0>:
20000da0:	4770      	bx	lr
20000da2:	46c0      	nop			; (mov r8, r8)
20000da4:	0000      	movs	r0, r0
	...

20000da8 <____wrap_memcpy_veneer>:
20000da8:	b401      	push	{r0}
20000daa:	4802      	ldr	r0, [pc, #8]	; (20000db4 <____wrap_memcpy_veneer+0xc>)
20000dac:	4684      	mov	ip, r0
20000dae:	bc01      	pop	{r0}
20000db0:	4760      	bx	ip
20000db2:	bf00      	nop
20000db4:	10004e4d 	.word	0x10004e4d

20000db8 <__best_effort_wfe_or_timeout_veneer>:
20000db8:	b401      	push	{r0}
20000dba:	4802      	ldr	r0, [pc, #8]	; (20000dc4 <__best_effort_wfe_or_timeout_veneer+0xc>)
20000dbc:	4684      	mov	ip, r0
20000dbe:	bc01      	pop	{r0}
20000dc0:	4760      	bx	ip
20000dc2:	bf00      	nop
20000dc4:	10001c95 	.word	0x10001c95

20000dc8 <__time_us_64_veneer>:
20000dc8:	b401      	push	{r0}
20000dca:	4802      	ldr	r0, [pc, #8]	; (20000dd4 <__time_us_64_veneer+0xc>)
20000dcc:	4684      	mov	ip, r0
20000dce:	bc01      	pop	{r0}
20000dd0:	4760      	bx	ip
20000dd2:	bf00      	nop
20000dd4:	10001de1 	.word	0x10001de1

20000dd8 <__tu_fifo_write_veneer>:
20000dd8:	b401      	push	{r0}
20000dda:	4802      	ldr	r0, [pc, #8]	; (20000de4 <__tu_fifo_write_veneer+0xc>)
20000ddc:	4684      	mov	ip, r0
20000dde:	bc01      	pop	{r0}
20000de0:	4760      	bx	ip
20000de2:	bf00      	nop
20000de4:	100072c5 	.word	0x100072c5

20000de8 <____wrap___aeabi_lmul_veneer>:
20000de8:	b401      	push	{r0}
20000dea:	4802      	ldr	r0, [pc, #8]	; (20000df4 <____wrap___aeabi_lmul_veneer+0xc>)
20000dec:	4684      	mov	ip, r0
20000dee:	bc01      	pop	{r0}
20000df0:	4760      	bx	ip
20000df2:	bf00      	nop
20000df4:	10004cc9 	.word	0x10004cc9

20000df8 <__panic_veneer>:
20000df8:	b401      	push	{r0}
20000dfa:	4802      	ldr	r0, [pc, #8]	; (20000e04 <__panic_veneer+0xc>)
20000dfc:	4684      	mov	ip, r0
20000dfe:	bc01      	pop	{r0}
20000e00:	4760      	bx	ip
20000e02:	bf00      	nop
20000e04:	100029c9 	.word	0x100029c9

20000e08 <____wrap_memset_veneer>:
20000e08:	b401      	push	{r0}
20000e0a:	4802      	ldr	r0, [pc, #8]	; (20000e14 <____wrap_memset_veneer+0xc>)
20000e0c:	4684      	mov	ip, r0
20000e0e:	bc01      	pop	{r0}
20000e10:	4760      	bx	ip
20000e12:	bf00      	nop
20000e14:	10004e41 	.word	0x10004e41

20000e18 <cols>:
20000e18:	00000005 00000006 00000003 0000000c     ................

20000e28 <period>:
20000e28:	000003e8                                ....

20000e2c <rows>:
20000e2c:	00000008 0000000b                       ........

20000e34 <striped_spin_lock_num>:
20000e34:	00000010                                ....

20000e38 <irq_handler_chain_slots>:
20000e38:	00000000 	.word	0x00000000
20000e3c:	00010000 	.word	0x00010000
	...
20000e48:	00020000 	.word	0x00020000
	...
20000e54:	00030000 	.word	0x00030000
	...
20000e60:	00ff0000 	.word	0x00ff0000
20000e64:	00000000 	.word	0x00000000

20000e68 <irq_handler_chain_first_slot>:
20000e68:	b501      	push	{r0, lr}
20000e6a:	6848      	ldr	r0, [r1, #4]
20000e6c:	3101      	adds	r1, #1
20000e6e:	468e      	mov	lr, r1
20000e70:	4700      	bx	r0

20000e72 <irq_handler_chain_remove_tail>:
20000e72:	4670      	mov	r0, lr
20000e74:	3809      	subs	r0, #9
20000e76:	4901      	ldr	r1, [pc, #4]	; (20000e7c <irq_handler_chain_remove_tail+0xa>)
20000e78:	4788      	blx	r1
20000e7a:	bd01      	pop	{r0, pc}
20000e7c:	1000149d 	.word	0x1000149d

20000e80 <default_alarm_pool>:
20000e80:	20000e98 00000000 20001368 20001c1c     ... ....h.. ... 
	...

20000e98 <default_alarm_pool_heap>:
20000e98:	20001c2c 00000000 00000000 00000010     ,.. ............
	...

20000eb0 <aeabi_bits_funcs>:
20000eb0:	00003350 	.word	0x00003350
20000eb4:	0000334c 	.word	0x0000334c
20000eb8:	00003354 	.word	0x00003354
20000ebc:	00003352 	.word	0x00003352

20000ec0 <aeabi_bits_funcs_end>:
20000ec0:	0000534d 	.word	0x0000534d
20000ec4:	0000434d 	.word	0x0000434d
20000ec8:	00003453 	.word	0x00003453
20000ecc:	00003443 	.word	0x00003443

20000ed0 <stdio_usb>:
20000ed0:	10005461 00000000 100053d1 10005359     aT.......S..YS..
20000ee0:	00000000 00000100                       ........

20000ee8 <ep_dir_string>:
20000ee8:	10008180 10008184                       ........

20000ef0 <_usbd_qdef>:
20000ef0:	20001a10 000c0010 00000000 00000000     ... ............
	...

20000f0c <_usbd_rhport>:
20000f0c:	000000ff                                ....

20000f10 <i2c0_inst>:
20000f10:	40044000 00000000                       .@.@....

20000f18 <_impure_ptr>:
20000f18:	20000f20 00000000                        .. ....

20000f20 <impure_data>:
20000f20:	00000000 2000120c 20001274 200012dc     ....... t.. ... 
	...
20000fc8:	00000001 00000000 abcd330e e66d1234     .........3..4.m.
20000fd8:	0005deec 0000000b 00000000 00000000     ................
	...

20001348 <print_mutex>:
	...

20001350 <__mutex_array_end>:
20001350:	10004e31 	.word	0x10004e31
20001354:	10003fc9 	.word	0x10003fc9
20001358:	100046d5 	.word	0x100046d5
2000135c:	10004da1 	.word	0x10004da1

20001360 <__frame_dummy_init_array_entry>:
20001360:	10000331 10005789                       1....W..
